
main.elf:     file format elf32-littlearm


Disassembly of section .reset:

00000000 <_start>:
   0:	e59ff088 	ldr	pc, [pc, #136]	; 90 <irq_handler+0xc>
   4:	eafffffe 	b	4 <_start+0x4>
   8:	eafffffe 	b	8 <_start+0x8>
   c:	eafffffe 	b	c <_start+0xc>
  10:	eafffffe 	b	10 <_start+0x10>
  14:	eafffffe 	b	14 <_start+0x14>
  18:	e59ff074 	ldr	pc, [pc, #116]	; 94 <irq_handler+0x10>
  1c:	eafffffe 	b	1c <_start+0x1c>

00000020 <reset_handler>:
  20:	e3a0d902 	mov	sp, #32768	; 0x8000
  24:	e10f4000 	mrs	r4, CPSR
  28:	e3c4400f 	bic	r4, r4, #15
  2c:	e3844002 	orr	r4, r4, #2
  30:	e121f004 	msr	CPSR_c, r4
  34:	e3a0da07 	mov	sp, #28672	; 0x7000
  38:	e10f4000 	mrs	r4, CPSR
  3c:	e3c4400f 	bic	r4, r4, #15
  40:	e3844003 	orr	r4, r4, #3
  44:	e121f004 	msr	CPSR_c, r4
  48:	ee114f10 	mrc	15, 0, r4, cr1, cr0, {0}
  4c:	e3a05001 	mov	r5, #1
  50:	e1c44685 	bic	r4, r4, r5, lsl #13
  54:	ee014f10 	mcr	15, 0, r4, cr1, cr0, {0}
  58:	ea000422 	b	10e8 <Main>

0000005c <enable_irq>:
  5c:	e92d4010 	push	{r4, lr}
  60:	e10f4000 	mrs	r4, CPSR
  64:	e3c44080 	bic	r4, r4, #128	; 0x80
  68:	e121f004 	msr	CPSR_c, r4
  6c:	e8bd8010 	pop	{r4, pc}

00000070 <disable_irq>:
  70:	e92d4010 	push	{r4, lr}
  74:	e10f4000 	mrs	r4, CPSR
  78:	e3844080 	orr	r4, r4, #128	; 0x80
  7c:	e121f004 	msr	CPSR_c, r4
  80:	e8bd8010 	pop	{r4, pc}

00000084 <irq_handler>:
  84:	e25ee004 	subs	lr, lr, #4
  88:	e92d5fff 	push	{r0, r1, r2, r3, r4, r5, r6, r7, r8, r9, sl, fp, ip, lr}
  8c:	e8fd9fff 	ldm	sp!, {r0, r1, r2, r3, r4, r5, r6, r7, r8, r9, sl, fp, ip, pc}^
  90:	00000020 	andeq	r0, r0, r0, lsr #32
  94:	00000084 	andeq	r0, r0, r4, lsl #1

Disassembly of section .text:

00001000 <ddrtest>:
    1000:	e92d4800 	push	{fp, lr}
    1004:	e28db004 	add	fp, sp, #4
    1008:	e24dd010 	sub	sp, sp, #16
    100c:	e59f30c8 	ldr	r3, [pc, #200]	; 10dc <ddrtest+0xdc>
    1010:	e50b300c 	str	r3, [fp, #-12]
    1014:	e3a03101 	mov	r3, #1073741824	; 0x40000000
    1018:	e50b3010 	str	r3, [fp, #-16]
    101c:	e3a03000 	mov	r3, #0
    1020:	e50b3008 	str	r3, [fp, #-8]
    1024:	ea000009 	b	1050 <ddrtest+0x50>
    1028:	e51b3008 	ldr	r3, [fp, #-8]
    102c:	e1a03103 	lsl	r3, r3, #2
    1030:	e51b2010 	ldr	r2, [fp, #-16]
    1034:	e0823003 	add	r3, r2, r3
    1038:	e51b2008 	ldr	r2, [fp, #-8]
    103c:	e3c22008 	bic	r2, r2, #8
    1040:	e5832000 	str	r2, [r3]
    1044:	e51b3008 	ldr	r3, [fp, #-8]
    1048:	e2833001 	add	r3, r3, #1
    104c:	e50b3008 	str	r3, [fp, #-8]
    1050:	e51b2008 	ldr	r2, [fp, #-8]
    1054:	e59f3084 	ldr	r3, [pc, #132]	; 10e0 <ddrtest+0xe0>
    1058:	e1520003 	cmp	r2, r3
    105c:	9afffff1 	bls	1028 <ddrtest+0x28>
    1060:	e3a03000 	mov	r3, #0
    1064:	e50b3008 	str	r3, [fp, #-8]
    1068:	ea000013 	b	10bc <ddrtest+0xbc>
    106c:	e51b3008 	ldr	r3, [fp, #-8]
    1070:	e1a03103 	lsl	r3, r3, #2
    1074:	e51b2010 	ldr	r2, [fp, #-16]
    1078:	e0823003 	add	r3, r2, r3
    107c:	e5933000 	ldr	r3, [r3]
    1080:	e50b3014 	str	r3, [fp, #-20]	; 0xffffffec
    1084:	e51b3008 	ldr	r3, [fp, #-8]
    1088:	e3c33008 	bic	r3, r3, #8
    108c:	e51b2014 	ldr	r2, [fp, #-20]	; 0xffffffec
    1090:	e1520003 	cmp	r2, r3
    1094:	0a000005 	beq	10b0 <ddrtest+0xb0>
    1098:	e51b0008 	ldr	r0, [fp, #-8]
    109c:	eb000bc0 	bl	3fa4 <PrintHex>
    10a0:	e59f003c 	ldr	r0, [pc, #60]	; 10e4 <ddrtest+0xe4>
    10a4:	eb0011df 	bl	5828 <puts>
    10a8:	e51b0014 	ldr	r0, [fp, #-20]	; 0xffffffec
    10ac:	eb000bbc 	bl	3fa4 <PrintHex>
    10b0:	e51b3008 	ldr	r3, [fp, #-8]
    10b4:	e2833001 	add	r3, r3, #1
    10b8:	e50b3008 	str	r3, [fp, #-8]
    10bc:	e51b2008 	ldr	r2, [fp, #-8]
    10c0:	e59f3018 	ldr	r3, [pc, #24]	; 10e0 <ddrtest+0xe0>
    10c4:	e1520003 	cmp	r2, r3
    10c8:	9affffe7 	bls	106c <ddrtest+0x6c>
    10cc:	e3a03000 	mov	r3, #0
    10d0:	e1a00003 	mov	r0, r3
    10d4:	e24bd004 	sub	sp, fp, #4
    10d8:	e8bd8800 	pop	{fp, pc}
    10dc:	41f00000 	mvnsmi	r0, r0
    10e0:	00fffffe 	ldrshteq	pc, [pc], #254	; <UNPREDICTABLE>
    10e4:	00005a60 	andeq	r5, r0, r0, ror #20

000010e8 <Main>:
    10e8:	e92d4800 	push	{fp, lr}
    10ec:	e28db004 	add	fp, sp, #4
    10f0:	e24dd048 	sub	sp, sp, #72	; 0x48
    10f4:	eb000db2 	bl	47c4 <init>
    10f8:	eb000279 	bl	1ae4 <start>
    10fc:	e59f3138 	ldr	r3, [pc, #312]	; 123c <Main+0x154>
    1100:	e5933000 	ldr	r3, [r3]
    1104:	e1a00003 	mov	r0, r3
    1108:	eb0011c6 	bl	5828 <puts>
    110c:	e3a00101 	mov	r0, #1073741824	; 0x40000000
    1110:	eb000e1e 	bl	4990 <init_taglist>
    1114:	e59f0124 	ldr	r0, [pc, #292]	; 1240 <Main+0x158>
    1118:	eb0011c2 	bl	5828 <puts>
    111c:	e24b302c 	sub	r3, fp, #44	; 0x2c
    1120:	e1a00003 	mov	r0, r3
    1124:	eb00107d 	bl	5320 <cmdline>
    1128:	e50b000c 	str	r0, [fp, #-12]
    112c:	e51b300c 	ldr	r3, [fp, #-12]
    1130:	e3530001 	cmp	r3, #1
    1134:	1a000016 	bne	1194 <Main+0xac>
    1138:	e51b302c 	ldr	r3, [fp, #-44]	; 0xffffffd4
    113c:	e1a00003 	mov	r0, r3
    1140:	e59f10fc 	ldr	r1, [pc, #252]	; 1244 <Main+0x15c>
    1144:	eb000ed9 	bl	4cb0 <strcmp>
    1148:	e1a03000 	mov	r3, r0
    114c:	e3530000 	cmp	r3, #0
    1150:	1a00000f 	bne	1194 <Main+0xac>
    1154:	e3a03000 	mov	r3, #0
    1158:	e50b3008 	str	r3, [fp, #-8]
    115c:	ea000009 	b	1188 <Main+0xa0>
    1160:	e59f00e0 	ldr	r0, [pc, #224]	; 1248 <Main+0x160>
    1164:	eb0011af 	bl	5828 <puts>
    1168:	e59f30cc 	ldr	r3, [pc, #204]	; 123c <Main+0x154>
    116c:	e51b2008 	ldr	r2, [fp, #-8]
    1170:	e7933102 	ldr	r3, [r3, r2, lsl #2]
    1174:	e1a00003 	mov	r0, r3
    1178:	eb0011aa 	bl	5828 <puts>
    117c:	e51b3008 	ldr	r3, [fp, #-8]
    1180:	e2833001 	add	r3, r3, #1
    1184:	e50b3008 	str	r3, [fp, #-8]
    1188:	e51b3008 	ldr	r3, [fp, #-8]
    118c:	e3530002 	cmp	r3, #2
    1190:	dafffff2 	ble	1160 <Main+0x78>
    1194:	e51b300c 	ldr	r3, [fp, #-12]
    1198:	e3530002 	cmp	r3, #2
    119c:	1a000009 	bne	11c8 <Main+0xe0>
    11a0:	e51b302c 	ldr	r3, [fp, #-44]	; 0xffffffd4
    11a4:	e1a00003 	mov	r0, r3
    11a8:	e59f109c 	ldr	r1, [pc, #156]	; 124c <Main+0x164>
    11ac:	eb000ebf 	bl	4cb0 <strcmp>
    11b0:	e1a03000 	mov	r3, r0
    11b4:	e3530000 	cmp	r3, #0
    11b8:	1a000002 	bne	11c8 <Main+0xe0>
    11bc:	e51b3028 	ldr	r3, [fp, #-40]	; 0xffffffd8
    11c0:	e1a00003 	mov	r0, r3
    11c4:	eb0010a6 	bl	5464 <cmd_get>
    11c8:	e51b300c 	ldr	r3, [fp, #-12]
    11cc:	e3530002 	cmp	r3, #2
    11d0:	1a000009 	bne	11fc <Main+0x114>
    11d4:	e51b302c 	ldr	r3, [fp, #-44]	; 0xffffffd4
    11d8:	e1a00003 	mov	r0, r3
    11dc:	e59f106c 	ldr	r1, [pc, #108]	; 1250 <Main+0x168>
    11e0:	eb000eb2 	bl	4cb0 <strcmp>
    11e4:	e1a03000 	mov	r3, r0
    11e8:	e3530000 	cmp	r3, #0
    11ec:	1a000002 	bne	11fc <Main+0x114>
    11f0:	e51b3028 	ldr	r3, [fp, #-40]	; 0xffffffd8
    11f4:	e1a00003 	mov	r0, r3
    11f8:	eb0010b7 	bl	54dc <cmd_go>
    11fc:	e51b300c 	ldr	r3, [fp, #-12]
    1200:	e3530001 	cmp	r3, #1
    1204:	1a000007 	bne	1228 <Main+0x140>
    1208:	e51b302c 	ldr	r3, [fp, #-44]	; 0xffffffd4
    120c:	e1a00003 	mov	r0, r3
    1210:	e59f103c 	ldr	r1, [pc, #60]	; 1254 <Main+0x16c>
    1214:	eb000ea5 	bl	4cb0 <strcmp>
    1218:	e1a03000 	mov	r3, r0
    121c:	e3530000 	cmp	r3, #0
    1220:	1a000000 	bne	1228 <Main+0x140>
    1224:	ebffff75 	bl	1000 <ddrtest>
    1228:	e3a0000a 	mov	r0, #10
    122c:	eb00116a 	bl	57dc <putchr>
    1230:	e3a0000d 	mov	r0, #13
    1234:	eb001168 	bl	57dc <putchr>
    1238:	eaffffb5 	b	1114 <Main+0x2c>
    123c:	00006000 	andeq	r6, r0, r0
    1240:	00005ad4 	ldrdeq	r5, [r0], -r4
    1244:	00005ae0 	andeq	r5, r0, r0, ror #21
    1248:	00005ae4 	andeq	r5, r0, r4, ror #21
    124c:	00005ae8 	andeq	r5, r0, r8, ror #21
    1250:	00005aec 	andeq	r5, r0, ip, ror #21
    1254:	00005af0 	strdeq	r5, [r0], -r0

00001258 <hw_emi_IsControllerHalted>:
    1258:	e52db004 	push	{fp}		; (str fp, [sp, #-4]!)
    125c:	e28db000 	add	fp, sp, #0
    1260:	e59f301c 	ldr	r3, [pc, #28]	; 1284 <hw_emi_IsControllerHalted+0x2c>
    1264:	e5933000 	ldr	r3, [r3]
    1268:	e1a030a3 	lsr	r3, r3, #1
    126c:	e2033001 	and	r3, r3, #1
    1270:	e20330ff 	and	r3, r3, #255	; 0xff
    1274:	e1a00003 	mov	r0, r3
    1278:	e28bd000 	add	sp, fp, #0
    127c:	e49db004 	pop	{fp}		; (ldr fp, [sp], #4)
    1280:	e12fff1e 	bx	lr
    1284:	80020010 	andhi	r0, r2, r0, lsl r0

00001288 <hw_core_drain_write_buffer>:
    1288:	e52db004 	push	{fp}		; (str fp, [sp, #-4]!)
    128c:	e28db000 	add	fp, sp, #0
    1290:	e28bd000 	add	sp, fp, #0
    1294:	e49db004 	pop	{fp}		; (ldr fp, [sp], #4)
    1298:	e12fff1e 	bx	lr

0000129c <hw_emi_IsDramSupported>:
    129c:	e52db004 	push	{fp}		; (str fp, [sp, #-4]!)
    12a0:	e28db000 	add	fp, sp, #0
    12a4:	e59f3028 	ldr	r3, [pc, #40]	; 12d4 <hw_emi_IsDramSupported+0x38>
    12a8:	e5933000 	ldr	r3, [r3]
    12ac:	e2033102 	and	r3, r3, #-2147483648	; 0x80000000
    12b0:	e3530000 	cmp	r3, #0
    12b4:	0a000001 	beq	12c0 <hw_emi_IsDramSupported+0x24>
    12b8:	e3a03001 	mov	r3, #1
    12bc:	ea000000 	b	12c4 <hw_emi_IsDramSupported+0x28>
    12c0:	e3a03000 	mov	r3, #0
    12c4:	e1a00003 	mov	r0, r3
    12c8:	e28bd000 	add	sp, fp, #0
    12cc:	e49db004 	pop	{fp}		; (ldr fp, [sp], #4)
    12d0:	e12fff1e 	bx	lr
    12d4:	80020010 	andhi	r0, r2, r0, lsl r0

000012d8 <hw_emi_ClearReset>:
    12d8:	e52db004 	push	{fp}		; (str fp, [sp, #-4]!)
    12dc:	e28db000 	add	fp, sp, #0
    12e0:	e59f301c 	ldr	r3, [pc, #28]	; 1304 <hw_emi_ClearReset+0x2c>
    12e4:	e3a02102 	mov	r2, #-2147483648	; 0x80000000
    12e8:	e5832000 	str	r2, [r3]
    12ec:	e59f3010 	ldr	r3, [pc, #16]	; 1304 <hw_emi_ClearReset+0x2c>
    12f0:	e3a02101 	mov	r2, #1073741824	; 0x40000000
    12f4:	e5832000 	str	r2, [r3]
    12f8:	e28bd000 	add	sp, fp, #0
    12fc:	e49db004 	pop	{fp}		; (ldr fp, [sp], #4)
    1300:	e12fff1e 	bx	lr
    1304:	80020008 	andhi	r0, r2, r8

00001308 <hw_clkctrl_SetEmiClkRefXtalDiv>:
    1308:	e52db004 	push	{fp}		; (str fp, [sp, #-4]!)
    130c:	e28db000 	add	fp, sp, #0
    1310:	e24dd00c 	sub	sp, sp, #12
    1314:	e50b0008 	str	r0, [fp, #-8]
    1318:	e59f3070 	ldr	r3, [pc, #112]	; 1390 <hw_clkctrl_SetEmiClkRefXtalDiv+0x88>
    131c:	e5933000 	ldr	r3, [r3]
    1320:	e2033202 	and	r3, r3, #536870912	; 0x20000000
    1324:	e3530000 	cmp	r3, #0
    1328:	0a000001 	beq	1334 <hw_clkctrl_SetEmiClkRefXtalDiv+0x2c>
    132c:	e59f3060 	ldr	r3, [pc, #96]	; 1394 <hw_clkctrl_SetEmiClkRefXtalDiv+0x8c>
    1330:	ea000012 	b	1380 <hw_clkctrl_SetEmiClkRefXtalDiv+0x78>
    1334:	e59f3054 	ldr	r3, [pc, #84]	; 1390 <hw_clkctrl_SetEmiClkRefXtalDiv+0x88>
    1338:	e5933000 	ldr	r3, [r3]
    133c:	e2033102 	and	r3, r3, #-2147483648	; 0x80000000
    1340:	e3530000 	cmp	r3, #0
    1344:	0a000001 	beq	1350 <hw_clkctrl_SetEmiClkRefXtalDiv+0x48>
    1348:	e59f3048 	ldr	r3, [pc, #72]	; 1398 <hw_clkctrl_SetEmiClkRefXtalDiv+0x90>
    134c:	ea00000b 	b	1380 <hw_clkctrl_SetEmiClkRefXtalDiv+0x78>
    1350:	e59f1038 	ldr	r1, [pc, #56]	; 1390 <hw_clkctrl_SetEmiClkRefXtalDiv+0x88>
    1354:	e51b3008 	ldr	r3, [fp, #-8]
    1358:	e20330ff 	and	r3, r3, #255	; 0xff
    135c:	e203300f 	and	r3, r3, #15
    1360:	e20320ff 	and	r2, r3, #255	; 0xff
    1364:	e5913000 	ldr	r3, [r1]
    1368:	e202200f 	and	r2, r2, #15
    136c:	e3c33c0f 	bic	r3, r3, #3840	; 0xf00
    1370:	e1a02402 	lsl	r2, r2, #8
    1374:	e1823003 	orr	r3, r2, r3
    1378:	e5813000 	str	r3, [r1]
    137c:	e3a03000 	mov	r3, #0
    1380:	e1a00003 	mov	r0, r3
    1384:	e28bd000 	add	sp, fp, #0
    1388:	e49db004 	pop	{fp}		; (ldr fp, [sp], #4)
    138c:	e12fff1e 	bx	lr
    1390:	800400a0 	andhi	r0, r4, r0, lsr #1
    1394:	f011a004 			; <UNDEFINED> instruction: 0xf011a004
    1398:	f011a005 			; <UNDEFINED> instruction: 0xf011a005

0000139c <hw_clkctrl_SetEmiRefXtalClkGate>:
    139c:	e52db004 	push	{fp}		; (str fp, [sp, #-4]!)
    13a0:	e28db000 	add	fp, sp, #0
    13a4:	e24dd00c 	sub	sp, sp, #12
    13a8:	e50b0008 	str	r0, [fp, #-8]
    13ac:	e51b3008 	ldr	r3, [fp, #-8]
    13b0:	e3530000 	cmp	r3, #0
    13b4:	0a000005 	beq	13d0 <hw_clkctrl_SetEmiRefXtalClkGate+0x34>
    13b8:	e59f3048 	ldr	r3, [pc, #72]	; 1408 <hw_clkctrl_SetEmiRefXtalClkGate+0x6c>
    13bc:	e59f2044 	ldr	r2, [pc, #68]	; 1408 <hw_clkctrl_SetEmiRefXtalClkGate+0x6c>
    13c0:	e5922000 	ldr	r2, [r2]
    13c4:	e3822102 	orr	r2, r2, #-2147483648	; 0x80000000
    13c8:	e5832000 	str	r2, [r3]
    13cc:	ea000005 	b	13e8 <hw_clkctrl_SetEmiRefXtalClkGate+0x4c>
    13d0:	e59f3030 	ldr	r3, [pc, #48]	; 1408 <hw_clkctrl_SetEmiRefXtalClkGate+0x6c>
    13d4:	e59f202c 	ldr	r2, [pc, #44]	; 1408 <hw_clkctrl_SetEmiRefXtalClkGate+0x6c>
    13d8:	e5922000 	ldr	r2, [r2]
    13dc:	e3c22102 	bic	r2, r2, #-2147483648	; 0x80000000
    13e0:	e5832000 	str	r2, [r3]
    13e4:	e1a00000 	nop			; (mov r0, r0)
    13e8:	e59f3018 	ldr	r3, [pc, #24]	; 1408 <hw_clkctrl_SetEmiRefXtalClkGate+0x6c>
    13ec:	e5933000 	ldr	r3, [r3]
    13f0:	e2033202 	and	r3, r3, #536870912	; 0x20000000
    13f4:	e3530000 	cmp	r3, #0
    13f8:	1afffffa 	bne	13e8 <hw_clkctrl_SetEmiRefXtalClkGate+0x4c>
    13fc:	e28bd000 	add	sp, fp, #0
    1400:	e49db004 	pop	{fp}		; (ldr fp, [sp], #4)
    1404:	e12fff1e 	bx	lr
    1408:	800400a0 	andhi	r0, r4, r0, lsr #1

0000140c <hw_clkctrl_SetClkBypass>:
    140c:	e52db004 	push	{fp}		; (str fp, [sp, #-4]!)
    1410:	e28db000 	add	fp, sp, #0
    1414:	e24dd00c 	sub	sp, sp, #12
    1418:	e50b0008 	str	r0, [fp, #-8]
    141c:	e50b100c 	str	r1, [fp, #-12]
    1420:	e51b3008 	ldr	r3, [fp, #-8]
    1424:	e3530010 	cmp	r3, #16
    1428:	0a00002a 	beq	14d8 <hw_clkctrl_SetClkBypass+0xcc>
    142c:	e3530010 	cmp	r3, #16
    1430:	8a000006 	bhi	1450 <hw_clkctrl_SetClkBypass+0x44>
    1434:	e3530002 	cmp	r3, #2
    1438:	0a000030 	beq	1500 <hw_clkctrl_SetClkBypass+0xf4>
    143c:	e3530008 	cmp	r3, #8
    1440:	0a000024 	beq	14d8 <hw_clkctrl_SetClkBypass+0xcc>
    1444:	e3530001 	cmp	r3, #1
    1448:	0a000036 	beq	1528 <hw_clkctrl_SetClkBypass+0x11c>
    144c:	ea00003a 	b	153c <hw_clkctrl_SetClkBypass+0x130>
    1450:	e3530040 	cmp	r3, #64	; 0x40
    1454:	0a00000e 	beq	1494 <hw_clkctrl_SetClkBypass+0x88>
    1458:	e3530080 	cmp	r3, #128	; 0x80
    145c:	0a000002 	beq	146c <hw_clkctrl_SetClkBypass+0x60>
    1460:	e3530020 	cmp	r3, #32
    1464:	0a00001b 	beq	14d8 <hw_clkctrl_SetClkBypass+0xcc>
    1468:	ea000033 	b	153c <hw_clkctrl_SetClkBypass+0x130>
    146c:	e51b300c 	ldr	r3, [fp, #-12]
    1470:	e3530000 	cmp	r3, #0
    1474:	1a000032 	bne	1544 <hw_clkctrl_SetClkBypass+0x138>
    1478:	e59f3144 	ldr	r3, [pc, #324]	; 15c4 <hw_clkctrl_SetClkBypass+0x1b8>
    147c:	e5933000 	ldr	r3, [r3]
    1480:	e2033080 	and	r3, r3, #128	; 0x80
    1484:	e3530000 	cmp	r3, #0
    1488:	0a00002f 	beq	154c <hw_clkctrl_SetClkBypass+0x140>
    148c:	e59f3134 	ldr	r3, [pc, #308]	; 15c8 <hw_clkctrl_SetClkBypass+0x1bc>
    1490:	ea000047 	b	15b4 <hw_clkctrl_SetClkBypass+0x1a8>
    1494:	e51b300c 	ldr	r3, [fp, #-12]
    1498:	e3530000 	cmp	r3, #0
    149c:	0a000006 	beq	14bc <hw_clkctrl_SetClkBypass+0xb0>
    14a0:	e59f3124 	ldr	r3, [pc, #292]	; 15cc <hw_clkctrl_SetClkBypass+0x1c0>
    14a4:	e5933000 	ldr	r3, [r3]
    14a8:	e2033102 	and	r3, r3, #-2147483648	; 0x80000000
    14ac:	e3530000 	cmp	r3, #0
    14b0:	0a000027 	beq	1554 <hw_clkctrl_SetClkBypass+0x148>
    14b4:	e59f3114 	ldr	r3, [pc, #276]	; 15d0 <hw_clkctrl_SetClkBypass+0x1c4>
    14b8:	ea00003d 	b	15b4 <hw_clkctrl_SetClkBypass+0x1a8>
    14bc:	e59f3100 	ldr	r3, [pc, #256]	; 15c4 <hw_clkctrl_SetClkBypass+0x1b8>
    14c0:	e5933000 	ldr	r3, [r3]
    14c4:	e2033902 	and	r3, r3, #32768	; 0x8000
    14c8:	e3530000 	cmp	r3, #0
    14cc:	0a000022 	beq	155c <hw_clkctrl_SetClkBypass+0x150>
    14d0:	e59f30fc 	ldr	r3, [pc, #252]	; 15d4 <hw_clkctrl_SetClkBypass+0x1c8>
    14d4:	ea000036 	b	15b4 <hw_clkctrl_SetClkBypass+0x1a8>
    14d8:	e51b300c 	ldr	r3, [fp, #-12]
    14dc:	e3530000 	cmp	r3, #0
    14e0:	1a00001f 	bne	1564 <hw_clkctrl_SetClkBypass+0x158>
    14e4:	e59f30d8 	ldr	r3, [pc, #216]	; 15c4 <hw_clkctrl_SetClkBypass+0x1b8>
    14e8:	e5933000 	ldr	r3, [r3]
    14ec:	e2033102 	and	r3, r3, #-2147483648	; 0x80000000
    14f0:	e3530000 	cmp	r3, #0
    14f4:	0a00001c 	beq	156c <hw_clkctrl_SetClkBypass+0x160>
    14f8:	e59f30d8 	ldr	r3, [pc, #216]	; 15d8 <hw_clkctrl_SetClkBypass+0x1cc>
    14fc:	ea00002c 	b	15b4 <hw_clkctrl_SetClkBypass+0x1a8>
    1500:	e51b300c 	ldr	r3, [fp, #-12]
    1504:	e3530000 	cmp	r3, #0
    1508:	1a000019 	bne	1574 <hw_clkctrl_SetClkBypass+0x168>
    150c:	e59f30b0 	ldr	r3, [pc, #176]	; 15c4 <hw_clkctrl_SetClkBypass+0x1b8>
    1510:	e5933000 	ldr	r3, [r3]
    1514:	e2033502 	and	r3, r3, #8388608	; 0x800000
    1518:	e3530000 	cmp	r3, #0
    151c:	0a000016 	beq	157c <hw_clkctrl_SetClkBypass+0x170>
    1520:	e59f30b4 	ldr	r3, [pc, #180]	; 15dc <hw_clkctrl_SetClkBypass+0x1d0>
    1524:	ea000022 	b	15b4 <hw_clkctrl_SetClkBypass+0x1a8>
    1528:	e51b300c 	ldr	r3, [fp, #-12]
    152c:	e3530000 	cmp	r3, #0
    1530:	0a000013 	beq	1584 <hw_clkctrl_SetClkBypass+0x178>
    1534:	e59f30a4 	ldr	r3, [pc, #164]	; 15e0 <hw_clkctrl_SetClkBypass+0x1d4>
    1538:	ea00001d 	b	15b4 <hw_clkctrl_SetClkBypass+0x1a8>
    153c:	e59f30a0 	ldr	r3, [pc, #160]	; 15e4 <hw_clkctrl_SetClkBypass+0x1d8>
    1540:	ea00001b 	b	15b4 <hw_clkctrl_SetClkBypass+0x1a8>
    1544:	e1a00000 	nop			; (mov r0, r0)
    1548:	ea00000e 	b	1588 <hw_clkctrl_SetClkBypass+0x17c>
    154c:	e1a00000 	nop			; (mov r0, r0)
    1550:	ea00000c 	b	1588 <hw_clkctrl_SetClkBypass+0x17c>
    1554:	e1a00000 	nop			; (mov r0, r0)
    1558:	ea00000a 	b	1588 <hw_clkctrl_SetClkBypass+0x17c>
    155c:	e1a00000 	nop			; (mov r0, r0)
    1560:	ea000008 	b	1588 <hw_clkctrl_SetClkBypass+0x17c>
    1564:	e1a00000 	nop			; (mov r0, r0)
    1568:	ea000006 	b	1588 <hw_clkctrl_SetClkBypass+0x17c>
    156c:	e1a00000 	nop			; (mov r0, r0)
    1570:	ea000004 	b	1588 <hw_clkctrl_SetClkBypass+0x17c>
    1574:	e1a00000 	nop			; (mov r0, r0)
    1578:	ea000002 	b	1588 <hw_clkctrl_SetClkBypass+0x17c>
    157c:	e1a00000 	nop			; (mov r0, r0)
    1580:	ea000000 	b	1588 <hw_clkctrl_SetClkBypass+0x17c>
    1584:	e1a00000 	nop			; (mov r0, r0)
    1588:	e51b300c 	ldr	r3, [fp, #-12]
    158c:	e3530000 	cmp	r3, #0
    1590:	0a000003 	beq	15a4 <hw_clkctrl_SetClkBypass+0x198>
    1594:	e59f304c 	ldr	r3, [pc, #76]	; 15e8 <hw_clkctrl_SetClkBypass+0x1dc>
    1598:	e51b2008 	ldr	r2, [fp, #-8]
    159c:	e5832000 	str	r2, [r3]
    15a0:	ea000002 	b	15b0 <hw_clkctrl_SetClkBypass+0x1a4>
    15a4:	e59f3040 	ldr	r3, [pc, #64]	; 15ec <hw_clkctrl_SetClkBypass+0x1e0>
    15a8:	e51b2008 	ldr	r2, [fp, #-8]
    15ac:	e5832000 	str	r2, [r3]
    15b0:	e3a03000 	mov	r3, #0
    15b4:	e1a00003 	mov	r0, r3
    15b8:	e28bd000 	add	sp, fp, #0
    15bc:	e49db004 	pop	{fp}		; (ldr fp, [sp], #4)
    15c0:	e12fff1e 	bx	lr
    15c4:	800400f0 	strdhi	r0, [r4], -r0	; <UNPREDICTABLE>
    15c8:	f011a007 			; <UNDEFINED> instruction: 0xf011a007
    15cc:	800400a0 	andhi	r0, r4, r0, lsr #1
    15d0:	f011a006 			; <UNDEFINED> instruction: 0xf011a006
    15d4:	f011a008 			; <UNDEFINED> instruction: 0xf011a008
    15d8:	f011a009 			; <UNDEFINED> instruction: 0xf011a009
    15dc:	f011a00a 			; <UNDEFINED> instruction: 0xf011a00a
    15e0:	f011a00b 			; <UNDEFINED> instruction: 0xf011a00b
    15e4:	f011a00c 			; <UNDEFINED> instruction: 0xf011a00c
    15e8:	80040114 	andhi	r0, r4, r4, lsl r1
    15ec:	80040118 	andhi	r0, r4, r8, lsl r1

000015f0 <ddi_emi_InitClockSpeedDependentVars>:
    15f0:	e52db004 	push	{fp}		; (str fp, [sp, #-4]!)
    15f4:	e28db000 	add	fp, sp, #0
    15f8:	e59f30f4 	ldr	r3, [pc, #244]	; 16f4 <ddi_emi_InitClockSpeedDependentVars+0x104>
    15fc:	e5932000 	ldr	r2, [r3]
    1600:	e59f30f0 	ldr	r3, [pc, #240]	; 16f8 <ddi_emi_InitClockSpeedDependentVars+0x108>
    1604:	e5832008 	str	r2, [r3, #8]
    1608:	e59f30ec 	ldr	r3, [pc, #236]	; 16fc <ddi_emi_InitClockSpeedDependentVars+0x10c>
    160c:	e5932000 	ldr	r2, [r3]
    1610:	e59f30e0 	ldr	r3, [pc, #224]	; 16f8 <ddi_emi_InitClockSpeedDependentVars+0x108>
    1614:	e5832010 	str	r2, [r3, #16]
    1618:	e59f30e0 	ldr	r3, [pc, #224]	; 1700 <ddi_emi_InitClockSpeedDependentVars+0x110>
    161c:	e5932000 	ldr	r2, [r3]
    1620:	e59f30d0 	ldr	r3, [pc, #208]	; 16f8 <ddi_emi_InitClockSpeedDependentVars+0x108>
    1624:	e5832014 	str	r2, [r3, #20]
    1628:	e59f30d4 	ldr	r3, [pc, #212]	; 1704 <ddi_emi_InitClockSpeedDependentVars+0x114>
    162c:	e5932000 	ldr	r2, [r3]
    1630:	e59f30c0 	ldr	r3, [pc, #192]	; 16f8 <ddi_emi_InitClockSpeedDependentVars+0x108>
    1634:	e5832018 	str	r2, [r3, #24]
    1638:	e59f30c8 	ldr	r3, [pc, #200]	; 1708 <ddi_emi_InitClockSpeedDependentVars+0x118>
    163c:	e5932000 	ldr	r2, [r3]
    1640:	e59f30b0 	ldr	r3, [pc, #176]	; 16f8 <ddi_emi_InitClockSpeedDependentVars+0x108>
    1644:	e583201c 	str	r2, [r3, #28]
    1648:	e59f30bc 	ldr	r3, [pc, #188]	; 170c <ddi_emi_InitClockSpeedDependentVars+0x11c>
    164c:	e5932000 	ldr	r2, [r3]
    1650:	e59f30a0 	ldr	r3, [pc, #160]	; 16f8 <ddi_emi_InitClockSpeedDependentVars+0x108>
    1654:	e5832020 	str	r2, [r3, #32]
    1658:	e59f30b0 	ldr	r3, [pc, #176]	; 1710 <ddi_emi_InitClockSpeedDependentVars+0x120>
    165c:	e5932000 	ldr	r2, [r3]
    1660:	e59f3090 	ldr	r3, [pc, #144]	; 16f8 <ddi_emi_InitClockSpeedDependentVars+0x108>
    1664:	e5832024 	str	r2, [r3, #36]	; 0x24
    1668:	e59f30a4 	ldr	r3, [pc, #164]	; 1714 <ddi_emi_InitClockSpeedDependentVars+0x124>
    166c:	e5932000 	ldr	r2, [r3]
    1670:	e59f3080 	ldr	r3, [pc, #128]	; 16f8 <ddi_emi_InitClockSpeedDependentVars+0x108>
    1674:	e5832028 	str	r2, [r3, #40]	; 0x28
    1678:	e59f3098 	ldr	r3, [pc, #152]	; 1718 <ddi_emi_InitClockSpeedDependentVars+0x128>
    167c:	e5932000 	ldr	r2, [r3]
    1680:	e59f3070 	ldr	r3, [pc, #112]	; 16f8 <ddi_emi_InitClockSpeedDependentVars+0x108>
    1684:	e583202c 	str	r2, [r3, #44]	; 0x2c
    1688:	e59f308c 	ldr	r3, [pc, #140]	; 171c <ddi_emi_InitClockSpeedDependentVars+0x12c>
    168c:	e5932000 	ldr	r2, [r3]
    1690:	e59f3060 	ldr	r3, [pc, #96]	; 16f8 <ddi_emi_InitClockSpeedDependentVars+0x108>
    1694:	e5832030 	str	r2, [r3, #48]	; 0x30
    1698:	e59f3080 	ldr	r3, [pc, #128]	; 1720 <ddi_emi_InitClockSpeedDependentVars+0x130>
    169c:	e5932000 	ldr	r2, [r3]
    16a0:	e59f3050 	ldr	r3, [pc, #80]	; 16f8 <ddi_emi_InitClockSpeedDependentVars+0x108>
    16a4:	e5832034 	str	r2, [r3, #52]	; 0x34
    16a8:	e59f3074 	ldr	r3, [pc, #116]	; 1724 <ddi_emi_InitClockSpeedDependentVars+0x134>
    16ac:	e5932000 	ldr	r2, [r3]
    16b0:	e59f3040 	ldr	r3, [pc, #64]	; 16f8 <ddi_emi_InitClockSpeedDependentVars+0x108>
    16b4:	e5832038 	str	r2, [r3, #56]	; 0x38
    16b8:	e59f3068 	ldr	r3, [pc, #104]	; 1728 <ddi_emi_InitClockSpeedDependentVars+0x138>
    16bc:	e5932000 	ldr	r2, [r3]
    16c0:	e59f3030 	ldr	r3, [pc, #48]	; 16f8 <ddi_emi_InitClockSpeedDependentVars+0x108>
    16c4:	e583203c 	str	r2, [r3, #60]	; 0x3c
    16c8:	e59f305c 	ldr	r3, [pc, #92]	; 172c <ddi_emi_InitClockSpeedDependentVars+0x13c>
    16cc:	e5932000 	ldr	r2, [r3]
    16d0:	e59f3020 	ldr	r3, [pc, #32]	; 16f8 <ddi_emi_InitClockSpeedDependentVars+0x108>
    16d4:	e583200c 	str	r2, [r3, #12]
    16d8:	e59f3050 	ldr	r3, [pc, #80]	; 1730 <ddi_emi_InitClockSpeedDependentVars+0x140>
    16dc:	e5932000 	ldr	r2, [r3]
    16e0:	e59f3010 	ldr	r3, [pc, #16]	; 16f8 <ddi_emi_InitClockSpeedDependentVars+0x108>
    16e4:	e5832040 	str	r2, [r3, #64]	; 0x40
    16e8:	e28bd000 	add	sp, fp, #0
    16ec:	e49db004 	pop	{fp}		; (ldr fp, [sp], #4)
    16f0:	e12fff1e 	bx	lr
    16f4:	800e0010 	andhi	r0, lr, r0, lsl r0
    16f8:	000060b4 	strheq	r6, [r0], -r4
    16fc:	800e0030 	andhi	r0, lr, r0, lsr r0
    1700:	800e0034 	andhi	r0, lr, r4, lsr r0
    1704:	800e003c 	andhi	r0, lr, ip, lsr r0
    1708:	800e0044 	andhi	r0, lr, r4, asr #32
    170c:	800e0048 	andhi	r0, lr, r8, asr #32
    1710:	800e004c 	andhi	r0, lr, ip, asr #32
    1714:	800e0050 	andhi	r0, lr, r0, asr r0
    1718:	800e0054 	andhi	r0, lr, r4, asr r0
    171c:	800e0068 	andhi	r0, lr, r8, rrx
    1720:	800e0080 	andhi	r0, lr, r0, lsl #1
    1724:	800e0084 	andhi	r0, lr, r4, lsl #1
    1728:	800e0088 	andhi	r0, lr, r8, lsl #1
    172c:	800e001c 	andhi	r0, lr, ip, lsl r0
    1730:	800e00a0 	andhi	r0, lr, r0, lsr #1

00001734 <ddi_emi_EnterAutoMemoryClockGateMode>:
    1734:	e92d4800 	push	{fp, lr}
    1738:	e28db004 	add	fp, sp, #4
    173c:	e3a00001 	mov	r0, #1
    1740:	eb00001c 	bl	17b8 <hw_emi_SetMemoryClockGateAutoFlag>
    1744:	e3a00001 	mov	r0, #1
    1748:	eb000004 	bl	1760 <hw_emi_EnterMemoryClockGateMode>
    174c:	e59f3008 	ldr	r3, [pc, #8]	; 175c <ddi_emi_EnterAutoMemoryClockGateMode+0x28>
    1750:	e3a02001 	mov	r2, #1
    1754:	e5832048 	str	r2, [r3, #72]	; 0x48
    1758:	e8bd8800 	pop	{fp, pc}
    175c:	000060b4 	strheq	r6, [r0], -r4

00001760 <hw_emi_EnterMemoryClockGateMode>:
    1760:	e52db004 	push	{fp}		; (str fp, [sp, #-4]!)
    1764:	e28db000 	add	fp, sp, #0
    1768:	e24dd00c 	sub	sp, sp, #12
    176c:	e50b0008 	str	r0, [fp, #-8]
    1770:	e51b3008 	ldr	r3, [fp, #-8]
    1774:	e3530000 	cmp	r3, #0
    1778:	0a000005 	beq	1794 <hw_emi_EnterMemoryClockGateMode+0x34>
    177c:	e59f3030 	ldr	r3, [pc, #48]	; 17b4 <hw_emi_EnterMemoryClockGateMode+0x54>
    1780:	e59f202c 	ldr	r2, [pc, #44]	; 17b4 <hw_emi_EnterMemoryClockGateMode+0x54>
    1784:	e5922000 	ldr	r2, [r2]
    1788:	e3822702 	orr	r2, r2, #524288	; 0x80000
    178c:	e5832000 	str	r2, [r3]
    1790:	ea000004 	b	17a8 <hw_emi_EnterMemoryClockGateMode+0x48>
    1794:	e59f3018 	ldr	r3, [pc, #24]	; 17b4 <hw_emi_EnterMemoryClockGateMode+0x54>
    1798:	e59f2014 	ldr	r2, [pc, #20]	; 17b4 <hw_emi_EnterMemoryClockGateMode+0x54>
    179c:	e5922000 	ldr	r2, [r2]
    17a0:	e3c22702 	bic	r2, r2, #524288	; 0x80000
    17a4:	e5832000 	str	r2, [r3]
    17a8:	e28bd000 	add	sp, fp, #0
    17ac:	e49db004 	pop	{fp}		; (ldr fp, [sp], #4)
    17b0:	e12fff1e 	bx	lr
    17b4:	800e0040 	andhi	r0, lr, r0, asr #32

000017b8 <hw_emi_SetMemoryClockGateAutoFlag>:
    17b8:	e52db004 	push	{fp}		; (str fp, [sp, #-4]!)
    17bc:	e28db000 	add	fp, sp, #0
    17c0:	e24dd00c 	sub	sp, sp, #12
    17c4:	e50b0008 	str	r0, [fp, #-8]
    17c8:	e51b3008 	ldr	r3, [fp, #-8]
    17cc:	e3530000 	cmp	r3, #0
    17d0:	0a00000e 	beq	1810 <hw_emi_SetMemoryClockGateAutoFlag+0x58>
    17d4:	e59f3054 	ldr	r3, [pc, #84]	; 1830 <hw_emi_SetMemoryClockGateAutoFlag+0x78>
    17d8:	e1d330b0 	ldrh	r3, [r3]
    17dc:	e1a03803 	lsl	r3, r3, #16
    17e0:	e1a03823 	lsr	r3, r3, #16
    17e4:	e3530000 	cmp	r3, #0
    17e8:	1a000002 	bne	17f8 <hw_emi_SetMemoryClockGateAutoFlag+0x40>
    17ec:	e59f303c 	ldr	r3, [pc, #60]	; 1830 <hw_emi_SetMemoryClockGateAutoFlag+0x78>
    17f0:	e3a02020 	mov	r2, #32
    17f4:	e1c320b0 	strh	r2, [r3]
    17f8:	e59f3034 	ldr	r3, [pc, #52]	; 1834 <hw_emi_SetMemoryClockGateAutoFlag+0x7c>
    17fc:	e59f2030 	ldr	r2, [pc, #48]	; 1834 <hw_emi_SetMemoryClockGateAutoFlag+0x7c>
    1800:	e5922000 	ldr	r2, [r2]
    1804:	e3822b02 	orr	r2, r2, #2048	; 0x800
    1808:	e5832000 	str	r2, [r3]
    180c:	ea000004 	b	1824 <hw_emi_SetMemoryClockGateAutoFlag+0x6c>
    1810:	e59f301c 	ldr	r3, [pc, #28]	; 1834 <hw_emi_SetMemoryClockGateAutoFlag+0x7c>
    1814:	e59f2018 	ldr	r2, [pc, #24]	; 1834 <hw_emi_SetMemoryClockGateAutoFlag+0x7c>
    1818:	e5922000 	ldr	r2, [r2]
    181c:	e3c22b02 	bic	r2, r2, #2048	; 0x800
    1820:	e5832000 	str	r2, [r3]
    1824:	e28bd000 	add	sp, fp, #0
    1828:	e49db004 	pop	{fp}		; (ldr fp, [sp], #4)
    182c:	e12fff1e 	bx	lr
    1830:	800e0078 	andhi	r0, lr, r8, ror r0
    1834:	800e0040 	andhi	r0, lr, r0, asr #32

00001838 <ddi_emi_ExitAutoMemorySelfRefreshMode>:
    1838:	e92d4800 	push	{fp, lr}
    183c:	e28db004 	add	fp, sp, #4
    1840:	e3a00000 	mov	r0, #0
    1844:	eb000768 	bl	35ec <hw_emi_EnterMemorySelfRefreshMode>
    1848:	e3a00000 	mov	r0, #0
    184c:	eb00077c 	bl	3644 <hw_emi_SetMemorySelfRefeshAutoFlag>
    1850:	e59f3008 	ldr	r3, [pc, #8]	; 1860 <ddi_emi_ExitAutoMemorySelfRefreshMode+0x28>
    1854:	e3a02000 	mov	r2, #0
    1858:	e5832044 	str	r2, [r3, #68]	; 0x44
    185c:	e8bd8800 	pop	{fp, pc}
    1860:	000060b4 	strheq	r6, [r0], -r4

00001864 <ddi_emi_StartHighCpuPriority>:
    1864:	e52db004 	push	{fp}		; (str fp, [sp, #-4]!)
    1868:	e28db000 	add	fp, sp, #0
    186c:	e59f207c 	ldr	r2, [pc, #124]	; 18f0 <ddi_emi_StartHighCpuPriority+0x8c>
    1870:	e5923000 	ldr	r3, [r2]
    1874:	e3c33817 	bic	r3, r3, #1507328	; 0x170000
    1878:	e3833702 	orr	r3, r3, #524288	; 0x80000
    187c:	e5823000 	str	r3, [r2]
    1880:	e59f2068 	ldr	r2, [pc, #104]	; 18f0 <ddi_emi_StartHighCpuPriority+0x8c>
    1884:	e5923000 	ldr	r3, [r2]
    1888:	e3c33501 	bic	r3, r3, #4194304	; 0x400000
    188c:	e3833502 	orr	r3, r3, #8388608	; 0x800000
    1890:	e5823000 	str	r3, [r2]
    1894:	e59f2058 	ldr	r2, [pc, #88]	; 18f4 <ddi_emi_StartHighCpuPriority+0x90>
    1898:	e5923000 	ldr	r3, [r2]
    189c:	e3c33c01 	bic	r3, r3, #256	; 0x100
    18a0:	e5823000 	str	r3, [r2]
    18a4:	e59f204c 	ldr	r2, [pc, #76]	; 18f8 <ddi_emi_StartHighCpuPriority+0x94>
    18a8:	e5923000 	ldr	r3, [r2]
    18ac:	e3c33001 	bic	r3, r3, #1
    18b0:	e5823000 	str	r3, [r2]
    18b4:	e59f203c 	ldr	r2, [pc, #60]	; 18f8 <ddi_emi_StartHighCpuPriority+0x94>
    18b8:	e5923000 	ldr	r3, [r2]
    18bc:	e3c33c01 	bic	r3, r3, #256	; 0x100
    18c0:	e5823000 	str	r3, [r2]
    18c4:	e59f2030 	ldr	r2, [pc, #48]	; 18fc <ddi_emi_StartHighCpuPriority+0x98>
    18c8:	e5923000 	ldr	r3, [r2]
    18cc:	e3833801 	orr	r3, r3, #65536	; 0x10000
    18d0:	e5823000 	str	r3, [r2]
    18d4:	e59f2024 	ldr	r2, [pc, #36]	; 1900 <ddi_emi_StartHighCpuPriority+0x9c>
    18d8:	e5923000 	ldr	r3, [r2]
    18dc:	e3833001 	orr	r3, r3, #1
    18e0:	e5823000 	str	r3, [r2]
    18e4:	e28bd000 	add	sp, fp, #0
    18e8:	e49db004 	pop	{fp}		; (ldr fp, [sp], #4)
    18ec:	e12fff1e 	bx	lr
    18f0:	80020000 	andhi	r0, r2, r0
    18f4:	800e0004 	andhi	r0, lr, r4
    18f8:	800e0008 	andhi	r0, lr, r8
    18fc:	800e0018 	andhi	r0, lr, r8, lsl r0
    1900:	800e001c 	andhi	r0, lr, ip, lsl r0

00001904 <ddi_clocks_KeepPllPowered>:
    1904:	e92d4800 	push	{fp, lr}
    1908:	e28db004 	add	fp, sp, #4
    190c:	e24dd008 	sub	sp, sp, #8
    1910:	e50b0008 	str	r0, [fp, #-8]
    1914:	e59f3020 	ldr	r3, [pc, #32]	; 193c <ddi_clocks_KeepPllPowered+0x38>
    1918:	e51b2008 	ldr	r2, [fp, #-8]
    191c:	e5832000 	str	r2, [r3]
    1920:	e51b3008 	ldr	r3, [fp, #-8]
    1924:	e3530000 	cmp	r3, #0
    1928:	0a000001 	beq	1934 <ddi_clocks_KeepPllPowered+0x30>
    192c:	e3a00001 	mov	r0, #1
    1930:	eb0003ed 	bl	28ec <hw_clkctrl_PowerPll>
    1934:	e24bd004 	sub	sp, fp, #4
    1938:	e8bd8800 	pop	{fp, pc}
    193c:	000060ac 	andeq	r6, r0, ip, lsr #1

00001940 <hw_digctl_MicrosecondWait>:
    1940:	e92d4800 	push	{fp, lr}
    1944:	e28db004 	add	fp, sp, #4
    1948:	e24dd010 	sub	sp, sp, #16
    194c:	e50b0010 	str	r0, [fp, #-16]
    1950:	e59f3028 	ldr	r3, [pc, #40]	; 1980 <hw_digctl_MicrosecondWait+0x40>
    1954:	e5933000 	ldr	r3, [r3]
    1958:	e50b3008 	str	r3, [fp, #-8]
    195c:	e1a00000 	nop			; (mov r0, r0)
    1960:	e51b0008 	ldr	r0, [fp, #-8]
    1964:	e51b1010 	ldr	r1, [fp, #-16]
    1968:	eb0006f0 	bl	3530 <hw_digctl_CheckTimeOut>
    196c:	e1a03000 	mov	r3, r0
    1970:	e3530000 	cmp	r3, #0
    1974:	0afffff9 	beq	1960 <hw_digctl_MicrosecondWait+0x20>
    1978:	e24bd004 	sub	sp, fp, #4
    197c:	e8bd8800 	pop	{fp, pc}
    1980:	8001c0c0 	andhi	ip, r1, r0, asr #1

00001984 <hw_power_Enable2p5>:
    1984:	e92d4800 	push	{fp, lr}
    1988:	e28db004 	add	fp, sp, #4
    198c:	e24dd008 	sub	sp, sp, #8
    1990:	e50b0008 	str	r0, [fp, #-8]
    1994:	e51b3008 	ldr	r3, [fp, #-8]
    1998:	e3530000 	cmp	r3, #0
    199c:	0a00001b 	beq	1a10 <hw_power_Enable2p5+0x8c>
    19a0:	e59f3084 	ldr	r3, [pc, #132]	; 1a2c <hw_power_Enable2p5+0xa8>
    19a4:	e59f2080 	ldr	r2, [pc, #128]	; 1a2c <hw_power_Enable2p5+0xa8>
    19a8:	e5922000 	ldr	r2, [r2]
    19ac:	e3c22b01 	bic	r2, r2, #1024	; 0x400
    19b0:	e5832000 	str	r2, [r3]
    19b4:	e59f2070 	ldr	r2, [pc, #112]	; 1a2c <hw_power_Enable2p5+0xa8>
    19b8:	e5923000 	ldr	r3, [r2]
    19bc:	e3c3300f 	bic	r3, r3, #15
    19c0:	e3833010 	orr	r3, r3, #16
    19c4:	e5823000 	str	r3, [r2]
    19c8:	e59f305c 	ldr	r3, [pc, #92]	; 1a2c <hw_power_Enable2p5+0xa8>
    19cc:	e59f2058 	ldr	r2, [pc, #88]	; 1a2c <hw_power_Enable2p5+0xa8>
    19d0:	e5922000 	ldr	r2, [r2]
    19d4:	e3822c02 	orr	r2, r2, #512	; 0x200
    19d8:	e5832000 	str	r2, [r3]
    19dc:	e59f3048 	ldr	r3, [pc, #72]	; 1a2c <hw_power_Enable2p5+0xa8>
    19e0:	e59f2044 	ldr	r2, [pc, #68]	; 1a2c <hw_power_Enable2p5+0xa8>
    19e4:	e5922000 	ldr	r2, [r2]
    19e8:	e3822c01 	orr	r2, r2, #256	; 0x100
    19ec:	e5832000 	str	r2, [r3]
    19f0:	e59f0038 	ldr	r0, [pc, #56]	; 1a30 <hw_power_Enable2p5+0xac>
    19f4:	ebffffd1 	bl	1940 <hw_digctl_MicrosecondWait>
    19f8:	e59f302c 	ldr	r3, [pc, #44]	; 1a2c <hw_power_Enable2p5+0xa8>
    19fc:	e59f2028 	ldr	r2, [pc, #40]	; 1a2c <hw_power_Enable2p5+0xa8>
    1a00:	e5922000 	ldr	r2, [r2]
    1a04:	e3c22c02 	bic	r2, r2, #512	; 0x200
    1a08:	e5832000 	str	r2, [r3]
    1a0c:	ea000004 	b	1a24 <hw_power_Enable2p5+0xa0>
    1a10:	e59f3014 	ldr	r3, [pc, #20]	; 1a2c <hw_power_Enable2p5+0xa8>
    1a14:	e59f2010 	ldr	r2, [pc, #16]	; 1a2c <hw_power_Enable2p5+0xa8>
    1a18:	e5922000 	ldr	r2, [r2]
    1a1c:	e3c22c01 	bic	r2, r2, #256	; 0x100
    1a20:	e5832000 	str	r2, [r3]
    1a24:	e24bd004 	sub	sp, fp, #4
    1a28:	e8bd8800 	pop	{fp, pc}
    1a2c:	80044070 	andhi	r4, r4, r0, ror r0
    1a30:	00002710 	andeq	r2, r0, r0, lsl r7

00001a34 <hw_power_Enable1p8>:
    1a34:	e92d4800 	push	{fp, lr}
    1a38:	e28db004 	add	fp, sp, #4
    1a3c:	e24dd008 	sub	sp, sp, #8
    1a40:	e50b0008 	str	r0, [fp, #-8]
    1a44:	e51b3008 	ldr	r3, [fp, #-8]
    1a48:	e3530000 	cmp	r3, #0
    1a4c:	0a00001b 	beq	1ac0 <hw_power_Enable1p8+0x8c>
    1a50:	e59f3084 	ldr	r3, [pc, #132]	; 1adc <hw_power_Enable1p8+0xa8>
    1a54:	e59f2080 	ldr	r2, [pc, #128]	; 1adc <hw_power_Enable1p8+0xa8>
    1a58:	e5922000 	ldr	r2, [r2]
    1a5c:	e3c22b01 	bic	r2, r2, #1024	; 0x400
    1a60:	e5832000 	str	r2, [r3]
    1a64:	e59f2070 	ldr	r2, [pc, #112]	; 1adc <hw_power_Enable1p8+0xa8>
    1a68:	e5923000 	ldr	r3, [r2]
    1a6c:	e3c3301d 	bic	r3, r3, #29
    1a70:	e3833002 	orr	r3, r3, #2
    1a74:	e5823000 	str	r3, [r2]
    1a78:	e59f305c 	ldr	r3, [pc, #92]	; 1adc <hw_power_Enable1p8+0xa8>
    1a7c:	e59f2058 	ldr	r2, [pc, #88]	; 1adc <hw_power_Enable1p8+0xa8>
    1a80:	e5922000 	ldr	r2, [r2]
    1a84:	e3822c02 	orr	r2, r2, #512	; 0x200
    1a88:	e5832000 	str	r2, [r3]
    1a8c:	e59f3048 	ldr	r3, [pc, #72]	; 1adc <hw_power_Enable1p8+0xa8>
    1a90:	e59f2044 	ldr	r2, [pc, #68]	; 1adc <hw_power_Enable1p8+0xa8>
    1a94:	e5922000 	ldr	r2, [r2]
    1a98:	e3822c01 	orr	r2, r2, #256	; 0x100
    1a9c:	e5832000 	str	r2, [r3]
    1aa0:	e59f0038 	ldr	r0, [pc, #56]	; 1ae0 <hw_power_Enable1p8+0xac>
    1aa4:	ebffffa5 	bl	1940 <hw_digctl_MicrosecondWait>
    1aa8:	e59f302c 	ldr	r3, [pc, #44]	; 1adc <hw_power_Enable1p8+0xa8>
    1aac:	e59f2028 	ldr	r2, [pc, #40]	; 1adc <hw_power_Enable1p8+0xa8>
    1ab0:	e5922000 	ldr	r2, [r2]
    1ab4:	e3c22c02 	bic	r2, r2, #512	; 0x200
    1ab8:	e5832000 	str	r2, [r3]
    1abc:	ea000004 	b	1ad4 <hw_power_Enable1p8+0xa0>
    1ac0:	e59f3014 	ldr	r3, [pc, #20]	; 1adc <hw_power_Enable1p8+0xa8>
    1ac4:	e59f2010 	ldr	r2, [pc, #16]	; 1adc <hw_power_Enable1p8+0xa8>
    1ac8:	e5922000 	ldr	r2, [r2]
    1acc:	e3c22c01 	bic	r2, r2, #256	; 0x100
    1ad0:	e5832000 	str	r2, [r3]
    1ad4:	e24bd004 	sub	sp, fp, #4
    1ad8:	e8bd8800 	pop	{fp, pc}
    1adc:	80044070 	andhi	r4, r4, r0, ror r0
    1ae0:	00002710 	andeq	r2, r0, r0, lsl r7

00001ae4 <start>:
    1ae4:	e92d4800 	push	{fp, lr}
    1ae8:	e28db004 	add	fp, sp, #4
    1aec:	e24dd010 	sub	sp, sp, #16
    1af0:	e3a03000 	mov	r3, #0
    1af4:	e50b3008 	str	r3, [fp, #-8]
    1af8:	e3a03004 	mov	r3, #4
    1afc:	e50b300c 	str	r3, [fp, #-12]
    1b00:	e3a03001 	mov	r3, #1
    1b04:	e50b3010 	str	r3, [fp, #-16]
    1b08:	e3a03040 	mov	r3, #64	; 0x40
    1b0c:	e50b3014 	str	r3, [fp, #-20]	; 0xffffffec
    1b10:	eb0006eb 	bl	36c4 <InitDebugSerial>
    1b14:	eb000754 	bl	386c <InitPower>
    1b18:	e51b000c 	ldr	r0, [fp, #-12]
    1b1c:	e51b1010 	ldr	r1, [fp, #-16]
    1b20:	e51b2014 	ldr	r2, [fp, #-20]	; 0xffffffec
    1b24:	eb000004 	bl	1b3c <ddi_emi_PreOsInit>
    1b28:	e50b0008 	str	r0, [fp, #-8]
    1b2c:	e51b3008 	ldr	r3, [fp, #-8]
    1b30:	e1a00003 	mov	r0, r3
    1b34:	e24bd004 	sub	sp, fp, #4
    1b38:	e8bd8800 	pop	{fp, pc}

00001b3c <ddi_emi_PreOsInit>:
    1b3c:	e92d4800 	push	{fp, lr}
    1b40:	e28db004 	add	fp, sp, #4
    1b44:	e24dd030 	sub	sp, sp, #48	; 0x30
    1b48:	e50b0020 	str	r0, [fp, #-32]	; 0xffffffe0
    1b4c:	e50b1024 	str	r1, [fp, #-36]	; 0xffffffdc
    1b50:	e50b2028 	str	r2, [fp, #-40]	; 0xffffffd8
    1b54:	e3a03000 	mov	r3, #0
    1b58:	e54b3006 	strb	r3, [fp, #-6]
    1b5c:	e59f359c 	ldr	r3, [pc, #1436]	; 2100 <ddi_emi_PreOsInit+0x5c4>
    1b60:	e51b2020 	ldr	r2, [fp, #-32]	; 0xffffffe0
    1b64:	e5832004 	str	r2, [r3, #4]
    1b68:	e59f3590 	ldr	r3, [pc, #1424]	; 2100 <ddi_emi_PreOsInit+0x5c4>
    1b6c:	e3a02000 	mov	r2, #0
    1b70:	e5832044 	str	r2, [r3, #68]	; 0x44
    1b74:	e59f3584 	ldr	r3, [pc, #1412]	; 2100 <ddi_emi_PreOsInit+0x5c4>
    1b78:	e3a02000 	mov	r2, #0
    1b7c:	e5832048 	str	r2, [r3, #72]	; 0x48
    1b80:	e59f3578 	ldr	r3, [pc, #1400]	; 2100 <ddi_emi_PreOsInit+0x5c4>
    1b84:	e3a02000 	mov	r2, #0
    1b88:	e583204c 	str	r2, [r3, #76]	; 0x4c
    1b8c:	e59f356c 	ldr	r3, [pc, #1388]	; 2100 <ddi_emi_PreOsInit+0x5c4>
    1b90:	e3a02000 	mov	r2, #0
    1b94:	e5832050 	str	r2, [r3, #80]	; 0x50
    1b98:	e59f3560 	ldr	r3, [pc, #1376]	; 2100 <ddi_emi_PreOsInit+0x5c4>
    1b9c:	e3a02000 	mov	r2, #0
    1ba0:	e5832054 	str	r2, [r3, #84]	; 0x54
    1ba4:	e51b3020 	ldr	r3, [fp, #-32]	; 0xffffffe0
    1ba8:	e3530004 	cmp	r3, #4
    1bac:	1a000004 	bne	1bc4 <ddi_emi_PreOsInit+0x88>
    1bb0:	e3a00001 	mov	r0, #1
    1bb4:	ebffff72 	bl	1984 <hw_power_Enable2p5>
    1bb8:	e3a00001 	mov	r0, #1
    1bbc:	ebffff50 	bl	1904 <ddi_clocks_KeepPllPowered>
    1bc0:	ea000006 	b	1be0 <ddi_emi_PreOsInit+0xa4>
    1bc4:	e51b3020 	ldr	r3, [fp, #-32]	; 0xffffffe0
    1bc8:	e3530002 	cmp	r3, #2
    1bcc:	1a000003 	bne	1be0 <ddi_emi_PreOsInit+0xa4>
    1bd0:	e3a00001 	mov	r0, #1
    1bd4:	ebffff96 	bl	1a34 <hw_power_Enable1p8>
    1bd8:	e3a00001 	mov	r0, #1
    1bdc:	ebffff48 	bl	1904 <ddi_clocks_KeepPllPowered>
    1be0:	e59f351c 	ldr	r3, [pc, #1308]	; 2104 <ddi_emi_PreOsInit+0x5c8>
    1be4:	e5933000 	ldr	r3, [r3]
    1be8:	e2033040 	and	r3, r3, #64	; 0x40
    1bec:	e3530000 	cmp	r3, #0
    1bf0:	0a000004 	beq	1c08 <ddi_emi_PreOsInit+0xcc>
    1bf4:	e59f350c 	ldr	r3, [pc, #1292]	; 2108 <ddi_emi_PreOsInit+0x5cc>
    1bf8:	e5933000 	ldr	r3, [r3]
    1bfc:	e2033102 	and	r3, r3, #-2147483648	; 0x80000000
    1c00:	e3530000 	cmp	r3, #0
    1c04:	0a000009 	beq	1c30 <ddi_emi_PreOsInit+0xf4>
    1c08:	e59f34f4 	ldr	r3, [pc, #1268]	; 2104 <ddi_emi_PreOsInit+0x5c8>
    1c0c:	e5933000 	ldr	r3, [r3]
    1c10:	e2033040 	and	r3, r3, #64	; 0x40
    1c14:	e3530000 	cmp	r3, #0
    1c18:	1a00000f 	bne	1c5c <ddi_emi_PreOsInit+0x120>
    1c1c:	e59f34e8 	ldr	r3, [pc, #1256]	; 210c <ddi_emi_PreOsInit+0x5d0>
    1c20:	e5933000 	ldr	r3, [r3]
    1c24:	e2033902 	and	r3, r3, #32768	; 0x8000
    1c28:	e3530000 	cmp	r3, #0
    1c2c:	1a00000a 	bne	1c5c <ddi_emi_PreOsInit+0x120>
    1c30:	e59f34d8 	ldr	r3, [pc, #1240]	; 2110 <ddi_emi_PreOsInit+0x5d4>
    1c34:	e5933000 	ldr	r3, [r3]
    1c38:	e2033801 	and	r3, r3, #65536	; 0x10000
    1c3c:	e3530000 	cmp	r3, #0
    1c40:	0a000005 	beq	1c5c <ddi_emi_PreOsInit+0x120>
    1c44:	ebffff06 	bl	1864 <ddi_emi_StartHighCpuPriority>
    1c48:	ebfffefa 	bl	1838 <ddi_emi_ExitAutoMemorySelfRefreshMode>
    1c4c:	ebfffeb8 	bl	1734 <ddi_emi_EnterAutoMemoryClockGateMode>
    1c50:	ebfffe66 	bl	15f0 <ddi_emi_InitClockSpeedDependentVars>
    1c54:	e3a03000 	mov	r3, #0
    1c58:	ea000125 	b	20f4 <ddi_emi_PreOsInit+0x5b8>
    1c5c:	e51b3024 	ldr	r3, [fp, #-36]	; 0xffffffdc
    1c60:	e3530000 	cmp	r3, #0
    1c64:	1a000001 	bne	1c70 <ddi_emi_PreOsInit+0x134>
    1c68:	e59f34a4 	ldr	r3, [pc, #1188]	; 2114 <ddi_emi_PreOsInit+0x5d8>
    1c6c:	ea000120 	b	20f4 <ddi_emi_PreOsInit+0x5b8>
    1c70:	e3a03000 	mov	r3, #0
    1c74:	e54b3005 	strb	r3, [fp, #-5]
    1c78:	ea00000d 	b	1cb4 <ddi_emi_PreOsInit+0x178>
    1c7c:	e55b3005 	ldrb	r3, [fp, #-5]
    1c80:	e3a02001 	mov	r2, #1
    1c84:	e1a03312 	lsl	r3, r2, r3
    1c88:	e1a02003 	mov	r2, r3
    1c8c:	e51b3024 	ldr	r3, [fp, #-36]	; 0xffffffdc
    1c90:	e0023003 	and	r3, r2, r3
    1c94:	e3530000 	cmp	r3, #0
    1c98:	0a000002 	beq	1ca8 <ddi_emi_PreOsInit+0x16c>
    1c9c:	e55b3006 	ldrb	r3, [fp, #-6]
    1ca0:	e2833001 	add	r3, r3, #1
    1ca4:	e54b3006 	strb	r3, [fp, #-6]
    1ca8:	e55b3005 	ldrb	r3, [fp, #-5]
    1cac:	e2833001 	add	r3, r3, #1
    1cb0:	e54b3005 	strb	r3, [fp, #-5]
    1cb4:	e55b3005 	ldrb	r3, [fp, #-5]
    1cb8:	e3530003 	cmp	r3, #3
    1cbc:	9affffee 	bls	1c7c <ddi_emi_PreOsInit+0x140>
    1cc0:	e55b3006 	ldrb	r3, [fp, #-6]
    1cc4:	e3530002 	cmp	r3, #2
    1cc8:	9a000001 	bls	1cd4 <ddi_emi_PreOsInit+0x198>
    1ccc:	e59f3444 	ldr	r3, [pc, #1092]	; 2118 <ddi_emi_PreOsInit+0x5dc>
    1cd0:	ea000107 	b	20f4 <ddi_emi_PreOsInit+0x5b8>
    1cd4:	e3a00040 	mov	r0, #64	; 0x40
    1cd8:	e3a01001 	mov	r1, #1
    1cdc:	ebfffdca 	bl	140c <hw_clkctrl_SetClkBypass>
    1ce0:	e3a00000 	mov	r0, #0
    1ce4:	ebfffdac 	bl	139c <hw_clkctrl_SetEmiRefXtalClkGate>
    1ce8:	e3a00001 	mov	r0, #1
    1cec:	ebfffd85 	bl	1308 <hw_clkctrl_SetEmiClkRefXtalDiv>
    1cf0:	ebfffd78 	bl	12d8 <hw_emi_ClearReset>
    1cf4:	ebfffd68 	bl	129c <hw_emi_IsDramSupported>
    1cf8:	e1a03000 	mov	r3, r0
    1cfc:	e3530000 	cmp	r3, #0
    1d00:	1a000001 	bne	1d0c <ddi_emi_PreOsInit+0x1d0>
    1d04:	e59f3410 	ldr	r3, [pc, #1040]	; 211c <ddi_emi_PreOsInit+0x5e0>
    1d08:	ea0000f9 	b	20f4 <ddi_emi_PreOsInit+0x5b8>
    1d0c:	e51b3020 	ldr	r3, [fp, #-32]	; 0xffffffe0
    1d10:	e3530000 	cmp	r3, #0
    1d14:	1a000009 	bne	1d40 <ddi_emi_PreOsInit+0x204>
    1d18:	e3a03002 	mov	r3, #2
    1d1c:	e58d3000 	str	r3, [sp]
    1d20:	e3a03002 	mov	r3, #2
    1d24:	e58d3004 	str	r3, [sp, #4]
    1d28:	e3a00001 	mov	r0, #1
    1d2c:	e3a01002 	mov	r1, #2
    1d30:	e3a02002 	mov	r2, #2
    1d34:	e3a03002 	mov	r3, #2
    1d38:	eb000107 	bl	215c <hw_emi_ConfigureEmiPins>
    1d3c:	ea000025 	b	1dd8 <ddi_emi_PreOsInit+0x29c>
    1d40:	e51b3020 	ldr	r3, [fp, #-32]	; 0xffffffe0
    1d44:	e3530001 	cmp	r3, #1
    1d48:	1a000009 	bne	1d74 <ddi_emi_PreOsInit+0x238>
    1d4c:	e3a03002 	mov	r3, #2
    1d50:	e58d3000 	str	r3, [sp]
    1d54:	e3a03002 	mov	r3, #2
    1d58:	e58d3004 	str	r3, [sp, #4]
    1d5c:	e3a00000 	mov	r0, #0
    1d60:	e3a01002 	mov	r1, #2
    1d64:	e3a02002 	mov	r2, #2
    1d68:	e3a03002 	mov	r3, #2
    1d6c:	eb0000fa 	bl	215c <hw_emi_ConfigureEmiPins>
    1d70:	ea000018 	b	1dd8 <ddi_emi_PreOsInit+0x29c>
    1d74:	e51b3020 	ldr	r3, [fp, #-32]	; 0xffffffe0
    1d78:	e3530002 	cmp	r3, #2
    1d7c:	1a000009 	bne	1da8 <ddi_emi_PreOsInit+0x26c>
    1d80:	e3a03002 	mov	r3, #2
    1d84:	e58d3000 	str	r3, [sp]
    1d88:	e3a03002 	mov	r3, #2
    1d8c:	e58d3004 	str	r3, [sp, #4]
    1d90:	e3a00000 	mov	r0, #0
    1d94:	e3a01002 	mov	r1, #2
    1d98:	e3a02002 	mov	r2, #2
    1d9c:	e3a03002 	mov	r3, #2
    1da0:	eb0000ed 	bl	215c <hw_emi_ConfigureEmiPins>
    1da4:	ea00000b 	b	1dd8 <ddi_emi_PreOsInit+0x29c>
    1da8:	e51b3020 	ldr	r3, [fp, #-32]	; 0xffffffe0
    1dac:	e3530004 	cmp	r3, #4
    1db0:	1a000008 	bne	1dd8 <ddi_emi_PreOsInit+0x29c>
    1db4:	e3a03002 	mov	r3, #2
    1db8:	e58d3000 	str	r3, [sp]
    1dbc:	e3a03002 	mov	r3, #2
    1dc0:	e58d3004 	str	r3, [sp, #4]
    1dc4:	e3a00000 	mov	r0, #0
    1dc8:	e3a01002 	mov	r1, #2
    1dcc:	e3a02002 	mov	r2, #2
    1dd0:	e3a03002 	mov	r3, #2
    1dd4:	eb0000e0 	bl	215c <hw_emi_ConfigureEmiPins>
    1dd8:	eb00027a 	bl	27c8 <hw_emi_DisableEmiPadKeepers>
    1ddc:	e3a00000 	mov	r0, #0
    1de0:	eb0000d4 	bl	2138 <hw_core_EnableIrqInterrupt>
    1de4:	e50b0010 	str	r0, [fp, #-16]
    1de8:	ebfffe92 	bl	1838 <ddi_emi_ExitAutoMemorySelfRefreshMode>
    1dec:	eb000283 	bl	2800 <ddi_emi_ExitAutoMemoryClockGateMode>
    1df0:	eb00028d 	bl	282c <ddi_emi_PrepareForDramSelfRefreshMode>
    1df4:	eb000290 	bl	283c <ddi_emi_EnterStaticSelfRefreshMode>
    1df8:	e50b0014 	str	r0, [fp, #-20]	; 0xffffffec
    1dfc:	e51b3014 	ldr	r3, [fp, #-20]	; 0xffffffec
    1e00:	e3530000 	cmp	r3, #0
    1e04:	0a000001 	beq	1e10 <ddi_emi_PreOsInit+0x2d4>
    1e08:	e51b3014 	ldr	r3, [fp, #-20]	; 0xffffffec
    1e0c:	ea0000b8 	b	20f4 <ddi_emi_PreOsInit+0x5b8>
    1e10:	e51b3020 	ldr	r3, [fp, #-32]	; 0xffffffe0
    1e14:	e3530004 	cmp	r3, #4
    1e18:	1a000011 	bne	1e64 <ddi_emi_PreOsInit+0x328>
    1e1c:	e3a00001 	mov	r0, #1
    1e20:	eb00029e 	bl	28a0 <hw_clkctrl_SetPfdRefEmiGate>
    1e24:	e3a00001 	mov	r0, #1
    1e28:	eb0002af 	bl	28ec <hw_clkctrl_PowerPll>
    1e2c:	e3a0000b 	mov	r0, #11
    1e30:	ebfffec2 	bl	1940 <hw_digctl_MicrosecondWait>
    1e34:	e3a00000 	mov	r0, #0
    1e38:	eb000298 	bl	28a0 <hw_clkctrl_SetPfdRefEmiGate>
    1e3c:	e3a00021 	mov	r0, #33	; 0x21
    1e40:	eb0002bc 	bl	2938 <hw_clkctrl_SetPfdRefEmiDiv>
    1e44:	e3a00002 	mov	r0, #2
    1e48:	eb0002d7 	bl	29ac <hw_clkctrl_SetEmiClkRefEmiDiv>
    1e4c:	e3a00040 	mov	r0, #64	; 0x40
    1e50:	e3a01000 	mov	r1, #0
    1e54:	ebfffd6c 	bl	140c <hw_clkctrl_SetClkBypass>
    1e58:	eb0002f8 	bl	2a40 <hw_dram_Init_ddr_mt46v32m16_6t_96MHz>
    1e5c:	eb0003b7 	bl	2d40 <hw_dram_Init_ddr_mt46v32m16_6t_133MHz_optimized>
    1e60:	ea000012 	b	1eb0 <ddi_emi_PreOsInit+0x374>
    1e64:	e51b3020 	ldr	r3, [fp, #-32]	; 0xffffffe0
    1e68:	e3530002 	cmp	r3, #2
    1e6c:	1a00000f 	bne	1eb0 <ddi_emi_PreOsInit+0x374>
    1e70:	e3a00001 	mov	r0, #1
    1e74:	eb000289 	bl	28a0 <hw_clkctrl_SetPfdRefEmiGate>
    1e78:	e3a00001 	mov	r0, #1
    1e7c:	eb00029a 	bl	28ec <hw_clkctrl_PowerPll>
    1e80:	e3a0000b 	mov	r0, #11
    1e84:	ebfffead 	bl	1940 <hw_digctl_MicrosecondWait>
    1e88:	e3a00000 	mov	r0, #0
    1e8c:	eb000283 	bl	28a0 <hw_clkctrl_SetPfdRefEmiGate>
    1e90:	e3a00021 	mov	r0, #33	; 0x21
    1e94:	eb0002a7 	bl	2938 <hw_clkctrl_SetPfdRefEmiDiv>
    1e98:	e3a00002 	mov	r0, #2
    1e9c:	eb0002c2 	bl	29ac <hw_clkctrl_SetEmiClkRefEmiDiv>
    1ea0:	e3a00040 	mov	r0, #64	; 0x40
    1ea4:	e3a01000 	mov	r1, #0
    1ea8:	ebfffd57 	bl	140c <hw_clkctrl_SetClkBypass>
    1eac:	eb0003f8 	bl	2e94 <hw_dram_Init_mobile_ddr_mt46h32m16lf_5_regs_3_133MHz>
    1eb0:	e59f2268 	ldr	r2, [pc, #616]	; 2120 <ddi_emi_PreOsInit+0x5e4>
    1eb4:	e51b3024 	ldr	r3, [fp, #-36]	; 0xffffffdc
    1eb8:	e20330ff 	and	r3, r3, #255	; 0xff
    1ebc:	e203300f 	and	r3, r3, #15
    1ec0:	e20310ff 	and	r1, r3, #255	; 0xff
    1ec4:	e5923000 	ldr	r3, [r2]
    1ec8:	e201100f 	and	r1, r1, #15
    1ecc:	e3c3300f 	bic	r3, r3, #15
    1ed0:	e1813003 	orr	r3, r1, r3
    1ed4:	e5823000 	str	r3, [r2]
    1ed8:	e55b3006 	ldrb	r3, [fp, #-6]
    1edc:	e3530001 	cmp	r3, #1
    1ee0:	1a000002 	bne	1ef0 <ddi_emi_PreOsInit+0x3b4>
    1ee4:	e51b3028 	ldr	r3, [fp, #-40]	; 0xffffffd8
    1ee8:	e50b300c 	str	r3, [fp, #-12]
    1eec:	ea000004 	b	1f04 <ddi_emi_PreOsInit+0x3c8>
    1ef0:	e55b3006 	ldrb	r3, [fp, #-6]
    1ef4:	e2433001 	sub	r3, r3, #1
    1ef8:	e51b2028 	ldr	r2, [fp, #-40]	; 0xffffffd8
    1efc:	e1a03332 	lsr	r3, r2, r3
    1f00:	e50b300c 	str	r3, [fp, #-12]
    1f04:	e51b300c 	ldr	r3, [fp, #-12]
    1f08:	e3530002 	cmp	r3, #2
    1f0c:	1a00000a 	bne	1f3c <ddi_emi_PreOsInit+0x400>
    1f10:	e59f220c 	ldr	r2, [pc, #524]	; 2124 <ddi_emi_PreOsInit+0x5e8>
    1f14:	e5923000 	ldr	r3, [r2]
    1f18:	e3c33c03 	bic	r3, r3, #768	; 0x300
    1f1c:	e3833b01 	orr	r3, r3, #1024	; 0x400
    1f20:	e5823000 	str	r3, [r2]
    1f24:	e59f21fc 	ldr	r2, [pc, #508]	; 2128 <ddi_emi_PreOsInit+0x5ec>
    1f28:	e5923000 	ldr	r3, [r2]
    1f2c:	e3c33805 	bic	r3, r3, #327680	; 0x50000
    1f30:	e3833802 	orr	r3, r3, #131072	; 0x20000
    1f34:	e5823000 	str	r3, [r2]
    1f38:	ea000045 	b	2054 <ddi_emi_PreOsInit+0x518>
    1f3c:	e51b300c 	ldr	r3, [fp, #-12]
    1f40:	e3530004 	cmp	r3, #4
    1f44:	1a00000a 	bne	1f74 <ddi_emi_PreOsInit+0x438>
    1f48:	e59f21d4 	ldr	r2, [pc, #468]	; 2124 <ddi_emi_PreOsInit+0x5e8>
    1f4c:	e5923000 	ldr	r3, [r2]
    1f50:	e3c33c03 	bic	r3, r3, #768	; 0x300
    1f54:	e3833b01 	orr	r3, r3, #1024	; 0x400
    1f58:	e5823000 	str	r3, [r2]
    1f5c:	e59f21c4 	ldr	r2, [pc, #452]	; 2128 <ddi_emi_PreOsInit+0x5ec>
    1f60:	e5923000 	ldr	r3, [r2]
    1f64:	e3c33806 	bic	r3, r3, #393216	; 0x60000
    1f68:	e3833801 	orr	r3, r3, #65536	; 0x10000
    1f6c:	e5823000 	str	r3, [r2]
    1f70:	ea000037 	b	2054 <ddi_emi_PreOsInit+0x518>
    1f74:	e51b300c 	ldr	r3, [fp, #-12]
    1f78:	e3530008 	cmp	r3, #8
    1f7c:	1a00000a 	bne	1fac <ddi_emi_PreOsInit+0x470>
    1f80:	e59f219c 	ldr	r2, [pc, #412]	; 2124 <ddi_emi_PreOsInit+0x5e8>
    1f84:	e5923000 	ldr	r3, [r2]
    1f88:	e3c33c03 	bic	r3, r3, #768	; 0x300
    1f8c:	e3833b01 	orr	r3, r3, #1024	; 0x400
    1f90:	e5823000 	str	r3, [r2]
    1f94:	e59f218c 	ldr	r2, [pc, #396]	; 2128 <ddi_emi_PreOsInit+0x5ec>
    1f98:	e5923000 	ldr	r3, [r2]
    1f9c:	e3c33806 	bic	r3, r3, #393216	; 0x60000
    1fa0:	e3833801 	orr	r3, r3, #65536	; 0x10000
    1fa4:	e5823000 	str	r3, [r2]
    1fa8:	ea000029 	b	2054 <ddi_emi_PreOsInit+0x518>
    1fac:	e51b300c 	ldr	r3, [fp, #-12]
    1fb0:	e3530010 	cmp	r3, #16
    1fb4:	1a00000a 	bne	1fe4 <ddi_emi_PreOsInit+0x4a8>
    1fb8:	e59f2164 	ldr	r2, [pc, #356]	; 2124 <ddi_emi_PreOsInit+0x5e8>
    1fbc:	e5923000 	ldr	r3, [r2]
    1fc0:	e3c33b01 	bic	r3, r3, #1024	; 0x400
    1fc4:	e3833c03 	orr	r3, r3, #768	; 0x300
    1fc8:	e5823000 	str	r3, [r2]
    1fcc:	e59f2154 	ldr	r2, [pc, #340]	; 2128 <ddi_emi_PreOsInit+0x5ec>
    1fd0:	e5923000 	ldr	r3, [r2]
    1fd4:	e3c33806 	bic	r3, r3, #393216	; 0x60000
    1fd8:	e3833801 	orr	r3, r3, #65536	; 0x10000
    1fdc:	e5823000 	str	r3, [r2]
    1fe0:	ea00001b 	b	2054 <ddi_emi_PreOsInit+0x518>
    1fe4:	e51b300c 	ldr	r3, [fp, #-12]
    1fe8:	e3530020 	cmp	r3, #32
    1fec:	1a000009 	bne	2018 <ddi_emi_PreOsInit+0x4dc>
    1ff0:	e59f212c 	ldr	r2, [pc, #300]	; 2124 <ddi_emi_PreOsInit+0x5e8>
    1ff4:	e5923000 	ldr	r3, [r2]
    1ff8:	e3c33b01 	bic	r3, r3, #1024	; 0x400
    1ffc:	e3833c03 	orr	r3, r3, #768	; 0x300
    2000:	e5823000 	str	r3, [r2]
    2004:	e59f211c 	ldr	r2, [pc, #284]	; 2128 <ddi_emi_PreOsInit+0x5ec>
    2008:	e5923000 	ldr	r3, [r2]
    200c:	e3c33807 	bic	r3, r3, #458752	; 0x70000
    2010:	e5823000 	str	r3, [r2]
    2014:	ea00000e 	b	2054 <ddi_emi_PreOsInit+0x518>
    2018:	e51b300c 	ldr	r3, [fp, #-12]
    201c:	e3530040 	cmp	r3, #64	; 0x40
    2020:	1a000009 	bne	204c <ddi_emi_PreOsInit+0x510>
    2024:	e59f20f8 	ldr	r2, [pc, #248]	; 2124 <ddi_emi_PreOsInit+0x5e8>
    2028:	e5923000 	ldr	r3, [r2]
    202c:	e3c33c05 	bic	r3, r3, #1280	; 0x500
    2030:	e3833c02 	orr	r3, r3, #512	; 0x200
    2034:	e5823000 	str	r3, [r2]
    2038:	e59f20e8 	ldr	r2, [pc, #232]	; 2128 <ddi_emi_PreOsInit+0x5ec>
    203c:	e5923000 	ldr	r3, [r2]
    2040:	e3c33807 	bic	r3, r3, #458752	; 0x70000
    2044:	e5823000 	str	r3, [r2]
    2048:	ea000001 	b	2054 <ddi_emi_PreOsInit+0x518>
    204c:	e59f30c8 	ldr	r3, [pc, #200]	; 211c <ddi_emi_PreOsInit+0x5e0>
    2050:	ea000027 	b	20f4 <ddi_emi_PreOsInit+0x5b8>
    2054:	e51b300c 	ldr	r3, [fp, #-12]
    2058:	e3530002 	cmp	r3, #2
    205c:	1a000007 	bne	2080 <ddi_emi_PreOsInit+0x544>
    2060:	e59f3098 	ldr	r3, [pc, #152]	; 2100 <ddi_emi_PreOsInit+0x5c4>
    2064:	e5933004 	ldr	r3, [r3, #4]
    2068:	e3530001 	cmp	r3, #1
    206c:	1a000003 	bne	2080 <ddi_emi_PreOsInit+0x544>
    2070:	e59f20b4 	ldr	r2, [pc, #180]	; 212c <ddi_emi_PreOsInit+0x5f0>
    2074:	e5923000 	ldr	r3, [r2]
    2078:	e3c33001 	bic	r3, r3, #1
    207c:	e5823000 	str	r3, [r2]
    2080:	e59f2088 	ldr	r2, [pc, #136]	; 2110 <ddi_emi_PreOsInit+0x5d4>
    2084:	e5923000 	ldr	r3, [r2]
    2088:	e3833801 	orr	r3, r3, #65536	; 0x10000
    208c:	e5823000 	str	r3, [r2]
    2090:	eb000504 	bl	34a8 <hw_digctl_GetCurrentTime>
    2094:	e50b0018 	str	r0, [fp, #-24]	; 0xffffffe8
    2098:	e1a00000 	nop			; (mov r0, r0)
    209c:	e59f3064 	ldr	r3, [pc, #100]	; 2108 <ddi_emi_PreOsInit+0x5cc>
    20a0:	e5932000 	ldr	r2, [r3]
    20a4:	e59f3084 	ldr	r3, [pc, #132]	; 2130 <ddi_emi_PreOsInit+0x5f4>
    20a8:	e0023003 	and	r3, r2, r3
    20ac:	e3530000 	cmp	r3, #0
    20b0:	1afffff9 	bne	209c <ddi_emi_PreOsInit+0x560>
    20b4:	e51b0018 	ldr	r0, [fp, #-24]	; 0xffffffe8
    20b8:	e59f1074 	ldr	r1, [pc, #116]	; 2134 <ddi_emi_PreOsInit+0x5f8>
    20bc:	eb00051b 	bl	3530 <hw_digctl_CheckTimeOut>
    20c0:	e1a03000 	mov	r3, r0
    20c4:	e3530000 	cmp	r3, #0
    20c8:	0a000001 	beq	20d4 <ddi_emi_PreOsInit+0x598>
    20cc:	e3a03000 	mov	r3, #0
    20d0:	ea000007 	b	20f4 <ddi_emi_PreOsInit+0x5b8>
    20d4:	eb0004fc 	bl	34cc <ddi_emi_ExitStaticSelfRefreshMode>
    20d8:	e50b0014 	str	r0, [fp, #-20]	; 0xffffffec
    20dc:	ebfffde0 	bl	1864 <ddi_emi_StartHighCpuPriority>
    20e0:	ebfffd93 	bl	1734 <ddi_emi_EnterAutoMemoryClockGateMode>
    20e4:	ebfffd41 	bl	15f0 <ddi_emi_InitClockSpeedDependentVars>
    20e8:	e51b0010 	ldr	r0, [fp, #-16]
    20ec:	eb000011 	bl	2138 <hw_core_EnableIrqInterrupt>
    20f0:	e51b3014 	ldr	r3, [fp, #-20]	; 0xffffffec
    20f4:	e1a00003 	mov	r0, r3
    20f8:	e24bd004 	sub	sp, fp, #4
    20fc:	e8bd8800 	pop	{fp, pc}
    2100:	000060b4 	strheq	r6, [r0], -r4
    2104:	80040110 	andhi	r0, r4, r0, lsl r1
    2108:	800400a0 	andhi	r0, r4, r0, lsr #1
    210c:	800400f0 	strdhi	r0, [r4], -r0	; <UNPREDICTABLE>
    2110:	800e0020 	andhi	r0, lr, r0, lsr #32
    2114:	f0224004 			; <UNDEFINED> instruction: 0xf0224004
    2118:	f0224005 			; <UNDEFINED> instruction: 0xf0224005
    211c:	f0224000 			; <UNDEFINED> instruction: 0xf0224000
    2120:	800e0038 	andhi	r0, lr, r8, lsr r0
    2124:	800e002c 	andhi	r0, lr, ip, lsr #32
    2128:	800e0028 	andhi	r0, lr, r8, lsr #32
    212c:	800e0014 	andhi	r0, lr, r4, lsl r0
    2130:	10020000 	andne	r0, r2, r0
    2134:	00002710 	andeq	r2, r0, r0, lsl r7

00002138 <hw_core_EnableIrqInterrupt>:
    2138:	e52db004 	push	{fp}		; (str fp, [sp, #-4]!)
    213c:	e28db000 	add	fp, sp, #0
    2140:	e24dd00c 	sub	sp, sp, #12
    2144:	e50b0008 	str	r0, [fp, #-8]
    2148:	e51b3008 	ldr	r3, [fp, #-8]
    214c:	e1a00003 	mov	r0, r3
    2150:	e28bd000 	add	sp, fp, #0
    2154:	e49db004 	pop	{fp}		; (ldr fp, [sp], #4)
    2158:	e12fff1e 	bx	lr

0000215c <hw_emi_ConfigureEmiPins>:
    215c:	e52db004 	push	{fp}		; (str fp, [sp, #-4]!)
    2160:	e28db000 	add	fp, sp, #0
    2164:	e24dd014 	sub	sp, sp, #20
    2168:	e50b0008 	str	r0, [fp, #-8]
    216c:	e50b100c 	str	r1, [fp, #-12]
    2170:	e50b2010 	str	r2, [fp, #-16]
    2174:	e50b3014 	str	r3, [fp, #-20]	; 0xffffffec
    2178:	e59f35ec 	ldr	r3, [pc, #1516]	; 276c <hw_emi_ConfigureEmiPins+0x610>
    217c:	e3a02103 	mov	r2, #-1073741824	; 0xc0000000
    2180:	e5832000 	str	r2, [r3]
    2184:	e59f35e4 	ldr	r3, [pc, #1508]	; 2770 <hw_emi_ConfigureEmiPins+0x614>
    2188:	e59f25e4 	ldr	r2, [pc, #1508]	; 2774 <hw_emi_ConfigureEmiPins+0x618>
    218c:	e5832000 	str	r2, [r3]
    2190:	e59f35e0 	ldr	r3, [pc, #1504]	; 2778 <hw_emi_ConfigureEmiPins+0x61c>
    2194:	e51b2008 	ldr	r2, [fp, #-8]
    2198:	e1a02302 	lsl	r2, r2, #6
    219c:	e2021040 	and	r1, r2, #64	; 0x40
    21a0:	e51b200c 	ldr	r2, [fp, #-12]
    21a4:	e1a02202 	lsl	r2, r2, #4
    21a8:	e2022030 	and	r2, r2, #48	; 0x30
    21ac:	e1811002 	orr	r1, r1, r2
    21b0:	e51b2008 	ldr	r2, [fp, #-8]
    21b4:	e1a02502 	lsl	r2, r2, #10
    21b8:	e2022b01 	and	r2, r2, #1024	; 0x400
    21bc:	e1811002 	orr	r1, r1, r2
    21c0:	e51b200c 	ldr	r2, [fp, #-12]
    21c4:	e1a02402 	lsl	r2, r2, #8
    21c8:	e2022c03 	and	r2, r2, #768	; 0x300
    21cc:	e1811002 	orr	r1, r1, r2
    21d0:	e51b2008 	ldr	r2, [fp, #-8]
    21d4:	e1a02702 	lsl	r2, r2, #14
    21d8:	e2022901 	and	r2, r2, #16384	; 0x4000
    21dc:	e1811002 	orr	r1, r1, r2
    21e0:	e51b200c 	ldr	r2, [fp, #-12]
    21e4:	e1a02602 	lsl	r2, r2, #12
    21e8:	e2022a03 	and	r2, r2, #12288	; 0x3000
    21ec:	e1811002 	orr	r1, r1, r2
    21f0:	e51b2008 	ldr	r2, [fp, #-8]
    21f4:	e1a02902 	lsl	r2, r2, #18
    21f8:	e2022701 	and	r2, r2, #262144	; 0x40000
    21fc:	e1811002 	orr	r1, r1, r2
    2200:	e51b200c 	ldr	r2, [fp, #-12]
    2204:	e1a02802 	lsl	r2, r2, #16
    2208:	e2022803 	and	r2, r2, #196608	; 0x30000
    220c:	e1811002 	orr	r1, r1, r2
    2210:	e51b2008 	ldr	r2, [fp, #-8]
    2214:	e1a02b02 	lsl	r2, r2, #22
    2218:	e2022501 	and	r2, r2, #4194304	; 0x400000
    221c:	e1811002 	orr	r1, r1, r2
    2220:	e51b200c 	ldr	r2, [fp, #-12]
    2224:	e1a02a02 	lsl	r2, r2, #20
    2228:	e2022603 	and	r2, r2, #3145728	; 0x300000
    222c:	e1811002 	orr	r1, r1, r2
    2230:	e51b2008 	ldr	r2, [fp, #-8]
    2234:	e1a02d02 	lsl	r2, r2, #26
    2238:	e2022301 	and	r2, r2, #67108864	; 0x4000000
    223c:	e1811002 	orr	r1, r1, r2
    2240:	e51b200c 	ldr	r2, [fp, #-12]
    2244:	e1a02c02 	lsl	r2, r2, #24
    2248:	e2022403 	and	r2, r2, #50331648	; 0x3000000
    224c:	e1811002 	orr	r1, r1, r2
    2250:	e51b2008 	ldr	r2, [fp, #-8]
    2254:	e1a02f02 	lsl	r2, r2, #30
    2258:	e2022101 	and	r2, r2, #1073741824	; 0x40000000
    225c:	e1811002 	orr	r1, r1, r2
    2260:	e51b200c 	ldr	r2, [fp, #-12]
    2264:	e1a02e02 	lsl	r2, r2, #28
    2268:	e2022203 	and	r2, r2, #805306368	; 0x30000000
    226c:	e1812002 	orr	r2, r1, r2
    2270:	e5832000 	str	r2, [r3]
    2274:	e59f3500 	ldr	r3, [pc, #1280]	; 277c <hw_emi_ConfigureEmiPins+0x620>
    2278:	e59f2500 	ldr	r2, [pc, #1280]	; 2780 <hw_emi_ConfigureEmiPins+0x624>
    227c:	e5832000 	str	r2, [r3]
    2280:	e59f34fc 	ldr	r3, [pc, #1276]	; 2784 <hw_emi_ConfigureEmiPins+0x628>
    2284:	e51b2008 	ldr	r2, [fp, #-8]
    2288:	e1a02102 	lsl	r2, r2, #2
    228c:	e2021004 	and	r1, r2, #4
    2290:	e51b200c 	ldr	r2, [fp, #-12]
    2294:	e2022003 	and	r2, r2, #3
    2298:	e1811002 	orr	r1, r1, r2
    229c:	e51b2008 	ldr	r2, [fp, #-8]
    22a0:	e1a02302 	lsl	r2, r2, #6
    22a4:	e2022040 	and	r2, r2, #64	; 0x40
    22a8:	e1811002 	orr	r1, r1, r2
    22ac:	e51b200c 	ldr	r2, [fp, #-12]
    22b0:	e1a02202 	lsl	r2, r2, #4
    22b4:	e2022030 	and	r2, r2, #48	; 0x30
    22b8:	e1811002 	orr	r1, r1, r2
    22bc:	e51b2008 	ldr	r2, [fp, #-8]
    22c0:	e1a02502 	lsl	r2, r2, #10
    22c4:	e2022b01 	and	r2, r2, #1024	; 0x400
    22c8:	e1811002 	orr	r1, r1, r2
    22cc:	e51b200c 	ldr	r2, [fp, #-12]
    22d0:	e1a02402 	lsl	r2, r2, #8
    22d4:	e2022c03 	and	r2, r2, #768	; 0x300
    22d8:	e1811002 	orr	r1, r1, r2
    22dc:	e51b2008 	ldr	r2, [fp, #-8]
    22e0:	e1a02702 	lsl	r2, r2, #14
    22e4:	e2022901 	and	r2, r2, #16384	; 0x4000
    22e8:	e1811002 	orr	r1, r1, r2
    22ec:	e51b200c 	ldr	r2, [fp, #-12]
    22f0:	e1a02602 	lsl	r2, r2, #12
    22f4:	e2022a03 	and	r2, r2, #12288	; 0x3000
    22f8:	e1811002 	orr	r1, r1, r2
    22fc:	e51b2008 	ldr	r2, [fp, #-8]
    2300:	e1a02902 	lsl	r2, r2, #18
    2304:	e2022701 	and	r2, r2, #262144	; 0x40000
    2308:	e1811002 	orr	r1, r1, r2
    230c:	e51b200c 	ldr	r2, [fp, #-12]
    2310:	e1a02802 	lsl	r2, r2, #16
    2314:	e2022803 	and	r2, r2, #196608	; 0x30000
    2318:	e1811002 	orr	r1, r1, r2
    231c:	e51b2008 	ldr	r2, [fp, #-8]
    2320:	e1a02b02 	lsl	r2, r2, #22
    2324:	e2022501 	and	r2, r2, #4194304	; 0x400000
    2328:	e1811002 	orr	r1, r1, r2
    232c:	e51b200c 	ldr	r2, [fp, #-12]
    2330:	e1a02a02 	lsl	r2, r2, #20
    2334:	e2022603 	and	r2, r2, #3145728	; 0x300000
    2338:	e1811002 	orr	r1, r1, r2
    233c:	e51b2008 	ldr	r2, [fp, #-8]
    2340:	e1a02d02 	lsl	r2, r2, #26
    2344:	e2022301 	and	r2, r2, #67108864	; 0x4000000
    2348:	e1811002 	orr	r1, r1, r2
    234c:	e51b200c 	ldr	r2, [fp, #-12]
    2350:	e1a02c02 	lsl	r2, r2, #24
    2354:	e2022403 	and	r2, r2, #50331648	; 0x3000000
    2358:	e1811002 	orr	r1, r1, r2
    235c:	e51b2008 	ldr	r2, [fp, #-8]
    2360:	e1a02f02 	lsl	r2, r2, #30
    2364:	e2022101 	and	r2, r2, #1073741824	; 0x40000000
    2368:	e1811002 	orr	r1, r1, r2
    236c:	e51b200c 	ldr	r2, [fp, #-12]
    2370:	e1a02e02 	lsl	r2, r2, #28
    2374:	e2022203 	and	r2, r2, #805306368	; 0x30000000
    2378:	e1812002 	orr	r2, r1, r2
    237c:	e5832000 	str	r2, [r3]
    2380:	e59f3400 	ldr	r3, [pc, #1024]	; 2788 <hw_emi_ConfigureEmiPins+0x62c>
    2384:	e59f2400 	ldr	r2, [pc, #1024]	; 278c <hw_emi_ConfigureEmiPins+0x630>
    2388:	e5832000 	str	r2, [r3]
    238c:	e59f33fc 	ldr	r3, [pc, #1020]	; 2790 <hw_emi_ConfigureEmiPins+0x634>
    2390:	e51b2008 	ldr	r2, [fp, #-8]
    2394:	e1a02102 	lsl	r2, r2, #2
    2398:	e2021004 	and	r1, r2, #4
    239c:	e59b2008 	ldr	r2, [fp, #8]
    23a0:	e2022003 	and	r2, r2, #3
    23a4:	e1811002 	orr	r1, r1, r2
    23a8:	e51b2008 	ldr	r2, [fp, #-8]
    23ac:	e1a02302 	lsl	r2, r2, #6
    23b0:	e2022040 	and	r2, r2, #64	; 0x40
    23b4:	e1811002 	orr	r1, r1, r2
    23b8:	e51b2014 	ldr	r2, [fp, #-20]	; 0xffffffec
    23bc:	e1a02202 	lsl	r2, r2, #4
    23c0:	e2022030 	and	r2, r2, #48	; 0x30
    23c4:	e1811002 	orr	r1, r1, r2
    23c8:	e51b2008 	ldr	r2, [fp, #-8]
    23cc:	e1a02502 	lsl	r2, r2, #10
    23d0:	e2022b01 	and	r2, r2, #1024	; 0x400
    23d4:	e1811002 	orr	r1, r1, r2
    23d8:	e51b2014 	ldr	r2, [fp, #-20]	; 0xffffffec
    23dc:	e1a02402 	lsl	r2, r2, #8
    23e0:	e2022c03 	and	r2, r2, #768	; 0x300
    23e4:	e1811002 	orr	r1, r1, r2
    23e8:	e51b2008 	ldr	r2, [fp, #-8]
    23ec:	e1a02b02 	lsl	r2, r2, #22
    23f0:	e2022501 	and	r2, r2, #4194304	; 0x400000
    23f4:	e1811002 	orr	r1, r1, r2
    23f8:	e59b2008 	ldr	r2, [fp, #8]
    23fc:	e1a02a02 	lsl	r2, r2, #20
    2400:	e2022603 	and	r2, r2, #3145728	; 0x300000
    2404:	e1811002 	orr	r1, r1, r2
    2408:	e51b2008 	ldr	r2, [fp, #-8]
    240c:	e1a02d02 	lsl	r2, r2, #26
    2410:	e2022301 	and	r2, r2, #67108864	; 0x4000000
    2414:	e1811002 	orr	r1, r1, r2
    2418:	e59b2008 	ldr	r2, [fp, #8]
    241c:	e1a02c02 	lsl	r2, r2, #24
    2420:	e2022403 	and	r2, r2, #50331648	; 0x3000000
    2424:	e1811002 	orr	r1, r1, r2
    2428:	e51b2008 	ldr	r2, [fp, #-8]
    242c:	e1a02f02 	lsl	r2, r2, #30
    2430:	e2022101 	and	r2, r2, #1073741824	; 0x40000000
    2434:	e1811002 	orr	r1, r1, r2
    2438:	e59b2008 	ldr	r2, [fp, #8]
    243c:	e1a02e02 	lsl	r2, r2, #28
    2440:	e2022203 	and	r2, r2, #805306368	; 0x30000000
    2444:	e1812002 	orr	r2, r1, r2
    2448:	e5832000 	str	r2, [r3]
    244c:	e59f3340 	ldr	r3, [pc, #832]	; 2794 <hw_emi_ConfigureEmiPins+0x638>
    2450:	e59f2340 	ldr	r2, [pc, #832]	; 2798 <hw_emi_ConfigureEmiPins+0x63c>
    2454:	e5832000 	str	r2, [r3]
    2458:	e59f333c 	ldr	r3, [pc, #828]	; 279c <hw_emi_ConfigureEmiPins+0x640>
    245c:	e3e0250f 	mvn	r2, #62914560	; 0x3c00000
    2460:	e5832000 	str	r2, [r3]
    2464:	e59f3334 	ldr	r3, [pc, #820]	; 27a0 <hw_emi_ConfigureEmiPins+0x644>
    2468:	e59f2310 	ldr	r2, [pc, #784]	; 2780 <hw_emi_ConfigureEmiPins+0x624>
    246c:	e5832000 	str	r2, [r3]
    2470:	e59f332c 	ldr	r3, [pc, #812]	; 27a4 <hw_emi_ConfigureEmiPins+0x648>
    2474:	e51b2008 	ldr	r2, [fp, #-8]
    2478:	e1a02102 	lsl	r2, r2, #2
    247c:	e2021004 	and	r1, r2, #4
    2480:	e51b2010 	ldr	r2, [fp, #-16]
    2484:	e2022003 	and	r2, r2, #3
    2488:	e1811002 	orr	r1, r1, r2
    248c:	e51b2008 	ldr	r2, [fp, #-8]
    2490:	e1a02302 	lsl	r2, r2, #6
    2494:	e2022040 	and	r2, r2, #64	; 0x40
    2498:	e1811002 	orr	r1, r1, r2
    249c:	e51b2010 	ldr	r2, [fp, #-16]
    24a0:	e1a02202 	lsl	r2, r2, #4
    24a4:	e2022030 	and	r2, r2, #48	; 0x30
    24a8:	e1811002 	orr	r1, r1, r2
    24ac:	e51b2008 	ldr	r2, [fp, #-8]
    24b0:	e1a02502 	lsl	r2, r2, #10
    24b4:	e2022b01 	and	r2, r2, #1024	; 0x400
    24b8:	e1811002 	orr	r1, r1, r2
    24bc:	e51b2010 	ldr	r2, [fp, #-16]
    24c0:	e1a02402 	lsl	r2, r2, #8
    24c4:	e2022c03 	and	r2, r2, #768	; 0x300
    24c8:	e1811002 	orr	r1, r1, r2
    24cc:	e51b2008 	ldr	r2, [fp, #-8]
    24d0:	e1a02702 	lsl	r2, r2, #14
    24d4:	e2022901 	and	r2, r2, #16384	; 0x4000
    24d8:	e1811002 	orr	r1, r1, r2
    24dc:	e51b2010 	ldr	r2, [fp, #-16]
    24e0:	e1a02602 	lsl	r2, r2, #12
    24e4:	e2022a03 	and	r2, r2, #12288	; 0x3000
    24e8:	e1811002 	orr	r1, r1, r2
    24ec:	e51b2008 	ldr	r2, [fp, #-8]
    24f0:	e1a02902 	lsl	r2, r2, #18
    24f4:	e2022701 	and	r2, r2, #262144	; 0x40000
    24f8:	e1811002 	orr	r1, r1, r2
    24fc:	e51b2010 	ldr	r2, [fp, #-16]
    2500:	e1a02802 	lsl	r2, r2, #16
    2504:	e2022803 	and	r2, r2, #196608	; 0x30000
    2508:	e1811002 	orr	r1, r1, r2
    250c:	e51b2008 	ldr	r2, [fp, #-8]
    2510:	e1a02b02 	lsl	r2, r2, #22
    2514:	e2022501 	and	r2, r2, #4194304	; 0x400000
    2518:	e1811002 	orr	r1, r1, r2
    251c:	e51b2010 	ldr	r2, [fp, #-16]
    2520:	e1a02a02 	lsl	r2, r2, #20
    2524:	e2022603 	and	r2, r2, #3145728	; 0x300000
    2528:	e1811002 	orr	r1, r1, r2
    252c:	e51b2008 	ldr	r2, [fp, #-8]
    2530:	e1a02d02 	lsl	r2, r2, #26
    2534:	e2022301 	and	r2, r2, #67108864	; 0x4000000
    2538:	e1811002 	orr	r1, r1, r2
    253c:	e51b2010 	ldr	r2, [fp, #-16]
    2540:	e1a02c02 	lsl	r2, r2, #24
    2544:	e2022403 	and	r2, r2, #50331648	; 0x3000000
    2548:	e1811002 	orr	r1, r1, r2
    254c:	e51b2008 	ldr	r2, [fp, #-8]
    2550:	e1a02f02 	lsl	r2, r2, #30
    2554:	e2022101 	and	r2, r2, #1073741824	; 0x40000000
    2558:	e1811002 	orr	r1, r1, r2
    255c:	e51b2010 	ldr	r2, [fp, #-16]
    2560:	e1a02e02 	lsl	r2, r2, #28
    2564:	e2022203 	and	r2, r2, #805306368	; 0x30000000
    2568:	e1812002 	orr	r2, r1, r2
    256c:	e5832000 	str	r2, [r3]
    2570:	e59f3230 	ldr	r3, [pc, #560]	; 27a8 <hw_emi_ConfigureEmiPins+0x64c>
    2574:	e59f2204 	ldr	r2, [pc, #516]	; 2780 <hw_emi_ConfigureEmiPins+0x624>
    2578:	e5832000 	str	r2, [r3]
    257c:	e59f3228 	ldr	r3, [pc, #552]	; 27ac <hw_emi_ConfigureEmiPins+0x650>
    2580:	e51b2008 	ldr	r2, [fp, #-8]
    2584:	e1a02102 	lsl	r2, r2, #2
    2588:	e2021004 	and	r1, r2, #4
    258c:	e51b2010 	ldr	r2, [fp, #-16]
    2590:	e2022003 	and	r2, r2, #3
    2594:	e1811002 	orr	r1, r1, r2
    2598:	e51b2008 	ldr	r2, [fp, #-8]
    259c:	e1a02302 	lsl	r2, r2, #6
    25a0:	e2022040 	and	r2, r2, #64	; 0x40
    25a4:	e1811002 	orr	r1, r1, r2
    25a8:	e51b2010 	ldr	r2, [fp, #-16]
    25ac:	e1a02202 	lsl	r2, r2, #4
    25b0:	e2022030 	and	r2, r2, #48	; 0x30
    25b4:	e1811002 	orr	r1, r1, r2
    25b8:	e51b2008 	ldr	r2, [fp, #-8]
    25bc:	e1a02502 	lsl	r2, r2, #10
    25c0:	e2022b01 	and	r2, r2, #1024	; 0x400
    25c4:	e1811002 	orr	r1, r1, r2
    25c8:	e51b2010 	ldr	r2, [fp, #-16]
    25cc:	e1a02402 	lsl	r2, r2, #8
    25d0:	e2022c03 	and	r2, r2, #768	; 0x300
    25d4:	e1811002 	orr	r1, r1, r2
    25d8:	e51b2008 	ldr	r2, [fp, #-8]
    25dc:	e1a02702 	lsl	r2, r2, #14
    25e0:	e2022901 	and	r2, r2, #16384	; 0x4000
    25e4:	e1811002 	orr	r1, r1, r2
    25e8:	e51b2010 	ldr	r2, [fp, #-16]
    25ec:	e1a02602 	lsl	r2, r2, #12
    25f0:	e2022a03 	and	r2, r2, #12288	; 0x3000
    25f4:	e1811002 	orr	r1, r1, r2
    25f8:	e51b2008 	ldr	r2, [fp, #-8]
    25fc:	e1a02902 	lsl	r2, r2, #18
    2600:	e2022701 	and	r2, r2, #262144	; 0x40000
    2604:	e1811002 	orr	r1, r1, r2
    2608:	e51b2010 	ldr	r2, [fp, #-16]
    260c:	e1a02802 	lsl	r2, r2, #16
    2610:	e2022803 	and	r2, r2, #196608	; 0x30000
    2614:	e1811002 	orr	r1, r1, r2
    2618:	e51b2008 	ldr	r2, [fp, #-8]
    261c:	e1a02b02 	lsl	r2, r2, #22
    2620:	e2022501 	and	r2, r2, #4194304	; 0x400000
    2624:	e1811002 	orr	r1, r1, r2
    2628:	e51b2010 	ldr	r2, [fp, #-16]
    262c:	e1a02a02 	lsl	r2, r2, #20
    2630:	e2022603 	and	r2, r2, #3145728	; 0x300000
    2634:	e1811002 	orr	r1, r1, r2
    2638:	e51b2008 	ldr	r2, [fp, #-8]
    263c:	e1a02d02 	lsl	r2, r2, #26
    2640:	e2022301 	and	r2, r2, #67108864	; 0x4000000
    2644:	e1811002 	orr	r1, r1, r2
    2648:	e51b2010 	ldr	r2, [fp, #-16]
    264c:	e1a02c02 	lsl	r2, r2, #24
    2650:	e2022403 	and	r2, r2, #50331648	; 0x3000000
    2654:	e1811002 	orr	r1, r1, r2
    2658:	e51b2008 	ldr	r2, [fp, #-8]
    265c:	e1a02f02 	lsl	r2, r2, #30
    2660:	e2022101 	and	r2, r2, #1073741824	; 0x40000000
    2664:	e1811002 	orr	r1, r1, r2
    2668:	e51b2010 	ldr	r2, [fp, #-16]
    266c:	e1a02e02 	lsl	r2, r2, #28
    2670:	e2022203 	and	r2, r2, #805306368	; 0x30000000
    2674:	e1812002 	orr	r2, r1, r2
    2678:	e5832000 	str	r2, [r3]
    267c:	e59f312c 	ldr	r3, [pc, #300]	; 27b0 <hw_emi_ConfigureEmiPins+0x654>
    2680:	e59f212c 	ldr	r2, [pc, #300]	; 27b4 <hw_emi_ConfigureEmiPins+0x658>
    2684:	e5832000 	str	r2, [r3]
    2688:	e59f3128 	ldr	r3, [pc, #296]	; 27b8 <hw_emi_ConfigureEmiPins+0x65c>
    268c:	e51b2008 	ldr	r2, [fp, #-8]
    2690:	e1a02102 	lsl	r2, r2, #2
    2694:	e2021004 	and	r1, r2, #4
    2698:	e59b2004 	ldr	r2, [fp, #4]
    269c:	e2022003 	and	r2, r2, #3
    26a0:	e1811002 	orr	r1, r1, r2
    26a4:	e51b2008 	ldr	r2, [fp, #-8]
    26a8:	e1a02302 	lsl	r2, r2, #6
    26ac:	e2022040 	and	r2, r2, #64	; 0x40
    26b0:	e1811002 	orr	r1, r1, r2
    26b4:	e59b2004 	ldr	r2, [fp, #4]
    26b8:	e1a02202 	lsl	r2, r2, #4
    26bc:	e2022030 	and	r2, r2, #48	; 0x30
    26c0:	e1811002 	orr	r1, r1, r2
    26c4:	e51b2008 	ldr	r2, [fp, #-8]
    26c8:	e1a02502 	lsl	r2, r2, #10
    26cc:	e2022b01 	and	r2, r2, #1024	; 0x400
    26d0:	e1811002 	orr	r1, r1, r2
    26d4:	e59b2008 	ldr	r2, [fp, #8]
    26d8:	e1a02402 	lsl	r2, r2, #8
    26dc:	e2022c03 	and	r2, r2, #768	; 0x300
    26e0:	e1811002 	orr	r1, r1, r2
    26e4:	e51b2008 	ldr	r2, [fp, #-8]
    26e8:	e1a02702 	lsl	r2, r2, #14
    26ec:	e2022901 	and	r2, r2, #16384	; 0x4000
    26f0:	e1811002 	orr	r1, r1, r2
    26f4:	e59b2008 	ldr	r2, [fp, #8]
    26f8:	e1a02602 	lsl	r2, r2, #12
    26fc:	e2022a03 	and	r2, r2, #12288	; 0x3000
    2700:	e1811002 	orr	r1, r1, r2
    2704:	e51b2008 	ldr	r2, [fp, #-8]
    2708:	e1a02902 	lsl	r2, r2, #18
    270c:	e2022701 	and	r2, r2, #262144	; 0x40000
    2710:	e1811002 	orr	r1, r1, r2
    2714:	e59b2008 	ldr	r2, [fp, #8]
    2718:	e1a02802 	lsl	r2, r2, #16
    271c:	e2022803 	and	r2, r2, #196608	; 0x30000
    2720:	e1811002 	orr	r1, r1, r2
    2724:	e51b2008 	ldr	r2, [fp, #-8]
    2728:	e1a02b02 	lsl	r2, r2, #22
    272c:	e2022501 	and	r2, r2, #4194304	; 0x400000
    2730:	e1811002 	orr	r1, r1, r2
    2734:	e59b2008 	ldr	r2, [fp, #8]
    2738:	e1a02a02 	lsl	r2, r2, #20
    273c:	e2022603 	and	r2, r2, #3145728	; 0x300000
    2740:	e1812002 	orr	r2, r1, r2
    2744:	e5832000 	str	r2, [r3]
    2748:	e59f306c 	ldr	r3, [pc, #108]	; 27bc <hw_emi_ConfigureEmiPins+0x660>
    274c:	e3e02000 	mvn	r2, #0
    2750:	e5832000 	str	r2, [r3]
    2754:	e59f3064 	ldr	r3, [pc, #100]	; 27c0 <hw_emi_ConfigureEmiPins+0x664>
    2758:	e59f2064 	ldr	r2, [pc, #100]	; 27c4 <hw_emi_ConfigureEmiPins+0x668>
    275c:	e5832000 	str	r2, [r3]
    2760:	e28bd000 	add	sp, fp, #0
    2764:	e49db004 	pop	{fp}		; (ldr fp, [sp], #4)
    2768:	e12fff1e 	bx	lr
    276c:	80018008 	andhi	r8, r1, r8
    2770:	80018298 	mulhi	r1, r8, r2
    2774:	77777770 			; <UNDEFINED> instruction: 0x77777770
    2778:	80018294 	mulhi	r1, r4, r2
    277c:	800182a8 	andhi	r8, r1, r8, lsr #5
    2780:	77777777 			; <UNDEFINED> instruction: 0x77777777
    2784:	800182a4 	andhi	r8, r1, r4, lsr #5
    2788:	800182b8 			; <UNDEFINED> instruction: 0x800182b8
    278c:	77700777 			; <UNDEFINED> instruction: 0x77700777
    2790:	800182b4 			; <UNDEFINED> instruction: 0x800182b4
    2794:	80018148 	andhi	r8, r1, r8, asr #2
    2798:	fffc0000 			; <UNDEFINED> instruction: 0xfffc0000
    279c:	80018158 	andhi	r8, r1, r8, asr r1
    27a0:	800182c8 	andhi	r8, r1, r8, asr #5
    27a4:	800182c4 	andhi	r8, r1, r4, asr #5
    27a8:	800182d8 	ldrdhi	r8, [r1], -r8	; <UNPREDICTABLE>
    27ac:	800182d4 	ldrdhi	r8, [r1], -r4
    27b0:	800182e8 	andhi	r8, r1, r8, ror #5
    27b4:	00777777 	rsbseq	r7, r7, r7, ror r7
    27b8:	800182e4 	andhi	r8, r1, r4, ror #5
    27bc:	80018168 	andhi	r8, r1, r8, ror #2
    27c0:	80018178 	andhi	r8, r1, r8, ror r1
    27c4:	00000fff 	strdeq	r0, [r0], -pc	; <UNPREDICTABLE>

000027c8 <hw_emi_DisableEmiPadKeepers>:
    27c8:	e52db004 	push	{fp}		; (str fp, [sp, #-4]!)
    27cc:	e28db000 	add	fp, sp, #0
    27d0:	e59f301c 	ldr	r3, [pc, #28]	; 27f4 <hw_emi_DisableEmiPadKeepers+0x2c>
    27d4:	e3a02103 	mov	r2, #-1073741824	; 0xc0000000
    27d8:	e5832000 	str	r2, [r3]
    27dc:	e59f3014 	ldr	r3, [pc, #20]	; 27f8 <hw_emi_DisableEmiPadKeepers+0x30>
    27e0:	e59f2014 	ldr	r2, [pc, #20]	; 27fc <hw_emi_DisableEmiPadKeepers+0x34>
    27e4:	e5832000 	str	r2, [r3]
    27e8:	e28bd000 	add	sp, fp, #0
    27ec:	e49db004 	pop	{fp}		; (ldr fp, [sp], #4)
    27f0:	e12fff1e 	bx	lr
    27f4:	80018008 	andhi	r8, r1, r8
    27f8:	80018434 	andhi	r8, r1, r4, lsr r4
    27fc:	0003ffff 	strdeq	pc, [r3], -pc	; <UNPREDICTABLE>

00002800 <ddi_emi_ExitAutoMemoryClockGateMode>:
    2800:	e92d4800 	push	{fp, lr}
    2804:	e28db004 	add	fp, sp, #4
    2808:	e3a00000 	mov	r0, #0
    280c:	ebfffbd3 	bl	1760 <hw_emi_EnterMemoryClockGateMode>
    2810:	e3a00000 	mov	r0, #0
    2814:	ebfffbe7 	bl	17b8 <hw_emi_SetMemoryClockGateAutoFlag>
    2818:	e59f3008 	ldr	r3, [pc, #8]	; 2828 <ddi_emi_ExitAutoMemoryClockGateMode+0x28>
    281c:	e3a02000 	mov	r2, #0
    2820:	e5832048 	str	r2, [r3, #72]	; 0x48
    2824:	e8bd8800 	pop	{fp, pc}
    2828:	000060b4 	strheq	r6, [r0], -r4

0000282c <ddi_emi_PrepareForDramSelfRefreshMode>:
    282c:	e92d4800 	push	{fp, lr}
    2830:	e28db004 	add	fp, sp, #4
    2834:	ebfffa93 	bl	1288 <hw_core_drain_write_buffer>
    2838:	e8bd8800 	pop	{fp, pc}

0000283c <ddi_emi_EnterStaticSelfRefreshMode>:
    283c:	e92d4800 	push	{fp, lr}
    2840:	e28db004 	add	fp, sp, #4
    2844:	e24dd008 	sub	sp, sp, #8
    2848:	e3a00001 	mov	r0, #1
    284c:	eb000366 	bl	35ec <hw_emi_EnterMemorySelfRefreshMode>
    2850:	eb000314 	bl	34a8 <hw_digctl_GetCurrentTime>
    2854:	e50b0008 	str	r0, [fp, #-8]
    2858:	ea000007 	b	287c <ddi_emi_EnterStaticSelfRefreshMode+0x40>
    285c:	e51b0008 	ldr	r0, [fp, #-8]
    2860:	e3a01ffa 	mov	r1, #1000	; 0x3e8
    2864:	eb000331 	bl	3530 <hw_digctl_CheckTimeOut>
    2868:	e1a03000 	mov	r3, r0
    286c:	e3530000 	cmp	r3, #0
    2870:	0a000001 	beq	287c <ddi_emi_EnterStaticSelfRefreshMode+0x40>
    2874:	e59f3020 	ldr	r3, [pc, #32]	; 289c <ddi_emi_EnterStaticSelfRefreshMode+0x60>
    2878:	ea000004 	b	2890 <ddi_emi_EnterStaticSelfRefreshMode+0x54>
    287c:	ebfffa75 	bl	1258 <hw_emi_IsControllerHalted>
    2880:	e1a03000 	mov	r3, r0
    2884:	e3530000 	cmp	r3, #0
    2888:	0afffff3 	beq	285c <ddi_emi_EnterStaticSelfRefreshMode+0x20>
    288c:	e3a03000 	mov	r3, #0
    2890:	e1a00003 	mov	r0, r3
    2894:	e24bd004 	sub	sp, fp, #4
    2898:	e8bd8800 	pop	{fp, pc}
    289c:	f0224001 			; <UNDEFINED> instruction: 0xf0224001

000028a0 <hw_clkctrl_SetPfdRefEmiGate>:
    28a0:	e52db004 	push	{fp}		; (str fp, [sp, #-4]!)
    28a4:	e28db000 	add	fp, sp, #0
    28a8:	e24dd00c 	sub	sp, sp, #12
    28ac:	e50b0008 	str	r0, [fp, #-8]
    28b0:	e51b3008 	ldr	r3, [fp, #-8]
    28b4:	e3530000 	cmp	r3, #0
    28b8:	0a000003 	beq	28cc <hw_clkctrl_SetPfdRefEmiGate+0x2c>
    28bc:	e59f3020 	ldr	r3, [pc, #32]	; 28e4 <hw_clkctrl_SetPfdRefEmiGate+0x44>
    28c0:	e3a02902 	mov	r2, #32768	; 0x8000
    28c4:	e5832000 	str	r2, [r3]
    28c8:	ea000002 	b	28d8 <hw_clkctrl_SetPfdRefEmiGate+0x38>
    28cc:	e59f3014 	ldr	r3, [pc, #20]	; 28e8 <hw_clkctrl_SetPfdRefEmiGate+0x48>
    28d0:	e3a02902 	mov	r2, #32768	; 0x8000
    28d4:	e5832000 	str	r2, [r3]
    28d8:	e28bd000 	add	sp, fp, #0
    28dc:	e49db004 	pop	{fp}		; (ldr fp, [sp], #4)
    28e0:	e12fff1e 	bx	lr
    28e4:	800400f4 	strdhi	r0, [r4], -r4
    28e8:	800400f8 	strdhi	r0, [r4], -r8

000028ec <hw_clkctrl_PowerPll>:
    28ec:	e52db004 	push	{fp}		; (str fp, [sp, #-4]!)
    28f0:	e28db000 	add	fp, sp, #0
    28f4:	e24dd00c 	sub	sp, sp, #12
    28f8:	e50b0008 	str	r0, [fp, #-8]
    28fc:	e51b3008 	ldr	r3, [fp, #-8]
    2900:	e3530000 	cmp	r3, #0
    2904:	0a000003 	beq	2918 <hw_clkctrl_PowerPll+0x2c>
    2908:	e59f3020 	ldr	r3, [pc, #32]	; 2930 <hw_clkctrl_PowerPll+0x44>
    290c:	e3a02801 	mov	r2, #65536	; 0x10000
    2910:	e5832000 	str	r2, [r3]
    2914:	ea000002 	b	2924 <hw_clkctrl_PowerPll+0x38>
    2918:	e59f3014 	ldr	r3, [pc, #20]	; 2934 <hw_clkctrl_PowerPll+0x48>
    291c:	e3a02801 	mov	r2, #65536	; 0x10000
    2920:	e5832000 	str	r2, [r3]
    2924:	e28bd000 	add	sp, fp, #0
    2928:	e49db004 	pop	{fp}		; (ldr fp, [sp], #4)
    292c:	e12fff1e 	bx	lr
    2930:	80040004 	andhi	r0, r4, r4
    2934:	80040008 	andhi	r0, r4, r8

00002938 <hw_clkctrl_SetPfdRefEmiDiv>:
    2938:	e52db004 	push	{fp}		; (str fp, [sp, #-4]!)
    293c:	e28db000 	add	fp, sp, #0
    2940:	e24dd00c 	sub	sp, sp, #12
    2944:	e50b0008 	str	r0, [fp, #-8]
    2948:	e59f3054 	ldr	r3, [pc, #84]	; 29a4 <hw_clkctrl_SetPfdRefEmiDiv+0x6c>
    294c:	e5933000 	ldr	r3, [r3]
    2950:	e2033902 	and	r3, r3, #32768	; 0x8000
    2954:	e3530000 	cmp	r3, #0
    2958:	0a000001 	beq	2964 <hw_clkctrl_SetPfdRefEmiDiv+0x2c>
    295c:	e59f3044 	ldr	r3, [pc, #68]	; 29a8 <hw_clkctrl_SetPfdRefEmiDiv+0x70>
    2960:	ea00000b 	b	2994 <hw_clkctrl_SetPfdRefEmiDiv+0x5c>
    2964:	e59f1038 	ldr	r1, [pc, #56]	; 29a4 <hw_clkctrl_SetPfdRefEmiDiv+0x6c>
    2968:	e51b3008 	ldr	r3, [fp, #-8]
    296c:	e20330ff 	and	r3, r3, #255	; 0xff
    2970:	e203303f 	and	r3, r3, #63	; 0x3f
    2974:	e20320ff 	and	r2, r3, #255	; 0xff
    2978:	e5913000 	ldr	r3, [r1]
    297c:	e202203f 	and	r2, r2, #63	; 0x3f
    2980:	e3c33c3f 	bic	r3, r3, #16128	; 0x3f00
    2984:	e1a02402 	lsl	r2, r2, #8
    2988:	e1823003 	orr	r3, r2, r3
    298c:	e5813000 	str	r3, [r1]
    2990:	e3a03000 	mov	r3, #0
    2994:	e1a00003 	mov	r0, r3
    2998:	e28bd000 	add	sp, fp, #0
    299c:	e49db004 	pop	{fp}		; (ldr fp, [sp], #4)
    29a0:	e12fff1e 	bx	lr
    29a4:	800400f0 	strdhi	r0, [r4], -r0	; <UNPREDICTABLE>
    29a8:	f011a006 			; <UNDEFINED> instruction: 0xf011a006

000029ac <hw_clkctrl_SetEmiClkRefEmiDiv>:
    29ac:	e52db004 	push	{fp}		; (str fp, [sp, #-4]!)
    29b0:	e28db000 	add	fp, sp, #0
    29b4:	e24dd00c 	sub	sp, sp, #12
    29b8:	e50b0008 	str	r0, [fp, #-8]
    29bc:	e59f306c 	ldr	r3, [pc, #108]	; 2a30 <hw_clkctrl_SetEmiClkRefEmiDiv+0x84>
    29c0:	e5933000 	ldr	r3, [r3]
    29c4:	e2033201 	and	r3, r3, #268435456	; 0x10000000
    29c8:	e3530000 	cmp	r3, #0
    29cc:	0a000001 	beq	29d8 <hw_clkctrl_SetEmiClkRefEmiDiv+0x2c>
    29d0:	e59f305c 	ldr	r3, [pc, #92]	; 2a34 <hw_clkctrl_SetEmiClkRefEmiDiv+0x88>
    29d4:	ea000011 	b	2a20 <hw_clkctrl_SetEmiClkRefEmiDiv+0x74>
    29d8:	e59f3058 	ldr	r3, [pc, #88]	; 2a38 <hw_clkctrl_SetEmiClkRefEmiDiv+0x8c>
    29dc:	e5933000 	ldr	r3, [r3]
    29e0:	e2033902 	and	r3, r3, #32768	; 0x8000
    29e4:	e3530000 	cmp	r3, #0
    29e8:	0a000001 	beq	29f4 <hw_clkctrl_SetEmiClkRefEmiDiv+0x48>
    29ec:	e59f3048 	ldr	r3, [pc, #72]	; 2a3c <hw_clkctrl_SetEmiClkRefEmiDiv+0x90>
    29f0:	ea00000a 	b	2a20 <hw_clkctrl_SetEmiClkRefEmiDiv+0x74>
    29f4:	e59f2034 	ldr	r2, [pc, #52]	; 2a30 <hw_clkctrl_SetEmiClkRefEmiDiv+0x84>
    29f8:	e51b3008 	ldr	r3, [fp, #-8]
    29fc:	e20330ff 	and	r3, r3, #255	; 0xff
    2a00:	e203303f 	and	r3, r3, #63	; 0x3f
    2a04:	e20310ff 	and	r1, r3, #255	; 0xff
    2a08:	e5923000 	ldr	r3, [r2]
    2a0c:	e201103f 	and	r1, r1, #63	; 0x3f
    2a10:	e3c3303f 	bic	r3, r3, #63	; 0x3f
    2a14:	e1813003 	orr	r3, r1, r3
    2a18:	e5823000 	str	r3, [r2]
    2a1c:	e3a03000 	mov	r3, #0
    2a20:	e1a00003 	mov	r0, r3
    2a24:	e28bd000 	add	sp, fp, #0
    2a28:	e49db004 	pop	{fp}		; (ldr fp, [sp], #4)
    2a2c:	e12fff1e 	bx	lr
    2a30:	800400a0 	andhi	r0, r4, r0, lsr #1
    2a34:	f011a004 			; <UNDEFINED> instruction: 0xf011a004
    2a38:	800400f0 	strdhi	r0, [r4], -r0	; <UNPREDICTABLE>
    2a3c:	f011a006 			; <UNDEFINED> instruction: 0xf011a006

00002a40 <hw_dram_Init_ddr_mt46v32m16_6t_96MHz>:
    2a40:	e52db004 	push	{fp}		; (str fp, [sp, #-4]!)
    2a44:	e28db000 	add	fp, sp, #0
    2a48:	e24dd00c 	sub	sp, sp, #12
    2a4c:	e59f3298 	ldr	r3, [pc, #664]	; 2cec <hw_dram_Init_ddr_mt46v32m16_6t_96MHz+0x2ac>
    2a50:	e50b3008 	str	r3, [fp, #-8]
    2a54:	e51b3008 	ldr	r3, [fp, #-8]
    2a58:	e59f2290 	ldr	r2, [pc, #656]	; 2cf0 <hw_dram_Init_ddr_mt46v32m16_6t_96MHz+0x2b0>
    2a5c:	e5832000 	str	r2, [r3]
    2a60:	e51b3008 	ldr	r3, [fp, #-8]
    2a64:	e2833004 	add	r3, r3, #4
    2a68:	e59f2284 	ldr	r2, [pc, #644]	; 2cf4 <hw_dram_Init_ddr_mt46v32m16_6t_96MHz+0x2b4>
    2a6c:	e5832000 	str	r2, [r3]
    2a70:	e51b3008 	ldr	r3, [fp, #-8]
    2a74:	e2833008 	add	r3, r3, #8
    2a78:	e59f2278 	ldr	r2, [pc, #632]	; 2cf8 <hw_dram_Init_ddr_mt46v32m16_6t_96MHz+0x2b8>
    2a7c:	e5832000 	str	r2, [r3]
    2a80:	e51b3008 	ldr	r3, [fp, #-8]
    2a84:	e283300c 	add	r3, r3, #12
    2a88:	e3a02001 	mov	r2, #1
    2a8c:	e5832000 	str	r2, [r3]
    2a90:	e51b3008 	ldr	r3, [fp, #-8]
    2a94:	e2833010 	add	r3, r3, #16
    2a98:	e59f225c 	ldr	r2, [pc, #604]	; 2cfc <hw_dram_Init_ddr_mt46v32m16_6t_96MHz+0x2bc>
    2a9c:	e5832000 	str	r2, [r3]
    2aa0:	e51b3008 	ldr	r3, [fp, #-8]
    2aa4:	e2833014 	add	r3, r3, #20
    2aa8:	e3a02000 	mov	r2, #0
    2aac:	e5832000 	str	r2, [r3]
    2ab0:	e51b3008 	ldr	r3, [fp, #-8]
    2ab4:	e2833018 	add	r3, r3, #24
    2ab8:	e3a02801 	mov	r2, #65536	; 0x10000
    2abc:	e5832000 	str	r2, [r3]
    2ac0:	e51b3008 	ldr	r3, [fp, #-8]
    2ac4:	e283301c 	add	r3, r3, #28
    2ac8:	e59f2230 	ldr	r2, [pc, #560]	; 2d00 <hw_dram_Init_ddr_mt46v32m16_6t_96MHz+0x2c0>
    2acc:	e5832000 	str	r2, [r3]
    2ad0:	e51b3008 	ldr	r3, [fp, #-8]
    2ad4:	e2833024 	add	r3, r3, #36	; 0x24
    2ad8:	e3a02001 	mov	r2, #1
    2adc:	e5832000 	str	r2, [r3]
    2ae0:	e51b3008 	ldr	r3, [fp, #-8]
    2ae4:	e2833028 	add	r3, r3, #40	; 0x28
    2ae8:	e59f2214 	ldr	r2, [pc, #532]	; 2d04 <hw_dram_Init_ddr_mt46v32m16_6t_96MHz+0x2c4>
    2aec:	e5832000 	str	r2, [r3]
    2af0:	e51b3008 	ldr	r3, [fp, #-8]
    2af4:	e283302c 	add	r3, r3, #44	; 0x2c
    2af8:	e59f2208 	ldr	r2, [pc, #520]	; 2d08 <hw_dram_Init_ddr_mt46v32m16_6t_96MHz+0x2c8>
    2afc:	e5832000 	str	r2, [r3]
    2b00:	e51b3008 	ldr	r3, [fp, #-8]
    2b04:	e2833030 	add	r3, r3, #48	; 0x30
    2b08:	e59f21fc 	ldr	r2, [pc, #508]	; 2d0c <hw_dram_Init_ddr_mt46v32m16_6t_96MHz+0x2cc>
    2b0c:	e5832000 	str	r2, [r3]
    2b10:	e51b3008 	ldr	r3, [fp, #-8]
    2b14:	e2833034 	add	r3, r3, #52	; 0x34
    2b18:	e59f21f0 	ldr	r2, [pc, #496]	; 2d10 <hw_dram_Init_ddr_mt46v32m16_6t_96MHz+0x2d0>
    2b1c:	e5832000 	str	r2, [r3]
    2b20:	e51b3008 	ldr	r3, [fp, #-8]
    2b24:	e2833038 	add	r3, r3, #56	; 0x38
    2b28:	e59f21e4 	ldr	r2, [pc, #484]	; 2d14 <hw_dram_Init_ddr_mt46v32m16_6t_96MHz+0x2d4>
    2b2c:	e5832000 	str	r2, [r3]
    2b30:	e51b3008 	ldr	r3, [fp, #-8]
    2b34:	e283303c 	add	r3, r3, #60	; 0x3c
    2b38:	e3a02781 	mov	r2, #33816576	; 0x2040000
    2b3c:	e5832000 	str	r2, [r3]
    2b40:	e51b3008 	ldr	r3, [fp, #-8]
    2b44:	e2833040 	add	r3, r3, #64	; 0x40
    2b48:	e3a02402 	mov	r2, #33554432	; 0x2000000
    2b4c:	e5832000 	str	r2, [r3]
    2b50:	e51b3008 	ldr	r3, [fp, #-8]
    2b54:	e2833044 	add	r3, r3, #68	; 0x44
    2b58:	e59f21b8 	ldr	r2, [pc, #440]	; 2d18 <hw_dram_Init_ddr_mt46v32m16_6t_96MHz+0x2d8>
    2b5c:	e5832000 	str	r2, [r3]
    2b60:	e51b3008 	ldr	r3, [fp, #-8]
    2b64:	e2833048 	add	r3, r3, #72	; 0x48
    2b68:	e59f21ac 	ldr	r2, [pc, #428]	; 2d1c <hw_dram_Init_ddr_mt46v32m16_6t_96MHz+0x2dc>
    2b6c:	e5832000 	str	r2, [r3]
    2b70:	e51b3008 	ldr	r3, [fp, #-8]
    2b74:	e283304c 	add	r3, r3, #76	; 0x4c
    2b78:	e59f21a0 	ldr	r2, [pc, #416]	; 2d20 <hw_dram_Init_ddr_mt46v32m16_6t_96MHz+0x2e0>
    2b7c:	e5832000 	str	r2, [r3]
    2b80:	e51b3008 	ldr	r3, [fp, #-8]
    2b84:	e2833050 	add	r3, r3, #80	; 0x50
    2b88:	e59f2194 	ldr	r2, [pc, #404]	; 2d24 <hw_dram_Init_ddr_mt46v32m16_6t_96MHz+0x2e4>
    2b8c:	e5832000 	str	r2, [r3]
    2b90:	e51b3008 	ldr	r3, [fp, #-8]
    2b94:	e2833054 	add	r3, r3, #84	; 0x54
    2b98:	e3a02007 	mov	r2, #7
    2b9c:	e5832000 	str	r2, [r3]
    2ba0:	e51b3008 	ldr	r3, [fp, #-8]
    2ba4:	e2833058 	add	r3, r3, #88	; 0x58
    2ba8:	e59f2178 	ldr	r2, [pc, #376]	; 2d28 <hw_dram_Init_ddr_mt46v32m16_6t_96MHz+0x2e8>
    2bac:	e5832000 	str	r2, [r3]
    2bb0:	e51b3008 	ldr	r3, [fp, #-8]
    2bb4:	e283305c 	add	r3, r3, #92	; 0x5c
    2bb8:	e59f216c 	ldr	r2, [pc, #364]	; 2d2c <hw_dram_Init_ddr_mt46v32m16_6t_96MHz+0x2ec>
    2bbc:	e5832000 	str	r2, [r3]
    2bc0:	e51b3008 	ldr	r3, [fp, #-8]
    2bc4:	e2833060 	add	r3, r3, #96	; 0x60
    2bc8:	e59f215c 	ldr	r2, [pc, #348]	; 2d2c <hw_dram_Init_ddr_mt46v32m16_6t_96MHz+0x2ec>
    2bcc:	e5832000 	str	r2, [r3]
    2bd0:	e51b3008 	ldr	r3, [fp, #-8]
    2bd4:	e2833064 	add	r3, r3, #100	; 0x64
    2bd8:	e59f214c 	ldr	r2, [pc, #332]	; 2d2c <hw_dram_Init_ddr_mt46v32m16_6t_96MHz+0x2ec>
    2bdc:	e5832000 	str	r2, [r3]
    2be0:	e51b3008 	ldr	r3, [fp, #-8]
    2be4:	e2833068 	add	r3, r3, #104	; 0x68
    2be8:	e59f2140 	ldr	r2, [pc, #320]	; 2d30 <hw_dram_Init_ddr_mt46v32m16_6t_96MHz+0x2f0>
    2bec:	e5832000 	str	r2, [r3]
    2bf0:	e51b3008 	ldr	r3, [fp, #-8]
    2bf4:	e283306c 	add	r3, r3, #108	; 0x6c
    2bf8:	e3a02000 	mov	r2, #0
    2bfc:	e5832000 	str	r2, [r3]
    2c00:	e51b3008 	ldr	r3, [fp, #-8]
    2c04:	e2833070 	add	r3, r3, #112	; 0x70
    2c08:	e3a02000 	mov	r2, #0
    2c0c:	e5832000 	str	r2, [r3]
    2c10:	e51b3008 	ldr	r3, [fp, #-8]
    2c14:	e2833074 	add	r3, r3, #116	; 0x74
    2c18:	e3a02000 	mov	r2, #0
    2c1c:	e5832000 	str	r2, [r3]
    2c20:	e51b3008 	ldr	r3, [fp, #-8]
    2c24:	e2833078 	add	r3, r3, #120	; 0x78
    2c28:	e3a02000 	mov	r2, #0
    2c2c:	e5832000 	str	r2, [r3]
    2c30:	e51b3008 	ldr	r3, [fp, #-8]
    2c34:	e283307c 	add	r3, r3, #124	; 0x7c
    2c38:	e3a02732 	mov	r2, #13107200	; 0xc80000
    2c3c:	e5832000 	str	r2, [r3]
    2c40:	e51b3008 	ldr	r3, [fp, #-8]
    2c44:	e2833080 	add	r3, r3, #128	; 0x80
    2c48:	e59f20e4 	ldr	r2, [pc, #228]	; 2d34 <hw_dram_Init_ddr_mt46v32m16_6t_96MHz+0x2f4>
    2c4c:	e5832000 	str	r2, [r3]
    2c50:	e51b3008 	ldr	r3, [fp, #-8]
    2c54:	e2833084 	add	r3, r3, #132	; 0x84
    2c58:	e3a020c8 	mov	r2, #200	; 0xc8
    2c5c:	e5832000 	str	r2, [r3]
    2c60:	e51b3008 	ldr	r3, [fp, #-8]
    2c64:	e2833088 	add	r3, r3, #136	; 0x88
    2c68:	e59f20c8 	ldr	r2, [pc, #200]	; 2d38 <hw_dram_Init_ddr_mt46v32m16_6t_96MHz+0x2f8>
    2c6c:	e5832000 	str	r2, [r3]
    2c70:	e51b3008 	ldr	r3, [fp, #-8]
    2c74:	e283308c 	add	r3, r3, #140	; 0x8c
    2c78:	e3a02000 	mov	r2, #0
    2c7c:	e5832000 	str	r2, [r3]
    2c80:	e51b3008 	ldr	r3, [fp, #-8]
    2c84:	e2833090 	add	r3, r3, #144	; 0x90
    2c88:	e59f206c 	ldr	r2, [pc, #108]	; 2cfc <hw_dram_Init_ddr_mt46v32m16_6t_96MHz+0x2bc>
    2c8c:	e5832000 	str	r2, [r3]
    2c90:	e51b3008 	ldr	r3, [fp, #-8]
    2c94:	e2833094 	add	r3, r3, #148	; 0x94
    2c98:	e59f209c 	ldr	r2, [pc, #156]	; 2d3c <hw_dram_Init_ddr_mt46v32m16_6t_96MHz+0x2fc>
    2c9c:	e5832000 	str	r2, [r3]
    2ca0:	e51b3008 	ldr	r3, [fp, #-8]
    2ca4:	e2833098 	add	r3, r3, #152	; 0x98
    2ca8:	e3a02000 	mov	r2, #0
    2cac:	e5832000 	str	r2, [r3]
    2cb0:	e51b3008 	ldr	r3, [fp, #-8]
    2cb4:	e283309c 	add	r3, r3, #156	; 0x9c
    2cb8:	e3a02000 	mov	r2, #0
    2cbc:	e5832000 	str	r2, [r3]
    2cc0:	e51b3008 	ldr	r3, [fp, #-8]
    2cc4:	e28330a0 	add	r3, r3, #160	; 0xa0
    2cc8:	e3a02801 	mov	r2, #65536	; 0x10000
    2ccc:	e5832000 	str	r2, [r3]
    2cd0:	e51b3008 	ldr	r3, [fp, #-8]
    2cd4:	e2833020 	add	r3, r3, #32
    2cd8:	e3a02401 	mov	r2, #16777216	; 0x1000000
    2cdc:	e5832000 	str	r2, [r3]
    2ce0:	e28bd000 	add	sp, fp, #0
    2ce4:	e49db004 	pop	{fp}		; (ldr fp, [sp], #4)
    2ce8:	e12fff1e 	bx	lr
    2cec:	800e0000 	andhi	r0, lr, r0
    2cf0:	01010001 	tsteq	r1, r1
    2cf4:	00010100 	andeq	r0, r1, r0, lsl #2
    2cf8:	01000101 	tsteq	r0, r1, lsl #2
    2cfc:	00000101 	andeq	r0, r0, r1, lsl #2
    2d00:	01000001 	tsteq	r0, r1
    2d04:	07000200 	streq	r0, [r0, -r0, lsl #4]
    2d08:	00070202 	andeq	r0, r7, r2, lsl #4
    2d0c:	02020000 	andeq	r0, r2, #0
    2d10:	04040a01 	streq	r0, [r4], #-2561	; 0xfffff5ff
    2d14:	00000203 	andeq	r0, r0, r3, lsl #4
    2d18:	25001506 	strcs	r1, [r0, #-1286]	; 0xfffffafa
    2d1c:	1f1f0000 	svcne	0x001f0000
    2d20:	027f1a1a 	rsbseq	r1, pc, #106496	; 0x1a000
    2d24:	02051c22 	andeq	r1, r5, #8704	; 0x2200
    2d28:	00080008 	andeq	r0, r8, r8
    2d2c:	00200020 	eoreq	r0, r0, r0, lsr #32
    2d30:	000002e6 	andeq	r0, r0, r6, ror #5
    2d34:	00081a3b 	andeq	r1, r8, fp, lsr sl
    2d38:	00004b0d 	andeq	r4, r0, sp, lsl #22
    2d3c:	00040001 	andeq	r0, r4, r1

00002d40 <hw_dram_Init_ddr_mt46v32m16_6t_133MHz_optimized>:
    2d40:	e52db004 	push	{fp}		; (str fp, [sp, #-4]!)
    2d44:	e28db000 	add	fp, sp, #0
    2d48:	e24dd00c 	sub	sp, sp, #12
    2d4c:	e59f310c 	ldr	r3, [pc, #268]	; 2e60 <hw_dram_Init_ddr_mt46v32m16_6t_133MHz_optimized+0x120>
    2d50:	e50b3008 	str	r3, [fp, #-8]
    2d54:	e51b3008 	ldr	r3, [fp, #-8]
    2d58:	e2833010 	add	r3, r3, #16
    2d5c:	e59f2100 	ldr	r2, [pc, #256]	; 2e64 <hw_dram_Init_ddr_mt46v32m16_6t_133MHz_optimized+0x124>
    2d60:	e5832000 	str	r2, [r3]
    2d64:	e51b3008 	ldr	r3, [fp, #-8]
    2d68:	e283301c 	add	r3, r3, #28
    2d6c:	e59f20f4 	ldr	r2, [pc, #244]	; 2e68 <hw_dram_Init_ddr_mt46v32m16_6t_133MHz_optimized+0x128>
    2d70:	e5832000 	str	r2, [r3]
    2d74:	e51b3008 	ldr	r3, [fp, #-8]
    2d78:	e283302c 	add	r3, r3, #44	; 0x2c
    2d7c:	e59f20e8 	ldr	r2, [pc, #232]	; 2e6c <hw_dram_Init_ddr_mt46v32m16_6t_133MHz_optimized+0x12c>
    2d80:	e5832000 	str	r2, [r3]
    2d84:	e51b3008 	ldr	r3, [fp, #-8]
    2d88:	e2833030 	add	r3, r3, #48	; 0x30
    2d8c:	e59f20dc 	ldr	r2, [pc, #220]	; 2e70 <hw_dram_Init_ddr_mt46v32m16_6t_133MHz_optimized+0x130>
    2d90:	e5832000 	str	r2, [r3]
    2d94:	e51b3008 	ldr	r3, [fp, #-8]
    2d98:	e2833034 	add	r3, r3, #52	; 0x34
    2d9c:	e59f20d0 	ldr	r2, [pc, #208]	; 2e74 <hw_dram_Init_ddr_mt46v32m16_6t_133MHz_optimized+0x134>
    2da0:	e5832000 	str	r2, [r3]
    2da4:	e51b3008 	ldr	r3, [fp, #-8]
    2da8:	e283303c 	add	r3, r3, #60	; 0x3c
    2dac:	e3a02781 	mov	r2, #33816576	; 0x2040000
    2db0:	e5832000 	str	r2, [r3]
    2db4:	e51b3008 	ldr	r3, [fp, #-8]
    2db8:	e2833044 	add	r3, r3, #68	; 0x44
    2dbc:	e59f20b4 	ldr	r2, [pc, #180]	; 2e78 <hw_dram_Init_ddr_mt46v32m16_6t_133MHz_optimized+0x138>
    2dc0:	e5832000 	str	r2, [r3]
    2dc4:	e51b3008 	ldr	r3, [fp, #-8]
    2dc8:	e2833048 	add	r3, r3, #72	; 0x48
    2dcc:	e59f20a8 	ldr	r2, [pc, #168]	; 2e7c <hw_dram_Init_ddr_mt46v32m16_6t_133MHz_optimized+0x13c>
    2dd0:	e5832000 	str	r2, [r3]
    2dd4:	e51b3008 	ldr	r3, [fp, #-8]
    2dd8:	e283304c 	add	r3, r3, #76	; 0x4c
    2ddc:	e59f209c 	ldr	r2, [pc, #156]	; 2e80 <hw_dram_Init_ddr_mt46v32m16_6t_133MHz_optimized+0x140>
    2de0:	e5832000 	str	r2, [r3]
    2de4:	e51b3008 	ldr	r3, [fp, #-8]
    2de8:	e2833050 	add	r3, r3, #80	; 0x50
    2dec:	e59f2090 	ldr	r2, [pc, #144]	; 2e84 <hw_dram_Init_ddr_mt46v32m16_6t_133MHz_optimized+0x144>
    2df0:	e5832000 	str	r2, [r3]
    2df4:	e51b3008 	ldr	r3, [fp, #-8]
    2df8:	e2833054 	add	r3, r3, #84	; 0x54
    2dfc:	e3a0200a 	mov	r2, #10
    2e00:	e5832000 	str	r2, [r3]
    2e04:	e51b3008 	ldr	r3, [fp, #-8]
    2e08:	e2833068 	add	r3, r3, #104	; 0x68
    2e0c:	e59f2074 	ldr	r2, [pc, #116]	; 2e88 <hw_dram_Init_ddr_mt46v32m16_6t_133MHz_optimized+0x148>
    2e10:	e5832000 	str	r2, [r3]
    2e14:	e51b3008 	ldr	r3, [fp, #-8]
    2e18:	e2833080 	add	r3, r3, #128	; 0x80
    2e1c:	e59f2068 	ldr	r2, [pc, #104]	; 2e8c <hw_dram_Init_ddr_mt46v32m16_6t_133MHz_optimized+0x14c>
    2e20:	e5832000 	str	r2, [r3]
    2e24:	e51b3008 	ldr	r3, [fp, #-8]
    2e28:	e2833084 	add	r3, r3, #132	; 0x84
    2e2c:	e3a020c8 	mov	r2, #200	; 0xc8
    2e30:	e5832000 	str	r2, [r3]
    2e34:	e51b3008 	ldr	r3, [fp, #-8]
    2e38:	e2833088 	add	r3, r3, #136	; 0x88
    2e3c:	e59f204c 	ldr	r2, [pc, #76]	; 2e90 <hw_dram_Init_ddr_mt46v32m16_6t_133MHz_optimized+0x150>
    2e40:	e5832000 	str	r2, [r3]
    2e44:	e51b3008 	ldr	r3, [fp, #-8]
    2e48:	e28330a0 	add	r3, r3, #160	; 0xa0
    2e4c:	e3a02801 	mov	r2, #65536	; 0x10000
    2e50:	e5832000 	str	r2, [r3]
    2e54:	e28bd000 	add	sp, fp, #0
    2e58:	e49db004 	pop	{fp}		; (ldr fp, [sp], #4)
    2e5c:	e12fff1e 	bx	lr
    2e60:	800e0000 	andhi	r0, lr, r0
    2e64:	00000101 	andeq	r0, r0, r1, lsl #2
    2e68:	01000001 	tsteq	r0, r1
    2e6c:	00070204 	andeq	r0, r7, r4, lsl #4
    2e70:	02020000 	andeq	r0, r2, #0
    2e74:	04040a01 	streq	r0, [r4], #-2561	; 0xfffff5ff
    2e78:	19000f08 	stmdbne	r0, {r3, r8, r9, sl, fp}
    2e7c:	0d0d0000 	stceq	0, cr0, [sp, #-0]
    2e80:	02021313 	andeq	r1, r2, #1275068416	; 0x4c000000
    2e84:	02061521 	andeq	r1, r6, #138412032	; 0x8400000
    2e88:	000003f7 	strdeq	r0, [r0], -r7
    2e8c:	000a23cd 	andeq	r2, sl, sp, asr #7
    2e90:	00006665 	andeq	r6, r0, r5, ror #12

00002e94 <hw_dram_Init_mobile_ddr_mt46h32m16lf_5_regs_3_133MHz>:
    2e94:	e52db004 	push	{fp}		; (str fp, [sp, #-4]!)
    2e98:	e28db000 	add	fp, sp, #0
    2e9c:	e24dd00c 	sub	sp, sp, #12
    2ea0:	e59f3298 	ldr	r3, [pc, #664]	; 3140 <hw_dram_Init_mobile_ddr_mt46h32m16lf_5_regs_3_133MHz+0x2ac>
    2ea4:	e50b3008 	str	r3, [fp, #-8]
    2ea8:	e51b3008 	ldr	r3, [fp, #-8]
    2eac:	e59f2290 	ldr	r2, [pc, #656]	; 3144 <hw_dram_Init_mobile_ddr_mt46h32m16lf_5_regs_3_133MHz+0x2b0>
    2eb0:	e5832000 	str	r2, [r3]
    2eb4:	e51b3008 	ldr	r3, [fp, #-8]
    2eb8:	e2833004 	add	r3, r3, #4
    2ebc:	e59f2284 	ldr	r2, [pc, #644]	; 3148 <hw_dram_Init_mobile_ddr_mt46h32m16lf_5_regs_3_133MHz+0x2b4>
    2ec0:	e5832000 	str	r2, [r3]
    2ec4:	e51b3008 	ldr	r3, [fp, #-8]
    2ec8:	e2833008 	add	r3, r3, #8
    2ecc:	e59f2278 	ldr	r2, [pc, #632]	; 314c <hw_dram_Init_mobile_ddr_mt46h32m16lf_5_regs_3_133MHz+0x2b8>
    2ed0:	e5832000 	str	r2, [r3]
    2ed4:	e51b3008 	ldr	r3, [fp, #-8]
    2ed8:	e283300c 	add	r3, r3, #12
    2edc:	e3a02001 	mov	r2, #1
    2ee0:	e5832000 	str	r2, [r3]
    2ee4:	e51b3008 	ldr	r3, [fp, #-8]
    2ee8:	e2833010 	add	r3, r3, #16
    2eec:	e59f225c 	ldr	r2, [pc, #604]	; 3150 <hw_dram_Init_mobile_ddr_mt46h32m16lf_5_regs_3_133MHz+0x2bc>
    2ef0:	e5832000 	str	r2, [r3]
    2ef4:	e51b3008 	ldr	r3, [fp, #-8]
    2ef8:	e2833014 	add	r3, r3, #20
    2efc:	e3a02001 	mov	r2, #1
    2f00:	e5832000 	str	r2, [r3]
    2f04:	e51b3008 	ldr	r3, [fp, #-8]
    2f08:	e2833018 	add	r3, r3, #24
    2f0c:	e3a02801 	mov	r2, #65536	; 0x10000
    2f10:	e5832000 	str	r2, [r3]
    2f14:	e51b3008 	ldr	r3, [fp, #-8]
    2f18:	e283301c 	add	r3, r3, #28
    2f1c:	e59f2230 	ldr	r2, [pc, #560]	; 3154 <hw_dram_Init_mobile_ddr_mt46h32m16lf_5_regs_3_133MHz+0x2c0>
    2f20:	e5832000 	str	r2, [r3]
    2f24:	e51b3008 	ldr	r3, [fp, #-8]
    2f28:	e2833020 	add	r3, r3, #32
    2f2c:	e3a02401 	mov	r2, #16777216	; 0x1000000
    2f30:	e5832000 	str	r2, [r3]
    2f34:	e51b3008 	ldr	r3, [fp, #-8]
    2f38:	e2833024 	add	r3, r3, #36	; 0x24
    2f3c:	e3a02001 	mov	r2, #1
    2f40:	e5832000 	str	r2, [r3]
    2f44:	e51b3008 	ldr	r3, [fp, #-8]
    2f48:	e2833028 	add	r3, r3, #40	; 0x28
    2f4c:	e59f2204 	ldr	r2, [pc, #516]	; 3158 <hw_dram_Init_mobile_ddr_mt46h32m16lf_5_regs_3_133MHz+0x2c4>
    2f50:	e5832000 	str	r2, [r3]
    2f54:	e51b3008 	ldr	r3, [fp, #-8]
    2f58:	e283302c 	add	r3, r3, #44	; 0x2c
    2f5c:	e59f21f8 	ldr	r2, [pc, #504]	; 315c <hw_dram_Init_mobile_ddr_mt46h32m16lf_5_regs_3_133MHz+0x2c8>
    2f60:	e5832000 	str	r2, [r3]
    2f64:	e51b3008 	ldr	r3, [fp, #-8]
    2f68:	e2833030 	add	r3, r3, #48	; 0x30
    2f6c:	e59f21ec 	ldr	r2, [pc, #492]	; 3160 <hw_dram_Init_mobile_ddr_mt46h32m16lf_5_regs_3_133MHz+0x2cc>
    2f70:	e5832000 	str	r2, [r3]
    2f74:	e51b3008 	ldr	r3, [fp, #-8]
    2f78:	e2833034 	add	r3, r3, #52	; 0x34
    2f7c:	e59f21e0 	ldr	r2, [pc, #480]	; 3164 <hw_dram_Init_mobile_ddr_mt46h32m16lf_5_regs_3_133MHz+0x2d0>
    2f80:	e5832000 	str	r2, [r3]
    2f84:	e51b3008 	ldr	r3, [fp, #-8]
    2f88:	e2833038 	add	r3, r3, #56	; 0x38
    2f8c:	e59f21d4 	ldr	r2, [pc, #468]	; 3168 <hw_dram_Init_mobile_ddr_mt46h32m16lf_5_regs_3_133MHz+0x2d4>
    2f90:	e5832000 	str	r2, [r3]
    2f94:	e51b3008 	ldr	r3, [fp, #-8]
    2f98:	e283303c 	add	r3, r3, #60	; 0x3c
    2f9c:	e3a02781 	mov	r2, #33816576	; 0x2040000
    2fa0:	e5832000 	str	r2, [r3]
    2fa4:	e51b3008 	ldr	r3, [fp, #-8]
    2fa8:	e2833040 	add	r3, r3, #64	; 0x40
    2fac:	e3a02402 	mov	r2, #33554432	; 0x2000000
    2fb0:	e5832000 	str	r2, [r3]
    2fb4:	e51b3008 	ldr	r3, [fp, #-8]
    2fb8:	e2833044 	add	r3, r3, #68	; 0x44
    2fbc:	e59f21a8 	ldr	r2, [pc, #424]	; 316c <hw_dram_Init_mobile_ddr_mt46h32m16lf_5_regs_3_133MHz+0x2d8>
    2fc0:	e5832000 	str	r2, [r3]
    2fc4:	e51b3008 	ldr	r3, [fp, #-8]
    2fc8:	e2833048 	add	r3, r3, #72	; 0x48
    2fcc:	e59f219c 	ldr	r2, [pc, #412]	; 3170 <hw_dram_Init_mobile_ddr_mt46h32m16lf_5_regs_3_133MHz+0x2dc>
    2fd0:	e5832000 	str	r2, [r3]
    2fd4:	e51b3008 	ldr	r3, [fp, #-8]
    2fd8:	e283304c 	add	r3, r3, #76	; 0x4c
    2fdc:	e59f2190 	ldr	r2, [pc, #400]	; 3174 <hw_dram_Init_mobile_ddr_mt46h32m16lf_5_regs_3_133MHz+0x2e0>
    2fe0:	e5832000 	str	r2, [r3]
    2fe4:	e51b3008 	ldr	r3, [fp, #-8]
    2fe8:	e2833050 	add	r3, r3, #80	; 0x50
    2fec:	e59f2184 	ldr	r2, [pc, #388]	; 3178 <hw_dram_Init_mobile_ddr_mt46h32m16lf_5_regs_3_133MHz+0x2e4>
    2ff0:	e5832000 	str	r2, [r3]
    2ff4:	e51b3008 	ldr	r3, [fp, #-8]
    2ff8:	e2833054 	add	r3, r3, #84	; 0x54
    2ffc:	e3a0200d 	mov	r2, #13
    3000:	e5832000 	str	r2, [r3]
    3004:	e51b3008 	ldr	r3, [fp, #-8]
    3008:	e2833058 	add	r3, r3, #88	; 0x58
    300c:	e59f2168 	ldr	r2, [pc, #360]	; 317c <hw_dram_Init_mobile_ddr_mt46h32m16lf_5_regs_3_133MHz+0x2e8>
    3010:	e5832000 	str	r2, [r3]
    3014:	e51b3008 	ldr	r3, [fp, #-8]
    3018:	e283305c 	add	r3, r3, #92	; 0x5c
    301c:	e59f215c 	ldr	r2, [pc, #348]	; 3180 <hw_dram_Init_mobile_ddr_mt46h32m16lf_5_regs_3_133MHz+0x2ec>
    3020:	e5832000 	str	r2, [r3]
    3024:	e51b3008 	ldr	r3, [fp, #-8]
    3028:	e2833060 	add	r3, r3, #96	; 0x60
    302c:	e59f214c 	ldr	r2, [pc, #332]	; 3180 <hw_dram_Init_mobile_ddr_mt46h32m16lf_5_regs_3_133MHz+0x2ec>
    3030:	e5832000 	str	r2, [r3]
    3034:	e51b3008 	ldr	r3, [fp, #-8]
    3038:	e2833064 	add	r3, r3, #100	; 0x64
    303c:	e59f213c 	ldr	r2, [pc, #316]	; 3180 <hw_dram_Init_mobile_ddr_mt46h32m16lf_5_regs_3_133MHz+0x2ec>
    3040:	e5832000 	str	r2, [r3]
    3044:	e51b3008 	ldr	r3, [fp, #-8]
    3048:	e2833068 	add	r3, r3, #104	; 0x68
    304c:	e59f2130 	ldr	r2, [pc, #304]	; 3184 <hw_dram_Init_mobile_ddr_mt46h32m16lf_5_regs_3_133MHz+0x2f0>
    3050:	e5832000 	str	r2, [r3]
    3054:	e51b3008 	ldr	r3, [fp, #-8]
    3058:	e283306c 	add	r3, r3, #108	; 0x6c
    305c:	e3a02000 	mov	r2, #0
    3060:	e5832000 	str	r2, [r3]
    3064:	e51b3008 	ldr	r3, [fp, #-8]
    3068:	e2833070 	add	r3, r3, #112	; 0x70
    306c:	e3a02000 	mov	r2, #0
    3070:	e5832000 	str	r2, [r3]
    3074:	e51b3008 	ldr	r3, [fp, #-8]
    3078:	e2833074 	add	r3, r3, #116	; 0x74
    307c:	e3a02000 	mov	r2, #0
    3080:	e5832000 	str	r2, [r3]
    3084:	e51b3008 	ldr	r3, [fp, #-8]
    3088:	e2833078 	add	r3, r3, #120	; 0x78
    308c:	e3a02000 	mov	r2, #0
    3090:	e5832000 	str	r2, [r3]
    3094:	e51b3008 	ldr	r3, [fp, #-8]
    3098:	e283307c 	add	r3, r3, #124	; 0x7c
    309c:	e3a02000 	mov	r2, #0
    30a0:	e5832000 	str	r2, [r3]
    30a4:	e51b3008 	ldr	r3, [fp, #-8]
    30a8:	e2833080 	add	r3, r3, #128	; 0x80
    30ac:	e59f20d4 	ldr	r2, [pc, #212]	; 3188 <hw_dram_Init_mobile_ddr_mt46h32m16lf_5_regs_3_133MHz+0x2f4>
    30b0:	e5832000 	str	r2, [r3]
    30b4:	e51b3008 	ldr	r3, [fp, #-8]
    30b8:	e2833084 	add	r3, r3, #132	; 0x84
    30bc:	e3a02012 	mov	r2, #18
    30c0:	e5832000 	str	r2, [r3]
    30c4:	e51b3008 	ldr	r3, [fp, #-8]
    30c8:	e2833088 	add	r3, r3, #136	; 0x88
    30cc:	e59f20b8 	ldr	r2, [pc, #184]	; 318c <hw_dram_Init_mobile_ddr_mt46h32m16lf_5_regs_3_133MHz+0x2f8>
    30d0:	e5832000 	str	r2, [r3]
    30d4:	e51b3008 	ldr	r3, [fp, #-8]
    30d8:	e283308c 	add	r3, r3, #140	; 0x8c
    30dc:	e3a02000 	mov	r2, #0
    30e0:	e5832000 	str	r2, [r3]
    30e4:	e51b3008 	ldr	r3, [fp, #-8]
    30e8:	e2833090 	add	r3, r3, #144	; 0x90
    30ec:	e59f205c 	ldr	r2, [pc, #92]	; 3150 <hw_dram_Init_mobile_ddr_mt46h32m16lf_5_regs_3_133MHz+0x2bc>
    30f0:	e5832000 	str	r2, [r3]
    30f4:	e51b3008 	ldr	r3, [fp, #-8]
    30f8:	e2833094 	add	r3, r3, #148	; 0x94
    30fc:	e59f208c 	ldr	r2, [pc, #140]	; 3190 <hw_dram_Init_mobile_ddr_mt46h32m16lf_5_regs_3_133MHz+0x2fc>
    3100:	e5832000 	str	r2, [r3]
    3104:	e51b3008 	ldr	r3, [fp, #-8]
    3108:	e2833098 	add	r3, r3, #152	; 0x98
    310c:	e59f2080 	ldr	r2, [pc, #128]	; 3194 <hw_dram_Init_mobile_ddr_mt46h32m16lf_5_regs_3_133MHz+0x300>
    3110:	e5832000 	str	r2, [r3]
    3114:	e51b3008 	ldr	r3, [fp, #-8]
    3118:	e283309c 	add	r3, r3, #156	; 0x9c
    311c:	e59f2074 	ldr	r2, [pc, #116]	; 3198 <hw_dram_Init_mobile_ddr_mt46h32m16lf_5_regs_3_133MHz+0x304>
    3120:	e5832000 	str	r2, [r3]
    3124:	e51b3008 	ldr	r3, [fp, #-8]
    3128:	e28330a0 	add	r3, r3, #160	; 0xa0
    312c:	e59f2068 	ldr	r2, [pc, #104]	; 319c <hw_dram_Init_mobile_ddr_mt46h32m16lf_5_regs_3_133MHz+0x308>
    3130:	e5832000 	str	r2, [r3]
    3134:	e28bd000 	add	sp, fp, #0
    3138:	e49db004 	pop	{fp}		; (ldr fp, [sp], #4)
    313c:	e12fff1e 	bx	lr
    3140:	800e0000 	andhi	r0, lr, r0
    3144:	01010001 	tsteq	r1, r1
    3148:	00010100 	andeq	r0, r1, r0, lsl #2
    314c:	01000101 	tsteq	r0, r1, lsl #2
    3150:	00000101 	andeq	r0, r0, r1, lsl #2
    3154:	01000001 	tsteq	r0, r1
    3158:	07000200 	streq	r0, [r0, -r0, lsl #4]
    315c:	00070203 	andeq	r0, r7, r3, lsl #4
    3160:	02020001 	andeq	r0, r2, #1
    3164:	06060a03 	streq	r0, [r6], -r3, lsl #20
    3168:	00000201 	andeq	r0, r0, r1, lsl #4
    316c:	39000f08 	stmdbcc	r0, {r3, r8, r9, sl, fp}
    3170:	20200000 	eorcs	r0, r0, r0
    3174:	02021313 	andeq	r1, r2, #1275068416	; 0x4c000000
    3178:	0206151c 	andeq	r1, r6, #28, 10	; 0x7000000
    317c:	00080008 	andeq	r0, r8, r8
    3180:	00200020 	eoreq	r0, r0, r0, lsr #32
    3184:	000003f7 	strdeq	r0, [r0], -r7
    3188:	001023cd 	andseq	r2, r0, sp, asr #7
    318c:	00006665 	andeq	r6, r0, r5, ror #12
    3190:	00040001 	andeq	r0, r4, r1
    3194:	00400162 	subeq	r0, r0, r2, ror #2
    3198:	00400040 	subeq	r0, r0, r0, asr #32
    319c:	00020040 	andeq	r0, r2, r0, asr #32

000031a0 <hw_dram_Init_mobile_ddr_mt46h32m16lf_5_regs_3_160MHz>:
    31a0:	e52db004 	push	{fp}		; (str fp, [sp, #-4]!)
    31a4:	e28db000 	add	fp, sp, #0
    31a8:	e24dd00c 	sub	sp, sp, #12
    31ac:	e59f3298 	ldr	r3, [pc, #664]	; 344c <hw_dram_Init_mobile_ddr_mt46h32m16lf_5_regs_3_160MHz+0x2ac>
    31b0:	e50b3008 	str	r3, [fp, #-8]
    31b4:	e51b3008 	ldr	r3, [fp, #-8]
    31b8:	e59f2290 	ldr	r2, [pc, #656]	; 3450 <hw_dram_Init_mobile_ddr_mt46h32m16lf_5_regs_3_160MHz+0x2b0>
    31bc:	e5832000 	str	r2, [r3]
    31c0:	e51b3008 	ldr	r3, [fp, #-8]
    31c4:	e2833004 	add	r3, r3, #4
    31c8:	e59f2284 	ldr	r2, [pc, #644]	; 3454 <hw_dram_Init_mobile_ddr_mt46h32m16lf_5_regs_3_160MHz+0x2b4>
    31cc:	e5832000 	str	r2, [r3]
    31d0:	e51b3008 	ldr	r3, [fp, #-8]
    31d4:	e2833008 	add	r3, r3, #8
    31d8:	e59f2278 	ldr	r2, [pc, #632]	; 3458 <hw_dram_Init_mobile_ddr_mt46h32m16lf_5_regs_3_160MHz+0x2b8>
    31dc:	e5832000 	str	r2, [r3]
    31e0:	e51b3008 	ldr	r3, [fp, #-8]
    31e4:	e283300c 	add	r3, r3, #12
    31e8:	e3a02001 	mov	r2, #1
    31ec:	e5832000 	str	r2, [r3]
    31f0:	e51b3008 	ldr	r3, [fp, #-8]
    31f4:	e2833010 	add	r3, r3, #16
    31f8:	e59f225c 	ldr	r2, [pc, #604]	; 345c <hw_dram_Init_mobile_ddr_mt46h32m16lf_5_regs_3_160MHz+0x2bc>
    31fc:	e5832000 	str	r2, [r3]
    3200:	e51b3008 	ldr	r3, [fp, #-8]
    3204:	e2833014 	add	r3, r3, #20
    3208:	e3a02001 	mov	r2, #1
    320c:	e5832000 	str	r2, [r3]
    3210:	e51b3008 	ldr	r3, [fp, #-8]
    3214:	e2833018 	add	r3, r3, #24
    3218:	e3a02801 	mov	r2, #65536	; 0x10000
    321c:	e5832000 	str	r2, [r3]
    3220:	e51b3008 	ldr	r3, [fp, #-8]
    3224:	e283301c 	add	r3, r3, #28
    3228:	e59f2228 	ldr	r2, [pc, #552]	; 3458 <hw_dram_Init_mobile_ddr_mt46h32m16lf_5_regs_3_160MHz+0x2b8>
    322c:	e5832000 	str	r2, [r3]
    3230:	e51b3008 	ldr	r3, [fp, #-8]
    3234:	e2833020 	add	r3, r3, #32
    3238:	e3a02401 	mov	r2, #16777216	; 0x1000000
    323c:	e5832000 	str	r2, [r3]
    3240:	e51b3008 	ldr	r3, [fp, #-8]
    3244:	e2833024 	add	r3, r3, #36	; 0x24
    3248:	e3a02001 	mov	r2, #1
    324c:	e5832000 	str	r2, [r3]
    3250:	e51b3008 	ldr	r3, [fp, #-8]
    3254:	e2833028 	add	r3, r3, #40	; 0x28
    3258:	e59f2200 	ldr	r2, [pc, #512]	; 3460 <hw_dram_Init_mobile_ddr_mt46h32m16lf_5_regs_3_160MHz+0x2c0>
    325c:	e5832000 	str	r2, [r3]
    3260:	e51b3008 	ldr	r3, [fp, #-8]
    3264:	e283302c 	add	r3, r3, #44	; 0x2c
    3268:	e59f21f4 	ldr	r2, [pc, #500]	; 3464 <hw_dram_Init_mobile_ddr_mt46h32m16lf_5_regs_3_160MHz+0x2c4>
    326c:	e5832000 	str	r2, [r3]
    3270:	e51b3008 	ldr	r3, [fp, #-8]
    3274:	e2833030 	add	r3, r3, #48	; 0x30
    3278:	e59f21e8 	ldr	r2, [pc, #488]	; 3468 <hw_dram_Init_mobile_ddr_mt46h32m16lf_5_regs_3_160MHz+0x2c8>
    327c:	e5832000 	str	r2, [r3]
    3280:	e51b3008 	ldr	r3, [fp, #-8]
    3284:	e2833034 	add	r3, r3, #52	; 0x34
    3288:	e59f21dc 	ldr	r2, [pc, #476]	; 346c <hw_dram_Init_mobile_ddr_mt46h32m16lf_5_regs_3_160MHz+0x2cc>
    328c:	e5832000 	str	r2, [r3]
    3290:	e51b3008 	ldr	r3, [fp, #-8]
    3294:	e2833038 	add	r3, r3, #56	; 0x38
    3298:	e59f21d0 	ldr	r2, [pc, #464]	; 3470 <hw_dram_Init_mobile_ddr_mt46h32m16lf_5_regs_3_160MHz+0x2d0>
    329c:	e5832000 	str	r2, [r3]
    32a0:	e51b3008 	ldr	r3, [fp, #-8]
    32a4:	e283303c 	add	r3, r3, #60	; 0x3c
    32a8:	e59f21c4 	ldr	r2, [pc, #452]	; 3474 <hw_dram_Init_mobile_ddr_mt46h32m16lf_5_regs_3_160MHz+0x2d4>
    32ac:	e5832000 	str	r2, [r3]
    32b0:	e51b3008 	ldr	r3, [fp, #-8]
    32b4:	e2833040 	add	r3, r3, #64	; 0x40
    32b8:	e3a02402 	mov	r2, #33554432	; 0x2000000
    32bc:	e5832000 	str	r2, [r3]
    32c0:	e51b3008 	ldr	r3, [fp, #-8]
    32c4:	e2833044 	add	r3, r3, #68	; 0x44
    32c8:	e59f21a8 	ldr	r2, [pc, #424]	; 3478 <hw_dram_Init_mobile_ddr_mt46h32m16lf_5_regs_3_160MHz+0x2d8>
    32cc:	e5832000 	str	r2, [r3]
    32d0:	e51b3008 	ldr	r3, [fp, #-8]
    32d4:	e2833048 	add	r3, r3, #72	; 0x48
    32d8:	e59f219c 	ldr	r2, [pc, #412]	; 347c <hw_dram_Init_mobile_ddr_mt46h32m16lf_5_regs_3_160MHz+0x2dc>
    32dc:	e5832000 	str	r2, [r3]
    32e0:	e51b3008 	ldr	r3, [fp, #-8]
    32e4:	e283304c 	add	r3, r3, #76	; 0x4c
    32e8:	e59f2190 	ldr	r2, [pc, #400]	; 3480 <hw_dram_Init_mobile_ddr_mt46h32m16lf_5_regs_3_160MHz+0x2e0>
    32ec:	e5832000 	str	r2, [r3]
    32f0:	e51b3008 	ldr	r3, [fp, #-8]
    32f4:	e2833050 	add	r3, r3, #80	; 0x50
    32f8:	e59f2184 	ldr	r2, [pc, #388]	; 3484 <hw_dram_Init_mobile_ddr_mt46h32m16lf_5_regs_3_160MHz+0x2e4>
    32fc:	e5832000 	str	r2, [r3]
    3300:	e51b3008 	ldr	r3, [fp, #-8]
    3304:	e2833054 	add	r3, r3, #84	; 0x54
    3308:	e3a02010 	mov	r2, #16
    330c:	e5832000 	str	r2, [r3]
    3310:	e51b3008 	ldr	r3, [fp, #-8]
    3314:	e2833058 	add	r3, r3, #88	; 0x58
    3318:	e59f2168 	ldr	r2, [pc, #360]	; 3488 <hw_dram_Init_mobile_ddr_mt46h32m16lf_5_regs_3_160MHz+0x2e8>
    331c:	e5832000 	str	r2, [r3]
    3320:	e51b3008 	ldr	r3, [fp, #-8]
    3324:	e283305c 	add	r3, r3, #92	; 0x5c
    3328:	e59f215c 	ldr	r2, [pc, #348]	; 348c <hw_dram_Init_mobile_ddr_mt46h32m16lf_5_regs_3_160MHz+0x2ec>
    332c:	e5832000 	str	r2, [r3]
    3330:	e51b3008 	ldr	r3, [fp, #-8]
    3334:	e2833060 	add	r3, r3, #96	; 0x60
    3338:	e59f214c 	ldr	r2, [pc, #332]	; 348c <hw_dram_Init_mobile_ddr_mt46h32m16lf_5_regs_3_160MHz+0x2ec>
    333c:	e5832000 	str	r2, [r3]
    3340:	e51b3008 	ldr	r3, [fp, #-8]
    3344:	e2833064 	add	r3, r3, #100	; 0x64
    3348:	e59f213c 	ldr	r2, [pc, #316]	; 348c <hw_dram_Init_mobile_ddr_mt46h32m16lf_5_regs_3_160MHz+0x2ec>
    334c:	e5832000 	str	r2, [r3]
    3350:	e51b3008 	ldr	r3, [fp, #-8]
    3354:	e2833068 	add	r3, r3, #104	; 0x68
    3358:	e59f2130 	ldr	r2, [pc, #304]	; 3490 <hw_dram_Init_mobile_ddr_mt46h32m16lf_5_regs_3_160MHz+0x2f0>
    335c:	e5832000 	str	r2, [r3]
    3360:	e51b3008 	ldr	r3, [fp, #-8]
    3364:	e283306c 	add	r3, r3, #108	; 0x6c
    3368:	e3a02000 	mov	r2, #0
    336c:	e5832000 	str	r2, [r3]
    3370:	e51b3008 	ldr	r3, [fp, #-8]
    3374:	e2833070 	add	r3, r3, #112	; 0x70
    3378:	e3a02000 	mov	r2, #0
    337c:	e5832000 	str	r2, [r3]
    3380:	e51b3008 	ldr	r3, [fp, #-8]
    3384:	e2833074 	add	r3, r3, #116	; 0x74
    3388:	e3a02000 	mov	r2, #0
    338c:	e5832000 	str	r2, [r3]
    3390:	e51b3008 	ldr	r3, [fp, #-8]
    3394:	e2833078 	add	r3, r3, #120	; 0x78
    3398:	e3a02000 	mov	r2, #0
    339c:	e5832000 	str	r2, [r3]
    33a0:	e51b3008 	ldr	r3, [fp, #-8]
    33a4:	e283307c 	add	r3, r3, #124	; 0x7c
    33a8:	e3a02000 	mov	r2, #0
    33ac:	e5832000 	str	r2, [r3]
    33b0:	e51b3008 	ldr	r3, [fp, #-8]
    33b4:	e2833080 	add	r3, r3, #128	; 0x80
    33b8:	e59f20d4 	ldr	r2, [pc, #212]	; 3494 <hw_dram_Init_mobile_ddr_mt46h32m16lf_5_regs_3_160MHz+0x2f4>
    33bc:	e5832000 	str	r2, [r3]
    33c0:	e51b3008 	ldr	r3, [fp, #-8]
    33c4:	e2833084 	add	r3, r3, #132	; 0x84
    33c8:	e3a02016 	mov	r2, #22
    33cc:	e5832000 	str	r2, [r3]
    33d0:	e51b3008 	ldr	r3, [fp, #-8]
    33d4:	e2833088 	add	r3, r3, #136	; 0x88
    33d8:	e3a02c7d 	mov	r2, #32000	; 0x7d00
    33dc:	e5832000 	str	r2, [r3]
    33e0:	e51b3008 	ldr	r3, [fp, #-8]
    33e4:	e283308c 	add	r3, r3, #140	; 0x8c
    33e8:	e3a02000 	mov	r2, #0
    33ec:	e5832000 	str	r2, [r3]
    33f0:	e51b3008 	ldr	r3, [fp, #-8]
    33f4:	e2833090 	add	r3, r3, #144	; 0x90
    33f8:	e59f205c 	ldr	r2, [pc, #92]	; 345c <hw_dram_Init_mobile_ddr_mt46h32m16lf_5_regs_3_160MHz+0x2bc>
    33fc:	e5832000 	str	r2, [r3]
    3400:	e51b3008 	ldr	r3, [fp, #-8]
    3404:	e2833094 	add	r3, r3, #148	; 0x94
    3408:	e59f2088 	ldr	r2, [pc, #136]	; 3498 <hw_dram_Init_mobile_ddr_mt46h32m16lf_5_regs_3_160MHz+0x2f8>
    340c:	e5832000 	str	r2, [r3]
    3410:	e51b3008 	ldr	r3, [fp, #-8]
    3414:	e2833098 	add	r3, r3, #152	; 0x98
    3418:	e59f207c 	ldr	r2, [pc, #124]	; 349c <hw_dram_Init_mobile_ddr_mt46h32m16lf_5_regs_3_160MHz+0x2fc>
    341c:	e5832000 	str	r2, [r3]
    3420:	e51b3008 	ldr	r3, [fp, #-8]
    3424:	e283309c 	add	r3, r3, #156	; 0x9c
    3428:	e59f2070 	ldr	r2, [pc, #112]	; 34a0 <hw_dram_Init_mobile_ddr_mt46h32m16lf_5_regs_3_160MHz+0x300>
    342c:	e5832000 	str	r2, [r3]
    3430:	e51b3008 	ldr	r3, [fp, #-8]
    3434:	e28330a0 	add	r3, r3, #160	; 0xa0
    3438:	e59f2064 	ldr	r2, [pc, #100]	; 34a4 <hw_dram_Init_mobile_ddr_mt46h32m16lf_5_regs_3_160MHz+0x304>
    343c:	e5832000 	str	r2, [r3]
    3440:	e28bd000 	add	sp, fp, #0
    3444:	e49db004 	pop	{fp}		; (ldr fp, [sp], #4)
    3448:	e12fff1e 	bx	lr
    344c:	800e0000 	andhi	r0, lr, r0
    3450:	01010001 	tsteq	r1, r1
    3454:	00010100 	andeq	r0, r1, r0, lsl #2
    3458:	01000101 	tsteq	r0, r1, lsl #2
    345c:	00000101 	andeq	r0, r0, r1, lsl #2
    3460:	07000200 	streq	r0, [r0, -r0, lsl #4]
    3464:	00070203 	andeq	r0, r7, r3, lsl #4
    3468:	02020001 	andeq	r0, r2, #1
    346c:	06060a03 	streq	r0, [r6], -r3, lsl #20
    3470:	00000201 	andeq	r0, r0, r1, lsl #4
    3474:	03050000 	movweq	r0, #20480	; 0x5000
    3478:	2d000d09 	stccs	13, cr0, [r0, #-36]	; 0xffffffdc
    347c:	20200000 	eorcs	r0, r0, r0
    3480:	02020f0f 	andeq	r0, r2, #15, 30	; 0x3c
    3484:	0307121c 	movweq	r1, #29212	; 0x721c
    3488:	00080008 	andeq	r0, r8, r8
    348c:	00200020 	eoreq	r0, r0, r0, lsr #32
    3490:	000004da 	ldrdeq	r0, [r0], -sl
    3494:	00142bb6 			; <UNDEFINED> instruction: 0x00142bb6
    3498:	00040001 	andeq	r0, r4, r1
    349c:	00400162 	subeq	r0, r0, r2, ror #2
    34a0:	00400040 	subeq	r0, r0, r0, asr #32
    34a4:	00020040 	andeq	r0, r2, r0, asr #32

000034a8 <hw_digctl_GetCurrentTime>:
    34a8:	e52db004 	push	{fp}		; (str fp, [sp, #-4]!)
    34ac:	e28db000 	add	fp, sp, #0
    34b0:	e59f3010 	ldr	r3, [pc, #16]	; 34c8 <hw_digctl_GetCurrentTime+0x20>
    34b4:	e5933000 	ldr	r3, [r3]
    34b8:	e1a00003 	mov	r0, r3
    34bc:	e28bd000 	add	sp, fp, #0
    34c0:	e49db004 	pop	{fp}		; (ldr fp, [sp], #4)
    34c4:	e12fff1e 	bx	lr
    34c8:	8001c0c0 	andhi	ip, r1, r0, asr #1

000034cc <ddi_emi_ExitStaticSelfRefreshMode>:
    34cc:	e92d4800 	push	{fp, lr}
    34d0:	e28db004 	add	fp, sp, #4
    34d4:	e24dd008 	sub	sp, sp, #8
    34d8:	e3a00000 	mov	r0, #0
    34dc:	eb000042 	bl	35ec <hw_emi_EnterMemorySelfRefreshMode>
    34e0:	ebfffff0 	bl	34a8 <hw_digctl_GetCurrentTime>
    34e4:	e50b0008 	str	r0, [fp, #-8]
    34e8:	ea000007 	b	350c <ddi_emi_ExitStaticSelfRefreshMode+0x40>
    34ec:	e51b0008 	ldr	r0, [fp, #-8]
    34f0:	e3a01ffa 	mov	r1, #1000	; 0x3e8
    34f4:	eb00000d 	bl	3530 <hw_digctl_CheckTimeOut>
    34f8:	e1a03000 	mov	r3, r0
    34fc:	e3530000 	cmp	r3, #0
    3500:	0a000001 	beq	350c <ddi_emi_ExitStaticSelfRefreshMode+0x40>
    3504:	e59f3020 	ldr	r3, [pc, #32]	; 352c <ddi_emi_ExitStaticSelfRefreshMode+0x60>
    3508:	ea000004 	b	3520 <ddi_emi_ExitStaticSelfRefreshMode+0x54>
    350c:	ebfff751 	bl	1258 <hw_emi_IsControllerHalted>
    3510:	e1a03000 	mov	r3, r0
    3514:	e3530000 	cmp	r3, #0
    3518:	1afffff3 	bne	34ec <ddi_emi_ExitStaticSelfRefreshMode+0x20>
    351c:	e3a03000 	mov	r3, #0
    3520:	e1a00003 	mov	r0, r3
    3524:	e24bd004 	sub	sp, fp, #4
    3528:	e8bd8800 	pop	{fp, pc}
    352c:	f0224002 			; <UNDEFINED> instruction: 0xf0224002

00003530 <hw_digctl_CheckTimeOut>:
    3530:	e52db004 	push	{fp}		; (str fp, [sp, #-4]!)
    3534:	e28db000 	add	fp, sp, #0
    3538:	e24dd01c 	sub	sp, sp, #28
    353c:	e50b0018 	str	r0, [fp, #-24]	; 0xffffffe8
    3540:	e50b101c 	str	r1, [fp, #-28]	; 0xffffffe4
    3544:	e59f309c 	ldr	r3, [pc, #156]	; 35e8 <hw_digctl_CheckTimeOut+0xb8>
    3548:	e5933000 	ldr	r3, [r3]
    354c:	e50b300c 	str	r3, [fp, #-12]
    3550:	e51b2018 	ldr	r2, [fp, #-24]	; 0xffffffe8
    3554:	e51b301c 	ldr	r3, [fp, #-28]	; 0xffffffe4
    3558:	e0823003 	add	r3, r2, r3
    355c:	e50b3010 	str	r3, [fp, #-16]
    3560:	e51b2018 	ldr	r2, [fp, #-24]	; 0xffffffe8
    3564:	e51b3010 	ldr	r3, [fp, #-16]
    3568:	e1520003 	cmp	r2, r3
    356c:	8a00000c 	bhi	35a4 <hw_digctl_CheckTimeOut+0x74>
    3570:	e51b200c 	ldr	r2, [fp, #-12]
    3574:	e51b3018 	ldr	r3, [fp, #-24]	; 0xffffffe8
    3578:	e1520003 	cmp	r2, r3
    357c:	3a000003 	bcc	3590 <hw_digctl_CheckTimeOut+0x60>
    3580:	e51b200c 	ldr	r2, [fp, #-12]
    3584:	e51b3010 	ldr	r3, [fp, #-16]
    3588:	e1520003 	cmp	r2, r3
    358c:	3a000001 	bcc	3598 <hw_digctl_CheckTimeOut+0x68>
    3590:	e3a03001 	mov	r3, #1
    3594:	ea000000 	b	359c <hw_digctl_CheckTimeOut+0x6c>
    3598:	e3a03000 	mov	r3, #0
    359c:	e50b3008 	str	r3, [fp, #-8]
    35a0:	ea00000b 	b	35d4 <hw_digctl_CheckTimeOut+0xa4>
    35a4:	e51b200c 	ldr	r2, [fp, #-12]
    35a8:	e51b3018 	ldr	r3, [fp, #-24]	; 0xffffffe8
    35ac:	e1520003 	cmp	r2, r3
    35b0:	2a000005 	bcs	35cc <hw_digctl_CheckTimeOut+0x9c>
    35b4:	e51b200c 	ldr	r2, [fp, #-12]
    35b8:	e51b3010 	ldr	r3, [fp, #-16]
    35bc:	e1520003 	cmp	r2, r3
    35c0:	3a000001 	bcc	35cc <hw_digctl_CheckTimeOut+0x9c>
    35c4:	e3a03001 	mov	r3, #1
    35c8:	ea000000 	b	35d0 <hw_digctl_CheckTimeOut+0xa0>
    35cc:	e3a03000 	mov	r3, #0
    35d0:	e50b3008 	str	r3, [fp, #-8]
    35d4:	e51b3008 	ldr	r3, [fp, #-8]
    35d8:	e1a00003 	mov	r0, r3
    35dc:	e28bd000 	add	sp, fp, #0
    35e0:	e49db004 	pop	{fp}		; (ldr fp, [sp], #4)
    35e4:	e12fff1e 	bx	lr
    35e8:	8001c0c0 	andhi	ip, r1, r0, asr #1

000035ec <hw_emi_EnterMemorySelfRefreshMode>:
    35ec:	e52db004 	push	{fp}		; (str fp, [sp, #-4]!)
    35f0:	e28db000 	add	fp, sp, #0
    35f4:	e24dd00c 	sub	sp, sp, #12
    35f8:	e50b0008 	str	r0, [fp, #-8]
    35fc:	e51b3008 	ldr	r3, [fp, #-8]
    3600:	e3530000 	cmp	r3, #0
    3604:	0a000005 	beq	3620 <hw_emi_EnterMemorySelfRefreshMode+0x34>
    3608:	e59f3030 	ldr	r3, [pc, #48]	; 3640 <hw_emi_EnterMemorySelfRefreshMode+0x54>
    360c:	e59f202c 	ldr	r2, [pc, #44]	; 3640 <hw_emi_EnterMemorySelfRefreshMode+0x54>
    3610:	e5922000 	ldr	r2, [r2]
    3614:	e3822802 	orr	r2, r2, #131072	; 0x20000
    3618:	e5832000 	str	r2, [r3]
    361c:	ea000004 	b	3634 <hw_emi_EnterMemorySelfRefreshMode+0x48>
    3620:	e59f3018 	ldr	r3, [pc, #24]	; 3640 <hw_emi_EnterMemorySelfRefreshMode+0x54>
    3624:	e59f2014 	ldr	r2, [pc, #20]	; 3640 <hw_emi_EnterMemorySelfRefreshMode+0x54>
    3628:	e5922000 	ldr	r2, [r2]
    362c:	e3c22802 	bic	r2, r2, #131072	; 0x20000
    3630:	e5832000 	str	r2, [r3]
    3634:	e28bd000 	add	sp, fp, #0
    3638:	e49db004 	pop	{fp}		; (ldr fp, [sp], #4)
    363c:	e12fff1e 	bx	lr
    3640:	800e0040 	andhi	r0, lr, r0, asr #32

00003644 <hw_emi_SetMemorySelfRefeshAutoFlag>:
    3644:	e52db004 	push	{fp}		; (str fp, [sp, #-4]!)
    3648:	e28db000 	add	fp, sp, #0
    364c:	e24dd00c 	sub	sp, sp, #12
    3650:	e50b0008 	str	r0, [fp, #-8]
    3654:	e51b3008 	ldr	r3, [fp, #-8]
    3658:	e3530000 	cmp	r3, #0
    365c:	0a00000e 	beq	369c <hw_emi_SetMemorySelfRefeshAutoFlag+0x58>
    3660:	e59f3054 	ldr	r3, [pc, #84]	; 36bc <hw_emi_SetMemorySelfRefeshAutoFlag+0x78>
    3664:	e1d330b0 	ldrh	r3, [r3]
    3668:	e1a03803 	lsl	r3, r3, #16
    366c:	e1a03823 	lsr	r3, r3, #16
    3670:	e3530000 	cmp	r3, #0
    3674:	1a000002 	bne	3684 <hw_emi_SetMemorySelfRefeshAutoFlag+0x40>
    3678:	e59f303c 	ldr	r3, [pc, #60]	; 36bc <hw_emi_SetMemorySelfRefeshAutoFlag+0x78>
    367c:	e3a02040 	mov	r2, #64	; 0x40
    3680:	e1c320b0 	strh	r2, [r3]
    3684:	e59f3034 	ldr	r3, [pc, #52]	; 36c0 <hw_emi_SetMemorySelfRefeshAutoFlag+0x7c>
    3688:	e59f2030 	ldr	r2, [pc, #48]	; 36c0 <hw_emi_SetMemorySelfRefeshAutoFlag+0x7c>
    368c:	e5922000 	ldr	r2, [r2]
    3690:	e3822c02 	orr	r2, r2, #512	; 0x200
    3694:	e5832000 	str	r2, [r3]
    3698:	ea000004 	b	36b0 <hw_emi_SetMemorySelfRefeshAutoFlag+0x6c>
    369c:	e59f301c 	ldr	r3, [pc, #28]	; 36c0 <hw_emi_SetMemorySelfRefeshAutoFlag+0x7c>
    36a0:	e59f2018 	ldr	r2, [pc, #24]	; 36c0 <hw_emi_SetMemorySelfRefeshAutoFlag+0x7c>
    36a4:	e5922000 	ldr	r2, [r2]
    36a8:	e3c22c02 	bic	r2, r2, #512	; 0x200
    36ac:	e5832000 	str	r2, [r3]
    36b0:	e28bd000 	add	sp, fp, #0
    36b4:	e49db004 	pop	{fp}		; (ldr fp, [sp], #4)
    36b8:	e12fff1e 	bx	lr
    36bc:	800e0074 	andhi	r0, lr, r4, ror r0
    36c0:	800e0040 	andhi	r0, lr, r0, asr #32

000036c4 <InitDebugSerial>:
    36c4:	e52db004 	push	{fp}		; (str fp, [sp, #-4]!)
    36c8:	e28db000 	add	fp, sp, #0
    36cc:	e24dd00c 	sub	sp, sp, #12
    36d0:	e59f30d8 	ldr	r3, [pc, #216]	; 37b0 <InitDebugSerial+0xec>
    36d4:	e3a02000 	mov	r2, #0
    36d8:	e5832000 	str	r2, [r3]
    36dc:	e59f30d0 	ldr	r3, [pc, #208]	; 37b4 <InitDebugSerial+0xf0>
    36e0:	e3a02103 	mov	r2, #-1073741824	; 0xc0000000
    36e4:	e5832000 	str	r2, [r3]
    36e8:	e59f30c8 	ldr	r3, [pc, #200]	; 37b8 <InitDebugSerial+0xf4>
    36ec:	e3a0260f 	mov	r2, #15728640	; 0xf00000
    36f0:	e5832000 	str	r2, [r3]
    36f4:	e59f30c0 	ldr	r3, [pc, #192]	; 37bc <InitDebugSerial+0xf8>
    36f8:	e3a02501 	mov	r2, #4194304	; 0x400000
    36fc:	e5832000 	str	r2, [r3]
    3700:	e59f30b4 	ldr	r3, [pc, #180]	; 37bc <InitDebugSerial+0xf8>
    3704:	e3a02601 	mov	r2, #1048576	; 0x100000
    3708:	e5832000 	str	r2, [r3]
    370c:	e59f20ac 	ldr	r2, [pc, #172]	; 37c0 <InitDebugSerial+0xfc>
    3710:	e59f30a8 	ldr	r3, [pc, #168]	; 37c0 <InitDebugSerial+0xfc>
    3714:	e5933000 	ldr	r3, [r3]
    3718:	e1a03823 	lsr	r3, r3, #16
    371c:	e1a03803 	lsl	r3, r3, #16
    3720:	e383300d 	orr	r3, r3, #13
    3724:	e5823000 	str	r3, [r2]
    3728:	e59f2094 	ldr	r2, [pc, #148]	; 37c4 <InitDebugSerial+0x100>
    372c:	e59f3090 	ldr	r3, [pc, #144]	; 37c4 <InitDebugSerial+0x100>
    3730:	e5933000 	ldr	r3, [r3]
    3734:	e3c33fff 	bic	r3, r3, #1020	; 0x3fc
    3738:	e3c33003 	bic	r3, r3, #3
    373c:	e3833d0d 	orr	r3, r3, #832	; 0x340
    3740:	e3833001 	orr	r3, r3, #1
    3744:	e5823000 	str	r3, [r2]
    3748:	e59f3078 	ldr	r3, [pc, #120]	; 37c8 <InitDebugSerial+0x104>
    374c:	e3a02070 	mov	r2, #112	; 0x70
    3750:	e5832000 	str	r2, [r3]
    3754:	ea000002 	b	3764 <InitDebugSerial+0xa0>
    3758:	e59f306c 	ldr	r3, [pc, #108]	; 37cc <InitDebugSerial+0x108>
    375c:	e5933000 	ldr	r3, [r3]
    3760:	e50b3008 	str	r3, [fp, #-8]
    3764:	e59f3064 	ldr	r3, [pc, #100]	; 37d0 <InitDebugSerial+0x10c>
    3768:	e5933000 	ldr	r3, [r3]
    376c:	e2033010 	and	r3, r3, #16
    3770:	e3530000 	cmp	r3, #0
    3774:	0afffff7 	beq	3758 <InitDebugSerial+0x94>
    3778:	e59f3054 	ldr	r3, [pc, #84]	; 37d4 <InitDebugSerial+0x110>
    377c:	e59f2050 	ldr	r2, [pc, #80]	; 37d4 <InitDebugSerial+0x110>
    3780:	e5922000 	ldr	r2, [r2]
    3784:	e38220f0 	orr	r2, r2, #240	; 0xf0
    3788:	e5832000 	str	r2, [r3]
    378c:	e59f3044 	ldr	r3, [pc, #68]	; 37d8 <InitDebugSerial+0x114>
    3790:	e3a02009 	mov	r2, #9
    3794:	e5832000 	str	r2, [r3]
    3798:	e59f303c 	ldr	r3, [pc, #60]	; 37dc <InitDebugSerial+0x118>
    379c:	e59f203c 	ldr	r2, [pc, #60]	; 37e0 <InitDebugSerial+0x11c>
    37a0:	e5832000 	str	r2, [r3]
    37a4:	e28bd000 	add	sp, fp, #0
    37a8:	e49db004 	pop	{fp}		; (ldr fp, [sp], #4)
    37ac:	e12fff1e 	bx	lr
    37b0:	80070038 	andhi	r0, r7, r8, lsr r0
    37b4:	80018008 	andhi	r8, r1, r8
    37b8:	80018134 	andhi	r8, r1, r4, lsr r1
    37bc:	80018138 	andhi	r8, r1, r8, lsr r1
    37c0:	80070024 	andhi	r0, r7, r4, lsr #32
    37c4:	80070028 	andhi	r0, r7, r8, lsr #32
    37c8:	8007002c 	andhi	r0, r7, ip, lsr #32
    37cc:	80070000 	andhi	r0, r7, r0
    37d0:	80070018 	andhi	r0, r7, r8, lsl r0
    37d4:	80070004 	andhi	r0, r7, r4
    37d8:	80070034 	andhi	r0, r7, r4, lsr r0
    37dc:	80070030 	andhi	r0, r7, r0, lsr r0
    37e0:	00000301 	andeq	r0, r0, r1, lsl #6

000037e4 <OEMWriteDebugByte>:
    37e4:	e52db004 	push	{fp}		; (str fp, [sp, #-4]!)
    37e8:	e28db000 	add	fp, sp, #0
    37ec:	e24dd014 	sub	sp, sp, #20
    37f0:	e1a03000 	mov	r3, r0
    37f4:	e54b300d 	strb	r3, [fp, #-13]
    37f8:	e3a03000 	mov	r3, #0
    37fc:	e50b3008 	str	r3, [fp, #-8]
    3800:	ea000002 	b	3810 <OEMWriteDebugByte+0x2c>
    3804:	e51b3008 	ldr	r3, [fp, #-8]
    3808:	e2833001 	add	r3, r3, #1
    380c:	e50b3008 	str	r3, [fp, #-8]
    3810:	e59f3048 	ldr	r3, [pc, #72]	; 3860 <OEMWriteDebugByte+0x7c>
    3814:	e5933000 	ldr	r3, [r3]
    3818:	e2033020 	and	r3, r3, #32
    381c:	e3530000 	cmp	r3, #0
    3820:	0a000003 	beq	3834 <OEMWriteDebugByte+0x50>
    3824:	e51b2008 	ldr	r2, [fp, #-8]
    3828:	e59f3034 	ldr	r3, [pc, #52]	; 3864 <OEMWriteDebugByte+0x80>
    382c:	e1520003 	cmp	r2, r3
    3830:	9afffff3 	bls	3804 <OEMWriteDebugByte+0x20>
    3834:	e59f3024 	ldr	r3, [pc, #36]	; 3860 <OEMWriteDebugByte+0x7c>
    3838:	e5933000 	ldr	r3, [r3]
    383c:	e2033020 	and	r3, r3, #32
    3840:	e3530000 	cmp	r3, #0
    3844:	1a000002 	bne	3854 <OEMWriteDebugByte+0x70>
    3848:	e59f3018 	ldr	r3, [pc, #24]	; 3868 <OEMWriteDebugByte+0x84>
    384c:	e55b200d 	ldrb	r2, [fp, #-13]
    3850:	e5c32000 	strb	r2, [r3]
    3854:	e28bd000 	add	sp, fp, #0
    3858:	e49db004 	pop	{fp}		; (ldr fp, [sp], #4)
    385c:	e12fff1e 	bx	lr
    3860:	80070018 	andhi	r0, r7, r8, lsl r0
    3864:	00007ffe 	strdeq	r7, [r0], -lr
    3868:	80070000 	andhi	r0, r7, r0

0000386c <InitPower>:
    386c:	e92d4800 	push	{fp, lr}
    3870:	e28db004 	add	fp, sp, #4
    3874:	e24dd010 	sub	sp, sp, #16
    3878:	e3a03000 	mov	r3, #0
    387c:	e50b3008 	str	r3, [fp, #-8]
    3880:	e3a03000 	mov	r3, #0
    3884:	e50b300c 	str	r3, [fp, #-12]
    3888:	e3a03000 	mov	r3, #0
    388c:	e50b3010 	str	r3, [fp, #-16]
    3890:	e3a03000 	mov	r3, #0
    3894:	e50b3014 	str	r3, [fp, #-20]	; 0xffffffec
    3898:	e59f3694 	ldr	r3, [pc, #1684]	; 3f34 <InitPower+0x6c8>
    389c:	e3a02000 	mov	r2, #0
    38a0:	e5832000 	str	r2, [r3]
    38a4:	e59f368c 	ldr	r3, [pc, #1676]	; 3f38 <InitPower+0x6cc>
    38a8:	e3a02000 	mov	r2, #0
    38ac:	e5832000 	str	r2, [r3]
    38b0:	e59f3684 	ldr	r3, [pc, #1668]	; 3f3c <InitPower+0x6d0>
    38b4:	e3a02000 	mov	r2, #0
    38b8:	e5832000 	str	r2, [r3]
    38bc:	e59f367c 	ldr	r3, [pc, #1660]	; 3f40 <InitPower+0x6d4>
    38c0:	e59f2678 	ldr	r2, [pc, #1656]	; 3f40 <InitPower+0x6d4>
    38c4:	e5922000 	ldr	r2, [r2]
    38c8:	e3c2201f 	bic	r2, r2, #31
    38cc:	e382200c 	orr	r2, r2, #12
    38d0:	e5832000 	str	r2, [r3]
    38d4:	e3a0000f 	mov	r0, #15
    38d8:	eb000348 	bl	4600 <OALStall>
    38dc:	e1a00000 	nop			; (mov r0, r0)
    38e0:	e59f365c 	ldr	r3, [pc, #1628]	; 3f44 <InitPower+0x6d8>
    38e4:	e5933000 	ldr	r3, [r3]
    38e8:	e2033c02 	and	r3, r3, #512	; 0x200
    38ec:	e3530000 	cmp	r3, #0
    38f0:	0afffffa 	beq	38e0 <InitPower+0x74>
    38f4:	e59f3644 	ldr	r3, [pc, #1604]	; 3f40 <InitPower+0x6d4>
    38f8:	e59f2640 	ldr	r2, [pc, #1600]	; 3f40 <InitPower+0x6d4>
    38fc:	e5922000 	ldr	r2, [r2]
    3900:	e3c22c07 	bic	r2, r2, #1792	; 0x700
    3904:	e3822b01 	orr	r2, r2, #1024	; 0x400
    3908:	e5832000 	str	r2, [r3]
    390c:	e59f3634 	ldr	r3, [pc, #1588]	; 3f48 <InitPower+0x6dc>
    3910:	e59f2630 	ldr	r2, [pc, #1584]	; 3f48 <InitPower+0x6dc>
    3914:	e5922000 	ldr	r2, [r2]
    3918:	e3c2201f 	bic	r2, r2, #31
    391c:	e3822014 	orr	r2, r2, #20
    3920:	e5832000 	str	r2, [r3]
    3924:	e3a0000f 	mov	r0, #15
    3928:	eb000334 	bl	4600 <OALStall>
    392c:	e1a00000 	nop			; (mov r0, r0)
    3930:	e59f360c 	ldr	r3, [pc, #1548]	; 3f44 <InitPower+0x6d8>
    3934:	e5933000 	ldr	r3, [r3]
    3938:	e2033c02 	and	r3, r3, #512	; 0x200
    393c:	e3530000 	cmp	r3, #0
    3940:	0afffffa 	beq	3930 <InitPower+0xc4>
    3944:	e59f35fc 	ldr	r3, [pc, #1532]	; 3f48 <InitPower+0x6dc>
    3948:	e59f25f8 	ldr	r2, [pc, #1528]	; 3f48 <InitPower+0x6dc>
    394c:	e5922000 	ldr	r2, [r2]
    3950:	e3c22c07 	bic	r2, r2, #1792	; 0x700
    3954:	e3822b01 	orr	r2, r2, #1024	; 0x400
    3958:	e5832000 	str	r2, [r3]
    395c:	e59f35e8 	ldr	r3, [pc, #1512]	; 3f4c <InitPower+0x6e0>
    3960:	e5933000 	ldr	r3, [r3]
    3964:	e2033002 	and	r3, r3, #2
    3968:	e3530000 	cmp	r3, #0
    396c:	1a000002 	bne	397c <InitPower+0x110>
    3970:	e59f35d8 	ldr	r3, [pc, #1496]	; 3f50 <InitPower+0x6e4>
    3974:	e3a02002 	mov	r2, #2
    3978:	e5832000 	str	r2, [r3]
    397c:	e59f35d0 	ldr	r3, [pc, #1488]	; 3f54 <InitPower+0x6e8>
    3980:	e5933000 	ldr	r3, [r3]
    3984:	e59f35c8 	ldr	r3, [pc, #1480]	; 3f54 <InitPower+0x6e8>
    3988:	e5933000 	ldr	r3, [r3]
    398c:	e59f35c4 	ldr	r3, [pc, #1476]	; 3f58 <InitPower+0x6ec>
    3990:	e3a02010 	mov	r2, #16
    3994:	e5832000 	str	r2, [r3]
    3998:	e59f35bc 	ldr	r3, [pc, #1468]	; 3f5c <InitPower+0x6f0>
    399c:	e3a02101 	mov	r2, #1073741824	; 0x40000000
    39a0:	e5832000 	str	r2, [r3]
    39a4:	e59f35b0 	ldr	r3, [pc, #1456]	; 3f5c <InitPower+0x6f0>
    39a8:	e3a02102 	mov	r2, #-2147483648	; 0x80000000
    39ac:	e5832000 	str	r2, [r3]
    39b0:	e59f35a8 	ldr	r3, [pc, #1448]	; 3f60 <InitPower+0x6f4>
    39b4:	e3a02802 	mov	r2, #131072	; 0x20000
    39b8:	e5832000 	str	r2, [r3]
    39bc:	e59f359c 	ldr	r3, [pc, #1436]	; 3f60 <InitPower+0x6f4>
    39c0:	e3a02601 	mov	r2, #1048576	; 0x100000
    39c4:	e5832000 	str	r2, [r3]
    39c8:	e59f3594 	ldr	r3, [pc, #1428]	; 3f64 <InitPower+0x6f8>
    39cc:	e3e02000 	mvn	r2, #0
    39d0:	e5832000 	str	r2, [r3]
    39d4:	e59f358c 	ldr	r3, [pc, #1420]	; 3f68 <InitPower+0x6fc>
    39d8:	e3a02502 	mov	r2, #8388608	; 0x800000
    39dc:	e5832000 	str	r2, [r3]
    39e0:	e59f3584 	ldr	r3, [pc, #1412]	; 3f6c <InitPower+0x700>
    39e4:	e3a02080 	mov	r2, #128	; 0x80
    39e8:	e5832000 	str	r2, [r3]
    39ec:	ea000001 	b	39f8 <InitPower+0x18c>
    39f0:	e3a0002e 	mov	r0, #46	; 0x2e
    39f4:	ebffff7a 	bl	37e4 <OEMWriteDebugByte>
    39f8:	e59f3570 	ldr	r3, [pc, #1392]	; 3f70 <InitPower+0x704>
    39fc:	e5933000 	ldr	r3, [r3]
    3a00:	e2033080 	and	r3, r3, #128	; 0x80
    3a04:	e3530000 	cmp	r3, #0
    3a08:	0afffff8 	beq	39f0 <InitPower+0x184>
    3a0c:	e59f3560 	ldr	r3, [pc, #1376]	; 3f74 <InitPower+0x708>
    3a10:	e5933000 	ldr	r3, [r3]
    3a14:	e2033040 	and	r3, r3, #64	; 0x40
    3a18:	e3530000 	cmp	r3, #0
    3a1c:	0a000002 	beq	3a2c <InitPower+0x1c0>
    3a20:	e59f3510 	ldr	r3, [pc, #1296]	; 3f38 <InitPower+0x6cc>
    3a24:	e3a02001 	mov	r2, #1
    3a28:	e5832000 	str	r2, [r3]
    3a2c:	e59f3544 	ldr	r3, [pc, #1348]	; 3f78 <InitPower+0x70c>
    3a30:	e3a02010 	mov	r2, #16
    3a34:	e5832000 	str	r2, [r3]
    3a38:	e59f3504 	ldr	r3, [pc, #1284]	; 3f44 <InitPower+0x6d8>
    3a3c:	e5933000 	ldr	r3, [r3]
    3a40:	e1a030a3 	lsr	r3, r3, #1
    3a44:	e2033001 	and	r3, r3, #1
    3a48:	e20330ff 	and	r3, r3, #255	; 0xff
    3a4c:	e1a02003 	mov	r2, r3
    3a50:	e59f34e4 	ldr	r3, [pc, #1252]	; 3f3c <InitPower+0x6d0>
    3a54:	e5832000 	str	r2, [r3]
    3a58:	e59f351c 	ldr	r3, [pc, #1308]	; 3f7c <InitPower+0x710>
    3a5c:	e5933000 	ldr	r3, [r3]
    3a60:	e1a03823 	lsr	r3, r3, #16
    3a64:	e1a03b03 	lsl	r3, r3, #22
    3a68:	e1a03b23 	lsr	r3, r3, #22
    3a6c:	e1a03803 	lsl	r3, r3, #16
    3a70:	e1a03823 	lsr	r3, r3, #16
    3a74:	e1a03183 	lsl	r3, r3, #3
    3a78:	e50b3010 	str	r3, [fp, #-16]
    3a7c:	e3a0000d 	mov	r0, #13
    3a80:	ebffff57 	bl	37e4 <OEMWriteDebugByte>
    3a84:	e3a0000a 	mov	r0, #10
    3a88:	ebffff55 	bl	37e4 <OEMWriteDebugByte>
    3a8c:	e3a00042 	mov	r0, #66	; 0x42
    3a90:	ebffff53 	bl	37e4 <OEMWriteDebugByte>
    3a94:	e3a00041 	mov	r0, #65	; 0x41
    3a98:	ebffff51 	bl	37e4 <OEMWriteDebugByte>
    3a9c:	e3a00054 	mov	r0, #84	; 0x54
    3aa0:	ebffff4f 	bl	37e4 <OEMWriteDebugByte>
    3aa4:	e3a00054 	mov	r0, #84	; 0x54
    3aa8:	ebffff4d 	bl	37e4 <OEMWriteDebugByte>
    3aac:	e3a0003a 	mov	r0, #58	; 0x3a
    3ab0:	ebffff4b 	bl	37e4 <OEMWriteDebugByte>
    3ab4:	e51b0010 	ldr	r0, [fp, #-16]
    3ab8:	eb0001fb 	bl	42ac <PrintBatteryVoltage>
    3abc:	e3a0000d 	mov	r0, #13
    3ac0:	ebffff47 	bl	37e4 <OEMWriteDebugByte>
    3ac4:	e3a0000a 	mov	r0, #10
    3ac8:	ebffff45 	bl	37e4 <OEMWriteDebugByte>
    3acc:	e51b2010 	ldr	r2, [fp, #-16]
    3ad0:	e59f34a8 	ldr	r3, [pc, #1192]	; 3f80 <InitPower+0x714>
    3ad4:	e1520003 	cmp	r2, r3
    3ad8:	9a000002 	bls	3ae8 <InitPower+0x27c>
    3adc:	e59f3450 	ldr	r3, [pc, #1104]	; 3f34 <InitPower+0x6c8>
    3ae0:	e3a02001 	mov	r2, #1
    3ae4:	e5832000 	str	r2, [r3]
    3ae8:	e59f3444 	ldr	r3, [pc, #1092]	; 3f34 <InitPower+0x6c8>
    3aec:	e5933000 	ldr	r3, [r3]
    3af0:	e3530001 	cmp	r3, #1
    3af4:	1a000005 	bne	3b10 <InitPower+0x2a4>
    3af8:	e3a00042 	mov	r0, #66	; 0x42
    3afc:	ebffff38 	bl	37e4 <OEMWriteDebugByte>
    3b00:	e3a0000d 	mov	r0, #13
    3b04:	ebffff36 	bl	37e4 <OEMWriteDebugByte>
    3b08:	e3a0000a 	mov	r0, #10
    3b0c:	ebffff34 	bl	37e4 <OEMWriteDebugByte>
    3b10:	e59f3420 	ldr	r3, [pc, #1056]	; 3f38 <InitPower+0x6cc>
    3b14:	e5933000 	ldr	r3, [r3]
    3b18:	e3530001 	cmp	r3, #1
    3b1c:	1a000005 	bne	3b38 <InitPower+0x2cc>
    3b20:	e3a00055 	mov	r0, #85	; 0x55
    3b24:	ebffff2e 	bl	37e4 <OEMWriteDebugByte>
    3b28:	e3a0000d 	mov	r0, #13
    3b2c:	ebffff2c 	bl	37e4 <OEMWriteDebugByte>
    3b30:	e3a0000a 	mov	r0, #10
    3b34:	ebffff2a 	bl	37e4 <OEMWriteDebugByte>
    3b38:	e59f33fc 	ldr	r3, [pc, #1020]	; 3f3c <InitPower+0x6d0>
    3b3c:	e5933000 	ldr	r3, [r3]
    3b40:	e3530001 	cmp	r3, #1
    3b44:	1a000005 	bne	3b60 <InitPower+0x2f4>
    3b48:	e3a00035 	mov	r0, #53	; 0x35
    3b4c:	ebffff24 	bl	37e4 <OEMWriteDebugByte>
    3b50:	e3a0000d 	mov	r0, #13
    3b54:	ebffff22 	bl	37e4 <OEMWriteDebugByte>
    3b58:	e3a0000a 	mov	r0, #10
    3b5c:	ebffff20 	bl	37e4 <OEMWriteDebugByte>
    3b60:	e59f33d0 	ldr	r3, [pc, #976]	; 3f38 <InitPower+0x6cc>
    3b64:	e5933000 	ldr	r3, [r3]
    3b68:	e3530001 	cmp	r3, #1
    3b6c:	1a000005 	bne	3b88 <InitPower+0x31c>
    3b70:	e59f340c 	ldr	r3, [pc, #1036]	; 3f84 <InitPower+0x718>
    3b74:	e3a02a37 	mov	r2, #225280	; 0x37000
    3b78:	e5832000 	str	r2, [r3]
    3b7c:	e59f33cc 	ldr	r3, [pc, #972]	; 3f50 <InitPower+0x6e4>
    3b80:	e3a02902 	mov	r2, #32768	; 0x8000
    3b84:	e5832000 	str	r2, [r3]
    3b88:	e59f33a4 	ldr	r3, [pc, #932]	; 3f34 <InitPower+0x6c8>
    3b8c:	e5933000 	ldr	r3, [r3]
    3b90:	e3530001 	cmp	r3, #1
    3b94:	1a000021 	bne	3c20 <InitPower+0x3b4>
    3b98:	eb000232 	bl	4468 <PowerExecute5VoltsToBatteryHandoff>
    3b9c:	e59f33e4 	ldr	r3, [pc, #996]	; 3f88 <InitPower+0x71c>
    3ba0:	e3a02020 	mov	r2, #32
    3ba4:	e5832000 	str	r2, [r3]
    3ba8:	e59f33dc 	ldr	r3, [pc, #988]	; 3f8c <InitPower+0x720>
    3bac:	e3a02040 	mov	r2, #64	; 0x40
    3bb0:	e5832000 	str	r2, [r3]
    3bb4:	e59f338c 	ldr	r3, [pc, #908]	; 3f48 <InitPower+0x6dc>
    3bb8:	e59f2388 	ldr	r2, [pc, #904]	; 3f48 <InitPower+0x6dc>
    3bbc:	e5922000 	ldr	r2, [r2]
    3bc0:	e3822a02 	orr	r2, r2, #8192	; 0x2000
    3bc4:	e5832000 	str	r2, [r3]
    3bc8:	e59f3370 	ldr	r3, [pc, #880]	; 3f40 <InitPower+0x6d4>
    3bcc:	e59f236c 	ldr	r2, [pc, #876]	; 3f40 <InitPower+0x6d4>
    3bd0:	e5922000 	ldr	r2, [r2]
    3bd4:	e3822a02 	orr	r2, r2, #8192	; 0x2000
    3bd8:	e5832000 	str	r2, [r3]
    3bdc:	e59f33ac 	ldr	r3, [pc, #940]	; 3f90 <InitPower+0x724>
    3be0:	e59f23a8 	ldr	r2, [pc, #936]	; 3f90 <InitPower+0x724>
    3be4:	e5922000 	ldr	r2, [r2]
    3be8:	e3822802 	orr	r2, r2, #131072	; 0x20000
    3bec:	e5832000 	str	r2, [r3]
    3bf0:	e59f3398 	ldr	r3, [pc, #920]	; 3f90 <InitPower+0x724>
    3bf4:	e59f2394 	ldr	r2, [pc, #916]	; 3f90 <InitPower+0x724>
    3bf8:	e5922000 	ldr	r2, [r2]
    3bfc:	e3c22601 	bic	r2, r2, #1048576	; 0x100000
    3c00:	e5832000 	str	r2, [r3]
    3c04:	e59f3344 	ldr	r3, [pc, #836]	; 3f50 <InitPower+0x6e4>
    3c08:	e3a02601 	mov	r2, #1048576	; 0x100000
    3c0c:	e5832000 	str	r2, [r3]
    3c10:	e59f3338 	ldr	r3, [pc, #824]	; 3f50 <InitPower+0x6e4>
    3c14:	e3a02001 	mov	r2, #1
    3c18:	e5832000 	str	r2, [r3]
    3c1c:	eb000297 	bl	4680 <TurnOnPLLClock>
    3c20:	e59f3310 	ldr	r3, [pc, #784]	; 3f38 <InitPower+0x6cc>
    3c24:	e5933000 	ldr	r3, [r3]
    3c28:	e3530001 	cmp	r3, #1
    3c2c:	1a0000be 	bne	3f2c <InitPower+0x6c0>
    3c30:	e59f32fc 	ldr	r3, [pc, #764]	; 3f34 <InitPower+0x6c8>
    3c34:	e5933000 	ldr	r3, [r3]
    3c38:	e3530000 	cmp	r3, #0
    3c3c:	1a0000ba 	bne	3f2c <InitPower+0x6c0>
    3c40:	e59f32f4 	ldr	r3, [pc, #756]	; 3f3c <InitPower+0x6d0>
    3c44:	e5933000 	ldr	r3, [r3]
    3c48:	e3530001 	cmp	r3, #1
    3c4c:	1a0000b6 	bne	3f2c <InitPower+0x6c0>
    3c50:	e3a00004 	mov	r0, #4
    3c54:	eb000238 	bl	453c <PowerSetCharger>
    3c58:	e3a00063 	mov	r0, #99	; 0x63
    3c5c:	ebfffee0 	bl	37e4 <OEMWriteDebugByte>
    3c60:	e3a00068 	mov	r0, #104	; 0x68
    3c64:	ebfffede 	bl	37e4 <OEMWriteDebugByte>
    3c68:	e3a00061 	mov	r0, #97	; 0x61
    3c6c:	ebfffedc 	bl	37e4 <OEMWriteDebugByte>
    3c70:	e3a00072 	mov	r0, #114	; 0x72
    3c74:	ebfffeda 	bl	37e4 <OEMWriteDebugByte>
    3c78:	e3a00067 	mov	r0, #103	; 0x67
    3c7c:	ebfffed8 	bl	37e4 <OEMWriteDebugByte>
    3c80:	e3a00069 	mov	r0, #105	; 0x69
    3c84:	ebfffed6 	bl	37e4 <OEMWriteDebugByte>
    3c88:	e3a0006e 	mov	r0, #110	; 0x6e
    3c8c:	ebfffed4 	bl	37e4 <OEMWriteDebugByte>
    3c90:	e3a00067 	mov	r0, #103	; 0x67
    3c94:	ebfffed2 	bl	37e4 <OEMWriteDebugByte>
    3c98:	e3a0002e 	mov	r0, #46	; 0x2e
    3c9c:	ebfffed0 	bl	37e4 <OEMWriteDebugByte>
    3ca0:	e3a0002e 	mov	r0, #46	; 0x2e
    3ca4:	ebfffece 	bl	37e4 <OEMWriteDebugByte>
    3ca8:	e3a0002e 	mov	r0, #46	; 0x2e
    3cac:	ebfffecc 	bl	37e4 <OEMWriteDebugByte>
    3cb0:	e3a00020 	mov	r0, #32
    3cb4:	ebfffeca 	bl	37e4 <OEMWriteDebugByte>
    3cb8:	e3a00028 	mov	r0, #40	; 0x28
    3cbc:	ebfffec8 	bl	37e4 <OEMWriteDebugByte>
    3cc0:	e3a00033 	mov	r0, #51	; 0x33
    3cc4:	ebfffec6 	bl	37e4 <OEMWriteDebugByte>
    3cc8:	e3a0002e 	mov	r0, #46	; 0x2e
    3ccc:	ebfffec4 	bl	37e4 <OEMWriteDebugByte>
    3cd0:	e3a00034 	mov	r0, #52	; 0x34
    3cd4:	ebfffec2 	bl	37e4 <OEMWriteDebugByte>
    3cd8:	e3a00056 	mov	r0, #86	; 0x56
    3cdc:	ebfffec0 	bl	37e4 <OEMWriteDebugByte>
    3ce0:	e3a00029 	mov	r0, #41	; 0x29
    3ce4:	ebfffebe 	bl	37e4 <OEMWriteDebugByte>
    3ce8:	e3a0000d 	mov	r0, #13
    3cec:	ebfffebc 	bl	37e4 <OEMWriteDebugByte>
    3cf0:	e3a0000a 	mov	r0, #10
    3cf4:	ebfffeba 	bl	37e4 <OEMWriteDebugByte>
    3cf8:	e3a03000 	mov	r3, #0
    3cfc:	e50b3008 	str	r3, [fp, #-8]
    3d00:	ea000064 	b	3e98 <InitPower+0x62c>
    3d04:	eb000229 	bl	45b0 <PowerStopCharger>
    3d08:	e59f3284 	ldr	r3, [pc, #644]	; 3f94 <InitPower+0x728>
    3d0c:	e5933000 	ldr	r3, [r3]
    3d10:	e50b3014 	str	r3, [fp, #-20]	; 0xffffffec
    3d14:	e1a00000 	nop			; (mov r0, r0)
    3d18:	e59f3274 	ldr	r3, [pc, #628]	; 3f94 <InitPower+0x728>
    3d1c:	e5932000 	ldr	r2, [r3]
    3d20:	e51b3014 	ldr	r3, [fp, #-20]	; 0xffffffec
    3d24:	e0632002 	rsb	r2, r3, r2
    3d28:	e59f3268 	ldr	r3, [pc, #616]	; 3f98 <InitPower+0x72c>
    3d2c:	e1520003 	cmp	r2, r3
    3d30:	9afffff8 	bls	3d18 <InitPower+0x4ac>
    3d34:	e59f3230 	ldr	r3, [pc, #560]	; 3f6c <InitPower+0x700>
    3d38:	e3a02080 	mov	r2, #128	; 0x80
    3d3c:	e5832000 	str	r2, [r3]
    3d40:	e1a00000 	nop			; (mov r0, r0)
    3d44:	e59f3224 	ldr	r3, [pc, #548]	; 3f70 <InitPower+0x704>
    3d48:	e5933000 	ldr	r3, [r3]
    3d4c:	e2033080 	and	r3, r3, #128	; 0x80
    3d50:	e3530000 	cmp	r3, #0
    3d54:	0afffffa 	beq	3d44 <InitPower+0x4d8>
    3d58:	e59f321c 	ldr	r3, [pc, #540]	; 3f7c <InitPower+0x710>
    3d5c:	e5933000 	ldr	r3, [r3]
    3d60:	e1a03823 	lsr	r3, r3, #16
    3d64:	e1a03b03 	lsl	r3, r3, #22
    3d68:	e1a03b23 	lsr	r3, r3, #22
    3d6c:	e1a03803 	lsl	r3, r3, #16
    3d70:	e1a03823 	lsr	r3, r3, #16
    3d74:	e1a03183 	lsl	r3, r3, #3
    3d78:	e50b3010 	str	r3, [fp, #-16]
    3d7c:	e3a0000d 	mov	r0, #13
    3d80:	ebfffe97 	bl	37e4 <OEMWriteDebugByte>
    3d84:	e3a00042 	mov	r0, #66	; 0x42
    3d88:	ebfffe95 	bl	37e4 <OEMWriteDebugByte>
    3d8c:	e3a00041 	mov	r0, #65	; 0x41
    3d90:	ebfffe93 	bl	37e4 <OEMWriteDebugByte>
    3d94:	e3a00054 	mov	r0, #84	; 0x54
    3d98:	ebfffe91 	bl	37e4 <OEMWriteDebugByte>
    3d9c:	e3a00054 	mov	r0, #84	; 0x54
    3da0:	ebfffe8f 	bl	37e4 <OEMWriteDebugByte>
    3da4:	e3a0003a 	mov	r0, #58	; 0x3a
    3da8:	ebfffe8d 	bl	37e4 <OEMWriteDebugByte>
    3dac:	e51b0010 	ldr	r0, [fp, #-16]
    3db0:	eb00013d 	bl	42ac <PrintBatteryVoltage>
    3db4:	e3a00020 	mov	r0, #32
    3db8:	ebfffe89 	bl	37e4 <OEMWriteDebugByte>
    3dbc:	e3a00020 	mov	r0, #32
    3dc0:	ebfffe87 	bl	37e4 <OEMWriteDebugByte>
    3dc4:	e3a00020 	mov	r0, #32
    3dc8:	ebfffe85 	bl	37e4 <OEMWriteDebugByte>
    3dcc:	e59f3188 	ldr	r3, [pc, #392]	; 3f5c <InitPower+0x6f0>
    3dd0:	e3a02080 	mov	r2, #128	; 0x80
    3dd4:	e5832000 	str	r2, [r3]
    3dd8:	e3a00004 	mov	r0, #4
    3ddc:	eb0001d6 	bl	453c <PowerSetCharger>
    3de0:	e3a03000 	mov	r3, #0
    3de4:	e50b300c 	str	r3, [fp, #-12]
    3de8:	ea000017 	b	3e4c <InitPower+0x5e0>
    3dec:	e3a0002d 	mov	r0, #45	; 0x2d
    3df0:	ebfffe7b 	bl	37e4 <OEMWriteDebugByte>
    3df4:	e3a00008 	mov	r0, #8
    3df8:	ebfffe79 	bl	37e4 <OEMWriteDebugByte>
    3dfc:	e59f0198 	ldr	r0, [pc, #408]	; 3f9c <InitPower+0x730>
    3e00:	eb0001fe 	bl	4600 <OALStall>
    3e04:	e3a0005c 	mov	r0, #92	; 0x5c
    3e08:	ebfffe75 	bl	37e4 <OEMWriteDebugByte>
    3e0c:	e3a00008 	mov	r0, #8
    3e10:	ebfffe73 	bl	37e4 <OEMWriteDebugByte>
    3e14:	e59f0180 	ldr	r0, [pc, #384]	; 3f9c <InitPower+0x730>
    3e18:	eb0001f8 	bl	4600 <OALStall>
    3e1c:	e3a0007c 	mov	r0, #124	; 0x7c
    3e20:	ebfffe6f 	bl	37e4 <OEMWriteDebugByte>
    3e24:	e3a00008 	mov	r0, #8
    3e28:	ebfffe6d 	bl	37e4 <OEMWriteDebugByte>
    3e2c:	e59f0168 	ldr	r0, [pc, #360]	; 3f9c <InitPower+0x730>
    3e30:	eb0001f2 	bl	4600 <OALStall>
    3e34:	e3a0002f 	mov	r0, #47	; 0x2f
    3e38:	ebfffe69 	bl	37e4 <OEMWriteDebugByte>
    3e3c:	e3a00008 	mov	r0, #8
    3e40:	ebfffe67 	bl	37e4 <OEMWriteDebugByte>
    3e44:	e59f0150 	ldr	r0, [pc, #336]	; 3f9c <InitPower+0x730>
    3e48:	eb0001ec 	bl	4600 <OALStall>
    3e4c:	e51b300c 	ldr	r3, [fp, #-12]
    3e50:	e3530018 	cmp	r3, #24
    3e54:	83a03000 	movhi	r3, #0
    3e58:	93a03001 	movls	r3, #1
    3e5c:	e20330ff 	and	r3, r3, #255	; 0xff
    3e60:	e51b200c 	ldr	r2, [fp, #-12]
    3e64:	e2822001 	add	r2, r2, #1
    3e68:	e50b200c 	str	r2, [fp, #-12]
    3e6c:	e3530000 	cmp	r3, #0
    3e70:	1affffdd 	bne	3dec <InitPower+0x580>
    3e74:	e51b2010 	ldr	r2, [fp, #-16]
    3e78:	e59f3120 	ldr	r3, [pc, #288]	; 3fa0 <InitPower+0x734>
    3e7c:	e1520003 	cmp	r2, r3
    3e80:	9affff9f 	bls	3d04 <InitPower+0x498>
    3e84:	e51b3008 	ldr	r3, [fp, #-8]
    3e88:	e2833001 	add	r3, r3, #1
    3e8c:	e50b3008 	str	r3, [fp, #-8]
    3e90:	e3a03000 	mov	r3, #0
    3e94:	e50b3010 	str	r3, [fp, #-16]
    3e98:	e51b3008 	ldr	r3, [fp, #-8]
    3e9c:	e3530001 	cmp	r3, #1
    3ea0:	9afffff3 	bls	3e74 <InitPower+0x608>
    3ea4:	eb00016f 	bl	4468 <PowerExecute5VoltsToBatteryHandoff>
    3ea8:	e59f30d8 	ldr	r3, [pc, #216]	; 3f88 <InitPower+0x71c>
    3eac:	e3a02020 	mov	r2, #32
    3eb0:	e5832000 	str	r2, [r3]
    3eb4:	e59f30d0 	ldr	r3, [pc, #208]	; 3f8c <InitPower+0x720>
    3eb8:	e3a02040 	mov	r2, #64	; 0x40
    3ebc:	e5832000 	str	r2, [r3]
    3ec0:	e59f3080 	ldr	r3, [pc, #128]	; 3f48 <InitPower+0x6dc>
    3ec4:	e59f207c 	ldr	r2, [pc, #124]	; 3f48 <InitPower+0x6dc>
    3ec8:	e5922000 	ldr	r2, [r2]
    3ecc:	e3822a02 	orr	r2, r2, #8192	; 0x2000
    3ed0:	e5832000 	str	r2, [r3]
    3ed4:	e59f3064 	ldr	r3, [pc, #100]	; 3f40 <InitPower+0x6d4>
    3ed8:	e59f2060 	ldr	r2, [pc, #96]	; 3f40 <InitPower+0x6d4>
    3edc:	e5922000 	ldr	r2, [r2]
    3ee0:	e3822a02 	orr	r2, r2, #8192	; 0x2000
    3ee4:	e5832000 	str	r2, [r3]
    3ee8:	e59f30a0 	ldr	r3, [pc, #160]	; 3f90 <InitPower+0x724>
    3eec:	e59f209c 	ldr	r2, [pc, #156]	; 3f90 <InitPower+0x724>
    3ef0:	e5922000 	ldr	r2, [r2]
    3ef4:	e3822802 	orr	r2, r2, #131072	; 0x20000
    3ef8:	e5832000 	str	r2, [r3]
    3efc:	e59f308c 	ldr	r3, [pc, #140]	; 3f90 <InitPower+0x724>
    3f00:	e59f2088 	ldr	r2, [pc, #136]	; 3f90 <InitPower+0x724>
    3f04:	e5922000 	ldr	r2, [r2]
    3f08:	e3c22601 	bic	r2, r2, #1048576	; 0x100000
    3f0c:	e5832000 	str	r2, [r3]
    3f10:	e59f3038 	ldr	r3, [pc, #56]	; 3f50 <InitPower+0x6e4>
    3f14:	e3a02601 	mov	r2, #1048576	; 0x100000
    3f18:	e5832000 	str	r2, [r3]
    3f1c:	e59f302c 	ldr	r3, [pc, #44]	; 3f50 <InitPower+0x6e4>
    3f20:	e3a02001 	mov	r2, #1
    3f24:	e5832000 	str	r2, [r3]
    3f28:	eb0001d4 	bl	4680 <TurnOnPLLClock>
    3f2c:	e24bd004 	sub	sp, fp, #4
    3f30:	e8bd8800 	pop	{fp, pc}
    3f34:	00006118 	andeq	r6, r0, r8, lsl r1
    3f38:	00006114 	andeq	r6, r0, r4, lsl r1
    3f3c:	00006110 	andeq	r6, r0, r0, lsl r1
    3f40:	80044050 	andhi	r4, r4, r0, asr r0
    3f44:	800440c0 	andhi	r4, r4, r0, asr #1
    3f48:	80044060 	andhi	r4, r4, r0, rrx
    3f4c:	80044010 	andhi	r4, r4, r0, lsl r0
    3f50:	80044014 	andhi	r4, r4, r4, lsl r0
    3f54:	8007c030 	andhi	ip, r7, r0, lsr r0
    3f58:	8007c034 	andhi	ip, r7, r4, lsr r0
    3f5c:	80050008 	andhi	r0, r5, r8
    3f60:	80050134 	andhi	r0, r5, r4, lsr r1
    3f64:	800500c8 	andhi	r0, r5, r8, asr #1
    3f68:	80050014 	andhi	r0, r5, r4, lsl r0
    3f6c:	80050004 	andhi	r0, r5, r4
    3f70:	80050010 	andhi	r0, r5, r0, lsl r0
    3f74:	8007c040 	andhi	ip, r7, r0, asr #32
    3f78:	8007c038 	andhi	ip, r7, r8, lsr r0
    3f7c:	800440e0 	andhi	r4, r4, r0, ror #1
    3f80:	00000d48 	andeq	r0, r0, r8, asr #26
    3f84:	80044018 	andhi	r4, r4, r8, lsl r0
    3f88:	80044028 	andhi	r4, r4, r8, lsr #32
    3f8c:	80044024 	andhi	r4, r4, r4, lsr #32
    3f90:	80044040 	andhi	r4, r4, r0, asr #32
    3f94:	8001c0c0 	andhi	ip, r1, r0, asr #1
    3f98:	0007a11f 	andeq	sl, r7, pc, lsl r1
    3f9c:	000186a0 	andeq	r8, r1, r0, lsr #13
    3fa0:	00000d47 	andeq	r0, r0, r7, asr #26

00003fa4 <PrintHex>:
    3fa4:	e92d4800 	push	{fp, lr}
    3fa8:	e28db004 	add	fp, sp, #4
    3fac:	e24dd008 	sub	sp, sp, #8
    3fb0:	e50b0008 	str	r0, [fp, #-8]
    3fb4:	e3a00030 	mov	r0, #48	; 0x30
    3fb8:	ebfffe09 	bl	37e4 <OEMWriteDebugByte>
    3fbc:	e3a00078 	mov	r0, #120	; 0x78
    3fc0:	ebfffe07 	bl	37e4 <OEMWriteDebugByte>
    3fc4:	e51b3008 	ldr	r3, [fp, #-8]
    3fc8:	e1a03e23 	lsr	r3, r3, #28
    3fcc:	e20330ff 	and	r3, r3, #255	; 0xff
    3fd0:	e3530009 	cmp	r3, #9
    3fd4:	8a000007 	bhi	3ff8 <PrintHex+0x54>
    3fd8:	e51b3008 	ldr	r3, [fp, #-8]
    3fdc:	e1a03e23 	lsr	r3, r3, #28
    3fe0:	e20330ff 	and	r3, r3, #255	; 0xff
    3fe4:	e2833030 	add	r3, r3, #48	; 0x30
    3fe8:	e20330ff 	and	r3, r3, #255	; 0xff
    3fec:	e1a00003 	mov	r0, r3
    3ff0:	ebfffdfb 	bl	37e4 <OEMWriteDebugByte>
    3ff4:	ea000006 	b	4014 <PrintHex+0x70>
    3ff8:	e51b3008 	ldr	r3, [fp, #-8]
    3ffc:	e1a03e23 	lsr	r3, r3, #28
    4000:	e20330ff 	and	r3, r3, #255	; 0xff
    4004:	e2833057 	add	r3, r3, #87	; 0x57
    4008:	e20330ff 	and	r3, r3, #255	; 0xff
    400c:	e1a00003 	mov	r0, r3
    4010:	ebfffdf3 	bl	37e4 <OEMWriteDebugByte>
    4014:	e51b3008 	ldr	r3, [fp, #-8]
    4018:	e203340f 	and	r3, r3, #251658240	; 0xf000000
    401c:	e1a03c23 	lsr	r3, r3, #24
    4020:	e20330ff 	and	r3, r3, #255	; 0xff
    4024:	e3530009 	cmp	r3, #9
    4028:	8a000008 	bhi	4050 <PrintHex+0xac>
    402c:	e51b3008 	ldr	r3, [fp, #-8]
    4030:	e203340f 	and	r3, r3, #251658240	; 0xf000000
    4034:	e1a03c23 	lsr	r3, r3, #24
    4038:	e20330ff 	and	r3, r3, #255	; 0xff
    403c:	e2833030 	add	r3, r3, #48	; 0x30
    4040:	e20330ff 	and	r3, r3, #255	; 0xff
    4044:	e1a00003 	mov	r0, r3
    4048:	ebfffde5 	bl	37e4 <OEMWriteDebugByte>
    404c:	ea000007 	b	4070 <PrintHex+0xcc>
    4050:	e51b3008 	ldr	r3, [fp, #-8]
    4054:	e203340f 	and	r3, r3, #251658240	; 0xf000000
    4058:	e1a03c23 	lsr	r3, r3, #24
    405c:	e20330ff 	and	r3, r3, #255	; 0xff
    4060:	e2833057 	add	r3, r3, #87	; 0x57
    4064:	e20330ff 	and	r3, r3, #255	; 0xff
    4068:	e1a00003 	mov	r0, r3
    406c:	ebfffddc 	bl	37e4 <OEMWriteDebugByte>
    4070:	e51b3008 	ldr	r3, [fp, #-8]
    4074:	e203360f 	and	r3, r3, #15728640	; 0xf00000
    4078:	e1a03a23 	lsr	r3, r3, #20
    407c:	e20330ff 	and	r3, r3, #255	; 0xff
    4080:	e3530009 	cmp	r3, #9
    4084:	8a000008 	bhi	40ac <PrintHex+0x108>
    4088:	e51b3008 	ldr	r3, [fp, #-8]
    408c:	e203360f 	and	r3, r3, #15728640	; 0xf00000
    4090:	e1a03a23 	lsr	r3, r3, #20
    4094:	e20330ff 	and	r3, r3, #255	; 0xff
    4098:	e2833030 	add	r3, r3, #48	; 0x30
    409c:	e20330ff 	and	r3, r3, #255	; 0xff
    40a0:	e1a00003 	mov	r0, r3
    40a4:	ebfffdce 	bl	37e4 <OEMWriteDebugByte>
    40a8:	ea000007 	b	40cc <PrintHex+0x128>
    40ac:	e51b3008 	ldr	r3, [fp, #-8]
    40b0:	e203360f 	and	r3, r3, #15728640	; 0xf00000
    40b4:	e1a03a23 	lsr	r3, r3, #20
    40b8:	e20330ff 	and	r3, r3, #255	; 0xff
    40bc:	e2833057 	add	r3, r3, #87	; 0x57
    40c0:	e20330ff 	and	r3, r3, #255	; 0xff
    40c4:	e1a00003 	mov	r0, r3
    40c8:	ebfffdc5 	bl	37e4 <OEMWriteDebugByte>
    40cc:	e51b3008 	ldr	r3, [fp, #-8]
    40d0:	e203380f 	and	r3, r3, #983040	; 0xf0000
    40d4:	e1a03823 	lsr	r3, r3, #16
    40d8:	e20330ff 	and	r3, r3, #255	; 0xff
    40dc:	e3530009 	cmp	r3, #9
    40e0:	8a000008 	bhi	4108 <PrintHex+0x164>
    40e4:	e51b3008 	ldr	r3, [fp, #-8]
    40e8:	e203380f 	and	r3, r3, #983040	; 0xf0000
    40ec:	e1a03823 	lsr	r3, r3, #16
    40f0:	e20330ff 	and	r3, r3, #255	; 0xff
    40f4:	e2833030 	add	r3, r3, #48	; 0x30
    40f8:	e20330ff 	and	r3, r3, #255	; 0xff
    40fc:	e1a00003 	mov	r0, r3
    4100:	ebfffdb7 	bl	37e4 <OEMWriteDebugByte>
    4104:	ea000007 	b	4128 <PrintHex+0x184>
    4108:	e51b3008 	ldr	r3, [fp, #-8]
    410c:	e203380f 	and	r3, r3, #983040	; 0xf0000
    4110:	e1a03823 	lsr	r3, r3, #16
    4114:	e20330ff 	and	r3, r3, #255	; 0xff
    4118:	e2833057 	add	r3, r3, #87	; 0x57
    411c:	e20330ff 	and	r3, r3, #255	; 0xff
    4120:	e1a00003 	mov	r0, r3
    4124:	ebfffdae 	bl	37e4 <OEMWriteDebugByte>
    4128:	e51b3008 	ldr	r3, [fp, #-8]
    412c:	e2033a0f 	and	r3, r3, #61440	; 0xf000
    4130:	e1a03623 	lsr	r3, r3, #12
    4134:	e20330ff 	and	r3, r3, #255	; 0xff
    4138:	e3530009 	cmp	r3, #9
    413c:	8a000008 	bhi	4164 <PrintHex+0x1c0>
    4140:	e51b3008 	ldr	r3, [fp, #-8]
    4144:	e2033a0f 	and	r3, r3, #61440	; 0xf000
    4148:	e1a03623 	lsr	r3, r3, #12
    414c:	e20330ff 	and	r3, r3, #255	; 0xff
    4150:	e2833030 	add	r3, r3, #48	; 0x30
    4154:	e20330ff 	and	r3, r3, #255	; 0xff
    4158:	e1a00003 	mov	r0, r3
    415c:	ebfffda0 	bl	37e4 <OEMWriteDebugByte>
    4160:	ea000007 	b	4184 <PrintHex+0x1e0>
    4164:	e51b3008 	ldr	r3, [fp, #-8]
    4168:	e2033a0f 	and	r3, r3, #61440	; 0xf000
    416c:	e1a03623 	lsr	r3, r3, #12
    4170:	e20330ff 	and	r3, r3, #255	; 0xff
    4174:	e2833057 	add	r3, r3, #87	; 0x57
    4178:	e20330ff 	and	r3, r3, #255	; 0xff
    417c:	e1a00003 	mov	r0, r3
    4180:	ebfffd97 	bl	37e4 <OEMWriteDebugByte>
    4184:	e51b3008 	ldr	r3, [fp, #-8]
    4188:	e2033c0f 	and	r3, r3, #3840	; 0xf00
    418c:	e1a03423 	lsr	r3, r3, #8
    4190:	e20330ff 	and	r3, r3, #255	; 0xff
    4194:	e3530009 	cmp	r3, #9
    4198:	8a000008 	bhi	41c0 <PrintHex+0x21c>
    419c:	e51b3008 	ldr	r3, [fp, #-8]
    41a0:	e2033c0f 	and	r3, r3, #3840	; 0xf00
    41a4:	e1a03423 	lsr	r3, r3, #8
    41a8:	e20330ff 	and	r3, r3, #255	; 0xff
    41ac:	e2833030 	add	r3, r3, #48	; 0x30
    41b0:	e20330ff 	and	r3, r3, #255	; 0xff
    41b4:	e1a00003 	mov	r0, r3
    41b8:	ebfffd89 	bl	37e4 <OEMWriteDebugByte>
    41bc:	ea000007 	b	41e0 <PrintHex+0x23c>
    41c0:	e51b3008 	ldr	r3, [fp, #-8]
    41c4:	e2033c0f 	and	r3, r3, #3840	; 0xf00
    41c8:	e1a03423 	lsr	r3, r3, #8
    41cc:	e20330ff 	and	r3, r3, #255	; 0xff
    41d0:	e2833057 	add	r3, r3, #87	; 0x57
    41d4:	e20330ff 	and	r3, r3, #255	; 0xff
    41d8:	e1a00003 	mov	r0, r3
    41dc:	ebfffd80 	bl	37e4 <OEMWriteDebugByte>
    41e0:	e51b3008 	ldr	r3, [fp, #-8]
    41e4:	e20330f0 	and	r3, r3, #240	; 0xf0
    41e8:	e1a03223 	lsr	r3, r3, #4
    41ec:	e20330ff 	and	r3, r3, #255	; 0xff
    41f0:	e3530009 	cmp	r3, #9
    41f4:	8a000008 	bhi	421c <PrintHex+0x278>
    41f8:	e51b3008 	ldr	r3, [fp, #-8]
    41fc:	e20330f0 	and	r3, r3, #240	; 0xf0
    4200:	e1a03223 	lsr	r3, r3, #4
    4204:	e20330ff 	and	r3, r3, #255	; 0xff
    4208:	e2833030 	add	r3, r3, #48	; 0x30
    420c:	e20330ff 	and	r3, r3, #255	; 0xff
    4210:	e1a00003 	mov	r0, r3
    4214:	ebfffd72 	bl	37e4 <OEMWriteDebugByte>
    4218:	ea000007 	b	423c <PrintHex+0x298>
    421c:	e51b3008 	ldr	r3, [fp, #-8]
    4220:	e20330f0 	and	r3, r3, #240	; 0xf0
    4224:	e1a03223 	lsr	r3, r3, #4
    4228:	e20330ff 	and	r3, r3, #255	; 0xff
    422c:	e2833057 	add	r3, r3, #87	; 0x57
    4230:	e20330ff 	and	r3, r3, #255	; 0xff
    4234:	e1a00003 	mov	r0, r3
    4238:	ebfffd69 	bl	37e4 <OEMWriteDebugByte>
    423c:	e51b3008 	ldr	r3, [fp, #-8]
    4240:	e20330ff 	and	r3, r3, #255	; 0xff
    4244:	e203300f 	and	r3, r3, #15
    4248:	e3530009 	cmp	r3, #9
    424c:	ca000008 	bgt	4274 <PrintHex+0x2d0>
    4250:	e51b3008 	ldr	r3, [fp, #-8]
    4254:	e20330ff 	and	r3, r3, #255	; 0xff
    4258:	e203300f 	and	r3, r3, #15
    425c:	e20330ff 	and	r3, r3, #255	; 0xff
    4260:	e2833030 	add	r3, r3, #48	; 0x30
    4264:	e20330ff 	and	r3, r3, #255	; 0xff
    4268:	e1a00003 	mov	r0, r3
    426c:	ebfffd5c 	bl	37e4 <OEMWriteDebugByte>
    4270:	ea000007 	b	4294 <PrintHex+0x2f0>
    4274:	e51b3008 	ldr	r3, [fp, #-8]
    4278:	e20330ff 	and	r3, r3, #255	; 0xff
    427c:	e203300f 	and	r3, r3, #15
    4280:	e20330ff 	and	r3, r3, #255	; 0xff
    4284:	e2833057 	add	r3, r3, #87	; 0x57
    4288:	e20330ff 	and	r3, r3, #255	; 0xff
    428c:	e1a00003 	mov	r0, r3
    4290:	ebfffd53 	bl	37e4 <OEMWriteDebugByte>
    4294:	e3a0000d 	mov	r0, #13
    4298:	ebfffd51 	bl	37e4 <OEMWriteDebugByte>
    429c:	e3a0000a 	mov	r0, #10
    42a0:	ebfffd4f 	bl	37e4 <OEMWriteDebugByte>
    42a4:	e24bd004 	sub	sp, fp, #4
    42a8:	e8bd8800 	pop	{fp, pc}

000042ac <PrintBatteryVoltage>:
    42ac:	e92d4800 	push	{fp, lr}
    42b0:	e28db004 	add	fp, sp, #4
    42b4:	e24dd018 	sub	sp, sp, #24
    42b8:	e50b0018 	str	r0, [fp, #-24]	; 0xffffffe8
    42bc:	e3a03000 	mov	r3, #0
    42c0:	e50b3014 	str	r3, [fp, #-20]	; 0xffffffec
    42c4:	e3a03000 	mov	r3, #0
    42c8:	e50b3010 	str	r3, [fp, #-16]
    42cc:	e3a03000 	mov	r3, #0
    42d0:	e50b300c 	str	r3, [fp, #-12]
    42d4:	e3a03000 	mov	r3, #0
    42d8:	e50b3008 	str	r3, [fp, #-8]
    42dc:	e51b2018 	ldr	r2, [fp, #-24]	; 0xffffffe8
    42e0:	e59f3174 	ldr	r3, [pc, #372]	; 445c <PrintBatteryVoltage+0x1b0>
    42e4:	e0831392 	umull	r1, r3, r2, r3
    42e8:	e1a03323 	lsr	r3, r3, #6
    42ec:	e50b3014 	str	r3, [fp, #-20]	; 0xffffffec
    42f0:	e51b2018 	ldr	r2, [fp, #-24]	; 0xffffffe8
    42f4:	e59f3160 	ldr	r3, [pc, #352]	; 445c <PrintBatteryVoltage+0x1b0>
    42f8:	e0831392 	umull	r1, r3, r2, r3
    42fc:	e1a03323 	lsr	r3, r3, #6
    4300:	e3a01ffa 	mov	r1, #1000	; 0x3e8
    4304:	e0030391 	mul	r3, r1, r3
    4308:	e0633002 	rsb	r3, r3, r2
    430c:	e59f214c 	ldr	r2, [pc, #332]	; 4460 <PrintBatteryVoltage+0x1b4>
    4310:	e0831392 	umull	r1, r3, r2, r3
    4314:	e1a032a3 	lsr	r3, r3, #5
    4318:	e50b3010 	str	r3, [fp, #-16]
    431c:	e51b2018 	ldr	r2, [fp, #-24]	; 0xffffffe8
    4320:	e59f3138 	ldr	r3, [pc, #312]	; 4460 <PrintBatteryVoltage+0x1b4>
    4324:	e0831392 	umull	r1, r3, r2, r3
    4328:	e1a032a3 	lsr	r3, r3, #5
    432c:	e3a01064 	mov	r1, #100	; 0x64
    4330:	e0030391 	mul	r3, r1, r3
    4334:	e0633002 	rsb	r3, r3, r2
    4338:	e59f2124 	ldr	r2, [pc, #292]	; 4464 <PrintBatteryVoltage+0x1b8>
    433c:	e0831392 	umull	r1, r3, r2, r3
    4340:	e1a031a3 	lsr	r3, r3, #3
    4344:	e50b300c 	str	r3, [fp, #-12]
    4348:	e3a03000 	mov	r3, #0
    434c:	e50b3008 	str	r3, [fp, #-8]
    4350:	ea00003a 	b	4440 <PrintBatteryVoltage+0x194>
    4354:	e51b3008 	ldr	r3, [fp, #-8]
    4358:	e3530001 	cmp	r3, #1
    435c:	1a000001 	bne	4368 <PrintBatteryVoltage+0xbc>
    4360:	e3a0002e 	mov	r0, #46	; 0x2e
    4364:	ebfffd1e 	bl	37e4 <OEMWriteDebugByte>
    4368:	e51b2008 	ldr	r2, [fp, #-8]
    436c:	e3e0300f 	mvn	r3, #15
    4370:	e1a02102 	lsl	r2, r2, #2
    4374:	e24b1004 	sub	r1, fp, #4
    4378:	e0812002 	add	r2, r1, r2
    437c:	e0823003 	add	r3, r2, r3
    4380:	e5933000 	ldr	r3, [r3]
    4384:	e3530009 	cmp	r3, #9
    4388:	979ff103 	ldrls	pc, [pc, r3, lsl #2]
    438c:	ea000027 	b	4430 <PrintBatteryVoltage+0x184>
    4390:	000043b8 			; <UNDEFINED> instruction: 0x000043b8
    4394:	000043c4 	andeq	r4, r0, r4, asr #7
    4398:	000043d0 	ldrdeq	r4, [r0], -r0
    439c:	000043dc 	ldrdeq	r4, [r0], -ip
    43a0:	000043e8 	andeq	r4, r0, r8, ror #7
    43a4:	000043f4 	strdeq	r4, [r0], -r4	; <UNPREDICTABLE>
    43a8:	00004400 	andeq	r4, r0, r0, lsl #8
    43ac:	0000440c 	andeq	r4, r0, ip, lsl #8
    43b0:	00004418 	andeq	r4, r0, r8, lsl r4
    43b4:	00004424 	andeq	r4, r0, r4, lsr #8
    43b8:	e3a00030 	mov	r0, #48	; 0x30
    43bc:	ebfffd08 	bl	37e4 <OEMWriteDebugByte>
    43c0:	ea00001b 	b	4434 <PrintBatteryVoltage+0x188>
    43c4:	e3a00031 	mov	r0, #49	; 0x31
    43c8:	ebfffd05 	bl	37e4 <OEMWriteDebugByte>
    43cc:	ea000018 	b	4434 <PrintBatteryVoltage+0x188>
    43d0:	e3a00032 	mov	r0, #50	; 0x32
    43d4:	ebfffd02 	bl	37e4 <OEMWriteDebugByte>
    43d8:	ea000015 	b	4434 <PrintBatteryVoltage+0x188>
    43dc:	e3a00033 	mov	r0, #51	; 0x33
    43e0:	ebfffcff 	bl	37e4 <OEMWriteDebugByte>
    43e4:	ea000012 	b	4434 <PrintBatteryVoltage+0x188>
    43e8:	e3a00034 	mov	r0, #52	; 0x34
    43ec:	ebfffcfc 	bl	37e4 <OEMWriteDebugByte>
    43f0:	ea00000f 	b	4434 <PrintBatteryVoltage+0x188>
    43f4:	e3a00035 	mov	r0, #53	; 0x35
    43f8:	ebfffcf9 	bl	37e4 <OEMWriteDebugByte>
    43fc:	ea00000c 	b	4434 <PrintBatteryVoltage+0x188>
    4400:	e3a00036 	mov	r0, #54	; 0x36
    4404:	ebfffcf6 	bl	37e4 <OEMWriteDebugByte>
    4408:	ea000009 	b	4434 <PrintBatteryVoltage+0x188>
    440c:	e3a00037 	mov	r0, #55	; 0x37
    4410:	ebfffcf3 	bl	37e4 <OEMWriteDebugByte>
    4414:	ea000006 	b	4434 <PrintBatteryVoltage+0x188>
    4418:	e3a00038 	mov	r0, #56	; 0x38
    441c:	ebfffcf0 	bl	37e4 <OEMWriteDebugByte>
    4420:	ea000003 	b	4434 <PrintBatteryVoltage+0x188>
    4424:	e3a00039 	mov	r0, #57	; 0x39
    4428:	ebfffced 	bl	37e4 <OEMWriteDebugByte>
    442c:	ea000000 	b	4434 <PrintBatteryVoltage+0x188>
    4430:	e1a00000 	nop			; (mov r0, r0)
    4434:	e51b3008 	ldr	r3, [fp, #-8]
    4438:	e2833001 	add	r3, r3, #1
    443c:	e50b3008 	str	r3, [fp, #-8]
    4440:	e51b3008 	ldr	r3, [fp, #-8]
    4444:	e3530002 	cmp	r3, #2
    4448:	9affffc1 	bls	4354 <PrintBatteryVoltage+0xa8>
    444c:	e3a00056 	mov	r0, #86	; 0x56
    4450:	ebfffce3 	bl	37e4 <OEMWriteDebugByte>
    4454:	e24bd004 	sub	sp, fp, #4
    4458:	e8bd8800 	pop	{fp, pc}
    445c:	10624dd3 	ldrdne	r4, [r2], #-211	; 0xffffff2d	; <UNPREDICTABLE>
    4460:	51eb851f 	mvnpl	r8, pc, lsl r5
    4464:	cccccccd 	stclgt	12, cr12, [ip], {205}	; 0xcd

00004468 <PowerExecute5VoltsToBatteryHandoff>:
    4468:	e92d4800 	push	{fp, lr}
    446c:	e28db004 	add	fp, sp, #4
    4470:	eb000002 	bl	4480 <PowerStop4p2>
    4474:	e3a00001 	mov	r0, #1
    4478:	eb00001c 	bl	44f0 <PowerDisableAutoHardwarePowerdown>
    447c:	e8bd8800 	pop	{fp, pc}

00004480 <PowerStop4p2>:
    4480:	e52db004 	push	{fp}		; (str fp, [sp, #-4]!)
    4484:	e28db000 	add	fp, sp, #0
    4488:	e59f3050 	ldr	r3, [pc, #80]	; 44e0 <PowerStop4p2+0x60>
    448c:	e59f204c 	ldr	r2, [pc, #76]	; 44e0 <PowerStop4p2+0x60>
    4490:	e5922000 	ldr	r2, [r2]
    4494:	e3c22501 	bic	r2, r2, #4194304	; 0x400000
    4498:	e5832000 	str	r2, [r3]
    449c:	e59f303c 	ldr	r3, [pc, #60]	; 44e0 <PowerStop4p2+0x60>
    44a0:	e59f2038 	ldr	r2, [pc, #56]	; 44e0 <PowerStop4p2+0x60>
    44a4:	e5922000 	ldr	r2, [r2]
    44a8:	e3c22502 	bic	r2, r2, #8388608	; 0x800000
    44ac:	e5832000 	str	r2, [r3]
    44b0:	e59f302c 	ldr	r3, [pc, #44]	; 44e4 <PowerStop4p2+0x64>
    44b4:	e3a02501 	mov	r2, #4194304	; 0x400000
    44b8:	e5832000 	str	r2, [r3]
    44bc:	e59f3024 	ldr	r3, [pc, #36]	; 44e8 <PowerStop4p2+0x68>
    44c0:	e3a02502 	mov	r2, #8388608	; 0x800000
    44c4:	e5832000 	str	r2, [r3]
    44c8:	e59f301c 	ldr	r3, [pc, #28]	; 44ec <PowerStop4p2+0x6c>
    44cc:	e3a02601 	mov	r2, #1048576	; 0x100000
    44d0:	e5832000 	str	r2, [r3]
    44d4:	e28bd000 	add	sp, fp, #0
    44d8:	e49db004 	pop	{fp}		; (ldr fp, [sp], #4)
    44dc:	e12fff1e 	bx	lr
    44e0:	80044080 	andhi	r4, r4, r0, lsl #1
    44e4:	80044038 	andhi	r4, r4, r8, lsr r0
    44e8:	80044008 	andhi	r4, r4, r8
    44ec:	80044014 	andhi	r4, r4, r4, lsl r0

000044f0 <PowerDisableAutoHardwarePowerdown>:
    44f0:	e52db004 	push	{fp}		; (str fp, [sp, #-4]!)
    44f4:	e28db000 	add	fp, sp, #0
    44f8:	e24dd00c 	sub	sp, sp, #12
    44fc:	e50b0008 	str	r0, [fp, #-8]
    4500:	e51b3008 	ldr	r3, [fp, #-8]
    4504:	e3530000 	cmp	r3, #0
    4508:	0a000003 	beq	451c <PowerDisableAutoHardwarePowerdown+0x2c>
    450c:	e59f3020 	ldr	r3, [pc, #32]	; 4534 <PowerDisableAutoHardwarePowerdown+0x44>
    4510:	e3a02080 	mov	r2, #128	; 0x80
    4514:	e5832000 	str	r2, [r3]
    4518:	ea000002 	b	4528 <PowerDisableAutoHardwarePowerdown+0x38>
    451c:	e59f3014 	ldr	r3, [pc, #20]	; 4538 <PowerDisableAutoHardwarePowerdown+0x48>
    4520:	e3a02080 	mov	r2, #128	; 0x80
    4524:	e5832000 	str	r2, [r3]
    4528:	e28bd000 	add	sp, fp, #0
    452c:	e49db004 	pop	{fp}		; (ldr fp, [sp], #4)
    4530:	e12fff1e 	bx	lr
    4534:	80044018 	andhi	r4, r4, r8, lsl r0
    4538:	80044014 	andhi	r4, r4, r4, lsl r0

0000453c <PowerSetCharger>:
    453c:	e52db004 	push	{fp}		; (str fp, [sp, #-4]!)
    4540:	e28db000 	add	fp, sp, #0
    4544:	e24dd00c 	sub	sp, sp, #12
    4548:	e50b0008 	str	r0, [fp, #-8]
    454c:	e59f3050 	ldr	r3, [pc, #80]	; 45a4 <PowerSetCharger+0x68>
    4550:	e3a02c0f 	mov	r2, #3840	; 0xf00
    4554:	e5832000 	str	r2, [r3]
    4558:	e59f3048 	ldr	r3, [pc, #72]	; 45a8 <PowerSetCharger+0x6c>
    455c:	e3a02c03 	mov	r2, #768	; 0x300
    4560:	e5832000 	str	r2, [r3]
    4564:	e59f3038 	ldr	r3, [pc, #56]	; 45a4 <PowerSetCharger+0x68>
    4568:	e3a0203f 	mov	r2, #63	; 0x3f
    456c:	e5832000 	str	r2, [r3]
    4570:	e59f3030 	ldr	r3, [pc, #48]	; 45a8 <PowerSetCharger+0x6c>
    4574:	e51b2008 	ldr	r2, [fp, #-8]
    4578:	e202203f 	and	r2, r2, #63	; 0x3f
    457c:	e5832000 	str	r2, [r3]
    4580:	e59f301c 	ldr	r3, [pc, #28]	; 45a4 <PowerSetCharger+0x68>
    4584:	e3a02801 	mov	r2, #65536	; 0x10000
    4588:	e5832000 	str	r2, [r3]
    458c:	e59f3018 	ldr	r3, [pc, #24]	; 45ac <PowerSetCharger+0x70>
    4590:	e3a02601 	mov	r2, #1048576	; 0x100000
    4594:	e5832000 	str	r2, [r3]
    4598:	e28bd000 	add	sp, fp, #0
    459c:	e49db004 	pop	{fp}		; (ldr fp, [sp], #4)
    45a0:	e12fff1e 	bx	lr
    45a4:	80044038 	andhi	r4, r4, r8, lsr r0
    45a8:	80044034 	andhi	r4, r4, r4, lsr r0
    45ac:	80044018 	andhi	r4, r4, r8, lsl r0

000045b0 <PowerStopCharger>:
    45b0:	e52db004 	push	{fp}		; (str fp, [sp, #-4]!)
    45b4:	e28db000 	add	fp, sp, #0
    45b8:	e59f3034 	ldr	r3, [pc, #52]	; 45f4 <PowerStopCharger+0x44>
    45bc:	e3a02c0f 	mov	r2, #3840	; 0xf00
    45c0:	e5832000 	str	r2, [r3]
    45c4:	e59f3028 	ldr	r3, [pc, #40]	; 45f4 <PowerStopCharger+0x44>
    45c8:	e3a0203f 	mov	r2, #63	; 0x3f
    45cc:	e5832000 	str	r2, [r3]
    45d0:	e59f3020 	ldr	r3, [pc, #32]	; 45f8 <PowerStopCharger+0x48>
    45d4:	e3a02801 	mov	r2, #65536	; 0x10000
    45d8:	e5832000 	str	r2, [r3]
    45dc:	e59f3018 	ldr	r3, [pc, #24]	; 45fc <PowerStopCharger+0x4c>
    45e0:	e3a02601 	mov	r2, #1048576	; 0x100000
    45e4:	e5832000 	str	r2, [r3]
    45e8:	e28bd000 	add	sp, fp, #0
    45ec:	e49db004 	pop	{fp}		; (ldr fp, [sp], #4)
    45f0:	e12fff1e 	bx	lr
    45f4:	80044038 	andhi	r4, r4, r8, lsr r0
    45f8:	80044034 	andhi	r4, r4, r4, lsr r0
    45fc:	80044014 	andhi	r4, r4, r4, lsl r0

00004600 <OALStall>:
    4600:	e52db004 	push	{fp}		; (str fp, [sp, #-4]!)
    4604:	e28db000 	add	fp, sp, #0
    4608:	e24dd014 	sub	sp, sp, #20
    460c:	e50b0010 	str	r0, [fp, #-16]
    4610:	e59f3064 	ldr	r3, [pc, #100]	; 467c <OALStall+0x7c>
    4614:	e5933000 	ldr	r3, [r3]
    4618:	e50b3008 	str	r3, [fp, #-8]
    461c:	e51b2008 	ldr	r2, [fp, #-8]
    4620:	e51b3010 	ldr	r3, [fp, #-16]
    4624:	e0823003 	add	r3, r2, r3
    4628:	e50b300c 	str	r3, [fp, #-12]
    462c:	e51b200c 	ldr	r2, [fp, #-12]
    4630:	e51b3008 	ldr	r3, [fp, #-8]
    4634:	e1520003 	cmp	r2, r3
    4638:	2a000006 	bcs	4658 <OALStall+0x58>
    463c:	e1a00000 	nop			; (mov r0, r0)
    4640:	e59f3034 	ldr	r3, [pc, #52]	; 467c <OALStall+0x7c>
    4644:	e5932000 	ldr	r2, [r3]
    4648:	e51b3008 	ldr	r3, [fp, #-8]
    464c:	e1520003 	cmp	r2, r3
    4650:	8afffffa 	bhi	4640 <OALStall+0x40>
    4654:	ea000000 	b	465c <OALStall+0x5c>
    4658:	e1a00000 	nop			; (mov r0, r0)
    465c:	e59f3018 	ldr	r3, [pc, #24]	; 467c <OALStall+0x7c>
    4660:	e5932000 	ldr	r2, [r3]
    4664:	e51b300c 	ldr	r3, [fp, #-12]
    4668:	e1520003 	cmp	r2, r3
    466c:	9afffffa 	bls	465c <OALStall+0x5c>
    4670:	e28bd000 	add	sp, fp, #0
    4674:	e49db004 	pop	{fp}		; (ldr fp, [sp], #4)
    4678:	e12fff1e 	bx	lr
    467c:	8001c0c0 	andhi	ip, r1, r0, asr #1

00004680 <TurnOnPLLClock>:
    4680:	e92d4800 	push	{fp, lr}
    4684:	e28db004 	add	fp, sp, #4
    4688:	e24dd008 	sub	sp, sp, #8
    468c:	e59f3108 	ldr	r3, [pc, #264]	; 479c <TurnOnPLLClock+0x11c>
    4690:	e3a02080 	mov	r2, #128	; 0x80
    4694:	e5832000 	str	r2, [r3]
    4698:	e59f3100 	ldr	r3, [pc, #256]	; 47a0 <TurnOnPLLClock+0x120>
    469c:	e3a02801 	mov	r2, #65536	; 0x10000
    46a0:	e5832000 	str	r2, [r3]
    46a4:	e59f30f8 	ldr	r3, [pc, #248]	; 47a4 <TurnOnPLLClock+0x124>
    46a8:	e59f20f4 	ldr	r2, [pc, #244]	; 47a4 <TurnOnPLLClock+0x124>
    46ac:	e5922000 	ldr	r2, [r2]
    46b0:	e3822c07 	orr	r2, r2, #1792	; 0x700
    46b4:	e5832000 	str	r2, [r3]
    46b8:	e59f30e4 	ldr	r3, [pc, #228]	; 47a4 <TurnOnPLLClock+0x124>
    46bc:	e59f20e0 	ldr	r2, [pc, #224]	; 47a4 <TurnOnPLLClock+0x124>
    46c0:	e5922000 	ldr	r2, [r2]
    46c4:	e3c2201f 	bic	r2, r2, #31
    46c8:	e382201e 	orr	r2, r2, #30
    46cc:	e5832000 	str	r2, [r3]
    46d0:	e3a0000f 	mov	r0, #15
    46d4:	ebffffc9 	bl	4600 <OALStall>
    46d8:	e1a00000 	nop			; (mov r0, r0)
    46dc:	e59f30c4 	ldr	r3, [pc, #196]	; 47a8 <TurnOnPLLClock+0x128>
    46e0:	e5933000 	ldr	r3, [r3]
    46e4:	e2033c02 	and	r3, r3, #512	; 0x200
    46e8:	e3530000 	cmp	r3, #0
    46ec:	0afffffa 	beq	46dc <TurnOnPLLClock+0x5c>
    46f0:	e59f30b4 	ldr	r3, [pc, #180]	; 47ac <TurnOnPLLClock+0x12c>
    46f4:	e3a02080 	mov	r2, #128	; 0x80
    46f8:	e5832000 	str	r2, [r3]
    46fc:	e59f30ac 	ldr	r3, [pc, #172]	; 47b0 <TurnOnPLLClock+0x130>
    4700:	e59f20a8 	ldr	r2, [pc, #168]	; 47b0 <TurnOnPLLClock+0x130>
    4704:	e5922000 	ldr	r2, [r2]
    4708:	e3c2203f 	bic	r2, r2, #63	; 0x3f
    470c:	e3822013 	orr	r2, r2, #19
    4710:	e5832000 	str	r2, [r3]
    4714:	e59f3094 	ldr	r3, [pc, #148]	; 47b0 <TurnOnPLLClock+0x130>
    4718:	e5933000 	ldr	r3, [r3]
    471c:	e2033040 	and	r3, r3, #64	; 0x40
    4720:	e50b300c 	str	r3, [fp, #-12]
    4724:	e1a00000 	nop			; (mov r0, r0)
    4728:	e59f3080 	ldr	r3, [pc, #128]	; 47b0 <TurnOnPLLClock+0x130>
    472c:	e5932000 	ldr	r2, [r3]
    4730:	e51b300c 	ldr	r3, [fp, #-12]
    4734:	e1520003 	cmp	r2, r3
    4738:	0afffffa 	beq	4728 <TurnOnPLLClock+0xa8>
    473c:	e59f3070 	ldr	r3, [pc, #112]	; 47b4 <TurnOnPLLClock+0x134>
    4740:	e59f2070 	ldr	r2, [pc, #112]	; 47b8 <TurnOnPLLClock+0x138>
    4744:	e5832000 	str	r2, [r3]
    4748:	e59f306c 	ldr	r3, [pc, #108]	; 47bc <TurnOnPLLClock+0x13c>
    474c:	e3a02003 	mov	r2, #3
    4750:	e5832000 	str	r2, [r3]
    4754:	e59f3064 	ldr	r3, [pc, #100]	; 47c0 <TurnOnPLLClock+0x140>
    4758:	e3a02080 	mov	r2, #128	; 0x80
    475c:	e5832000 	str	r2, [r3]
    4760:	e3a03000 	mov	r3, #0
    4764:	e50b3008 	str	r3, [fp, #-8]
    4768:	e1a00000 	nop			; (mov r0, r0)
    476c:	e51b3008 	ldr	r3, [fp, #-8]
    4770:	e3530a01 	cmp	r3, #4096	; 0x1000
    4774:	03a03000 	moveq	r3, #0
    4778:	13a03001 	movne	r3, #1
    477c:	e20330ff 	and	r3, r3, #255	; 0xff
    4780:	e51b2008 	ldr	r2, [fp, #-8]
    4784:	e2822001 	add	r2, r2, #1
    4788:	e50b2008 	str	r2, [fp, #-8]
    478c:	e3530000 	cmp	r3, #0
    4790:	1afffff5 	bne	476c <TurnOnPLLClock+0xec>
    4794:	e24bd004 	sub	sp, fp, #4
    4798:	e8bd8800 	pop	{fp, pc}
    479c:	80040114 	andhi	r0, r4, r4, lsl r1
    47a0:	80040004 	andhi	r0, r4, r4
    47a4:	80044040 	andhi	r4, r4, r0, asr #32
    47a8:	800440c0 	andhi	r4, r4, r0, asr #1
    47ac:	800400f8 	strdhi	r0, [r4], -r8
    47b0:	800400f0 	strdhi	r0, [r4], -r0	; <UNPREDICTABLE>
    47b4:	80040020 	andhi	r0, r4, r0, lsr #32
    47b8:	00011001 	andeq	r1, r1, r1
    47bc:	80040030 	andhi	r0, r4, r0, lsr r0
    47c0:	80040118 	andhi	r0, r4, r8, lsl r1

000047c4 <init>:
    47c4:	e92d4800 	push	{fp, lr}
    47c8:	e28db004 	add	fp, sp, #4
    47cc:	eb000002 	bl	47dc <power_init>
    47d0:	eb00003d 	bl	48cc <cpu_init>
    47d4:	eb00001a 	bl	4844 <pin_init>
    47d8:	e8bd8800 	pop	{fp, pc}

000047dc <power_init>:
    47dc:	e52db004 	push	{fp}		; (str fp, [sp, #-4]!)
    47e0:	e28db000 	add	fp, sp, #0
    47e4:	e24dd00c 	sub	sp, sp, #12
    47e8:	e59f304c 	ldr	r3, [pc, #76]	; 483c <power_init+0x60>
    47ec:	e3a02101 	mov	r2, #1073741824	; 0x40000000
    47f0:	e5832000 	str	r2, [r3]
    47f4:	e59f3044 	ldr	r3, [pc, #68]	; 4840 <power_init+0x64>
    47f8:	e5933000 	ldr	r3, [r3]
    47fc:	e50b3008 	str	r3, [fp, #-8]
    4800:	e51b3008 	ldr	r3, [fp, #-8]
    4804:	e203301f 	and	r3, r3, #31
    4808:	e50b3008 	str	r3, [fp, #-8]
    480c:	e51b3008 	ldr	r3, [fp, #-8]
    4810:	e383301a 	orr	r3, r3, #26
    4814:	e50b3008 	str	r3, [fp, #-8]
    4818:	e59f3020 	ldr	r3, [pc, #32]	; 4840 <power_init+0x64>
    481c:	e59f201c 	ldr	r2, [pc, #28]	; 4840 <power_init+0x64>
    4820:	e5921000 	ldr	r1, [r2]
    4824:	e51b2008 	ldr	r2, [fp, #-8]
    4828:	e1812002 	orr	r2, r1, r2
    482c:	e5832000 	str	r2, [r3]
    4830:	e28bd000 	add	sp, fp, #0
    4834:	e49db004 	pop	{fp}		; (ldr fp, [sp], #4)
    4838:	e12fff1e 	bx	lr
    483c:	80044008 	andhi	r4, r4, r8
    4840:	80044040 	andhi	r4, r4, r0, asr #32

00004844 <pin_init>:
    4844:	e52db004 	push	{fp}		; (str fp, [sp, #-4]!)
    4848:	e28db000 	add	fp, sp, #0
    484c:	e59f3064 	ldr	r3, [pc, #100]	; 48b8 <pin_init+0x74>
    4850:	e3a02903 	mov	r2, #49152	; 0xc000
    4854:	e5832000 	str	r2, [r3]
    4858:	e59f305c 	ldr	r3, [pc, #92]	; 48bc <pin_init+0x78>
    485c:	e3a020c0 	mov	r2, #192	; 0xc0
    4860:	e5832000 	str	r2, [r3]
    4864:	e59f3050 	ldr	r3, [pc, #80]	; 48bc <pin_init+0x78>
    4868:	e3a02403 	mov	r2, #50331648	; 0x3000000
    486c:	e5832000 	str	r2, [r3]
    4870:	e59f3048 	ldr	r3, [pc, #72]	; 48c0 <pin_init+0x7c>
    4874:	e3a02502 	mov	r2, #8388608	; 0x800000
    4878:	e5832000 	str	r2, [r3]
    487c:	e59f3040 	ldr	r3, [pc, #64]	; 48c4 <pin_init+0x80>
    4880:	e3a02702 	mov	r2, #524288	; 0x80000
    4884:	e5832000 	str	r2, [r3]
    4888:	e59f3034 	ldr	r3, [pc, #52]	; 48c4 <pin_init+0x80>
    488c:	e3a02201 	mov	r2, #268435456	; 0x10000000
    4890:	e5832000 	str	r2, [r3]
    4894:	e59f302c 	ldr	r3, [pc, #44]	; 48c8 <pin_init+0x84>
    4898:	e3a02702 	mov	r2, #524288	; 0x80000
    489c:	e5832000 	str	r2, [r3]
    48a0:	e59f3020 	ldr	r3, [pc, #32]	; 48c8 <pin_init+0x84>
    48a4:	e3a02201 	mov	r2, #268435456	; 0x10000000
    48a8:	e5832000 	str	r2, [r3]
    48ac:	e28bd000 	add	sp, fp, #0
    48b0:	e49db004 	pop	{fp}		; (ldr fp, [sp], #4)
    48b4:	e12fff1e 	bx	lr
    48b8:	80018114 	andhi	r8, r1, r4, lsl r1
    48bc:	80018134 	andhi	r8, r1, r4, lsr r1
    48c0:	80018708 	andhi	r8, r1, r8, lsl #14
    48c4:	80018514 	andhi	r8, r1, r4, lsl r5
    48c8:	80018714 	andhi	r8, r1, r4, lsl r7

000048cc <cpu_init>:
    48cc:	e92d4800 	push	{fp, lr}
    48d0:	e28db004 	add	fp, sp, #4
    48d4:	e24dd008 	sub	sp, sp, #8
    48d8:	e59f3090 	ldr	r3, [pc, #144]	; 4970 <cpu_init+0xa4>
    48dc:	e3a02801 	mov	r2, #65536	; 0x10000
    48e0:	e5832000 	str	r2, [r3]
    48e4:	e3a000a0 	mov	r0, #160	; 0xa0
    48e8:	eb00030d 	bl	5524 <udelay>
    48ec:	e59f3080 	ldr	r3, [pc, #128]	; 4974 <cpu_init+0xa8>
    48f0:	e3a0203f 	mov	r2, #63	; 0x3f
    48f4:	e5832000 	str	r2, [r3]
    48f8:	e59f3078 	ldr	r3, [pc, #120]	; 4978 <cpu_init+0xac>
    48fc:	e3a02013 	mov	r2, #19
    4900:	e5832000 	str	r2, [r3]
    4904:	e59f3068 	ldr	r3, [pc, #104]	; 4974 <cpu_init+0xa8>
    4908:	e3a02080 	mov	r2, #128	; 0x80
    490c:	e5832000 	str	r2, [r3]
    4910:	e59f3064 	ldr	r3, [pc, #100]	; 497c <cpu_init+0xb0>
    4914:	e5933000 	ldr	r3, [r3]
    4918:	e2033001 	and	r3, r3, #1
    491c:	e50b3008 	str	r3, [fp, #-8]
    4920:	e1a00000 	nop			; (mov r0, r0)
    4924:	e59f3050 	ldr	r3, [pc, #80]	; 497c <cpu_init+0xb0>
    4928:	e5932000 	ldr	r2, [r3]
    492c:	e51b3008 	ldr	r3, [fp, #-8]
    4930:	e1520003 	cmp	r2, r3
    4934:	0afffffa 	beq	4924 <cpu_init+0x58>
    4938:	e59f3040 	ldr	r3, [pc, #64]	; 4980 <cpu_init+0xb4>
    493c:	e3a02001 	mov	r2, #1
    4940:	e5832000 	str	r2, [r3]
    4944:	e59f3038 	ldr	r3, [pc, #56]	; 4984 <cpu_init+0xb8>
    4948:	e3a0201f 	mov	r2, #31
    494c:	e5832000 	str	r2, [r3]
    4950:	e59f3030 	ldr	r3, [pc, #48]	; 4988 <cpu_init+0xbc>
    4954:	e3a0201c 	mov	r2, #28
    4958:	e5832000 	str	r2, [r3]
    495c:	e59f3028 	ldr	r3, [pc, #40]	; 498c <cpu_init+0xc0>
    4960:	e3a02080 	mov	r2, #128	; 0x80
    4964:	e5832000 	str	r2, [r3]
    4968:	e24bd004 	sub	sp, fp, #4
    496c:	e8bd8800 	pop	{fp, pc}
    4970:	80040004 	andhi	r0, r4, r4
    4974:	800400f8 	strdhi	r0, [r4], -r8
    4978:	800400f4 	strdhi	r0, [r4], -r4
    497c:	800400f0 	strdhi	r0, [r4], -r0	; <UNPREDICTABLE>
    4980:	80040024 	andhi	r0, r4, r4, lsr #32
    4984:	80040034 	andhi	r0, r4, r4, lsr r0
    4988:	80040038 	andhi	r0, r4, r8, lsr r0
    498c:	80040118 	andhi	r0, r4, r8, lsl r1

00004990 <init_taglist>:
    4990:	e52db004 	push	{fp}		; (str fp, [sp, #-4]!)
    4994:	e28db000 	add	fp, sp, #0
    4998:	e24dd014 	sub	sp, sp, #20
    499c:	e50b0010 	str	r0, [fp, #-16]
    49a0:	e51b2010 	ldr	r2, [fp, #-16]
    49a4:	e59f31fc 	ldr	r3, [pc, #508]	; 4ba8 <init_taglist+0x218>
    49a8:	e5832000 	str	r2, [r3]
    49ac:	e59f31f4 	ldr	r3, [pc, #500]	; 4ba8 <init_taglist+0x218>
    49b0:	e5933000 	ldr	r3, [r3]
    49b4:	e59f21f0 	ldr	r2, [pc, #496]	; 4bac <init_taglist+0x21c>
    49b8:	e5832004 	str	r2, [r3, #4]
    49bc:	e59f31e4 	ldr	r3, [pc, #484]	; 4ba8 <init_taglist+0x218>
    49c0:	e5933000 	ldr	r3, [r3]
    49c4:	e3a02005 	mov	r2, #5
    49c8:	e5832000 	str	r2, [r3]
    49cc:	e59f31d4 	ldr	r3, [pc, #468]	; 4ba8 <init_taglist+0x218>
    49d0:	e5933000 	ldr	r3, [r3]
    49d4:	e3a02001 	mov	r2, #1
    49d8:	e5832008 	str	r2, [r3, #8]
    49dc:	e59f31c4 	ldr	r3, [pc, #452]	; 4ba8 <init_taglist+0x218>
    49e0:	e5933000 	ldr	r3, [r3]
    49e4:	e3a02a01 	mov	r2, #4096	; 0x1000
    49e8:	e583200c 	str	r2, [r3, #12]
    49ec:	e59f31b4 	ldr	r3, [pc, #436]	; 4ba8 <init_taglist+0x218>
    49f0:	e5933000 	ldr	r3, [r3]
    49f4:	e3a02000 	mov	r2, #0
    49f8:	e5832010 	str	r2, [r3, #16]
    49fc:	e59f31a4 	ldr	r3, [pc, #420]	; 4ba8 <init_taglist+0x218>
    4a00:	e5932000 	ldr	r2, [r3]
    4a04:	e59f319c 	ldr	r3, [pc, #412]	; 4ba8 <init_taglist+0x218>
    4a08:	e5933000 	ldr	r3, [r3]
    4a0c:	e5933000 	ldr	r3, [r3]
    4a10:	e1a03103 	lsl	r3, r3, #2
    4a14:	e0822003 	add	r2, r2, r3
    4a18:	e59f3188 	ldr	r3, [pc, #392]	; 4ba8 <init_taglist+0x218>
    4a1c:	e5832000 	str	r2, [r3]
    4a20:	e59f3180 	ldr	r3, [pc, #384]	; 4ba8 <init_taglist+0x218>
    4a24:	e5933000 	ldr	r3, [r3]
    4a28:	e59f2180 	ldr	r2, [pc, #384]	; 4bb0 <init_taglist+0x220>
    4a2c:	e5832004 	str	r2, [r3, #4]
    4a30:	e59f3170 	ldr	r3, [pc, #368]	; 4ba8 <init_taglist+0x218>
    4a34:	e5933000 	ldr	r3, [r3]
    4a38:	e3a02025 	mov	r2, #37	; 0x25
    4a3c:	e5832000 	str	r2, [r3]
    4a40:	e3a03000 	mov	r3, #0
    4a44:	e50b3008 	str	r3, [fp, #-8]
    4a48:	ea00000d 	b	4a84 <init_taglist+0xf4>
    4a4c:	e59f3154 	ldr	r3, [pc, #340]	; 4ba8 <init_taglist+0x218>
    4a50:	e5930000 	ldr	r0, [r3]
    4a54:	e59f2158 	ldr	r2, [pc, #344]	; 4bb4 <init_taglist+0x224>
    4a58:	e51b3008 	ldr	r3, [fp, #-8]
    4a5c:	e0823003 	add	r3, r2, r3
    4a60:	e5d32000 	ldrb	r2, [r3]
    4a64:	e3a03008 	mov	r3, #8
    4a68:	e51b1008 	ldr	r1, [fp, #-8]
    4a6c:	e0801001 	add	r1, r0, r1
    4a70:	e0813003 	add	r3, r1, r3
    4a74:	e5c32000 	strb	r2, [r3]
    4a78:	e51b3008 	ldr	r3, [fp, #-8]
    4a7c:	e2833001 	add	r3, r3, #1
    4a80:	e50b3008 	str	r3, [fp, #-8]
    4a84:	e51b3008 	ldr	r3, [fp, #-8]
    4a88:	e353008a 	cmp	r3, #138	; 0x8a
    4a8c:	9affffee 	bls	4a4c <init_taglist+0xbc>
    4a90:	e59f3110 	ldr	r3, [pc, #272]	; 4ba8 <init_taglist+0x218>
    4a94:	e5932000 	ldr	r2, [r3]
    4a98:	e59f3108 	ldr	r3, [pc, #264]	; 4ba8 <init_taglist+0x218>
    4a9c:	e5933000 	ldr	r3, [r3]
    4aa0:	e5933000 	ldr	r3, [r3]
    4aa4:	e1a03103 	lsl	r3, r3, #2
    4aa8:	e0822003 	add	r2, r2, r3
    4aac:	e59f30f4 	ldr	r3, [pc, #244]	; 4ba8 <init_taglist+0x218>
    4ab0:	e5832000 	str	r2, [r3]
    4ab4:	e59f30ec 	ldr	r3, [pc, #236]	; 4ba8 <init_taglist+0x218>
    4ab8:	e5933000 	ldr	r3, [r3]
    4abc:	e59f20f4 	ldr	r2, [pc, #244]	; 4bb8 <init_taglist+0x228>
    4ac0:	e5832004 	str	r2, [r3, #4]
    4ac4:	e59f30dc 	ldr	r3, [pc, #220]	; 4ba8 <init_taglist+0x218>
    4ac8:	e5933000 	ldr	r3, [r3]
    4acc:	e3a02004 	mov	r2, #4
    4ad0:	e5832000 	str	r2, [r3]
    4ad4:	e59f30cc 	ldr	r3, [pc, #204]	; 4ba8 <init_taglist+0x218>
    4ad8:	e5933000 	ldr	r3, [r3]
    4adc:	e3a02301 	mov	r2, #67108864	; 0x4000000
    4ae0:	e5832008 	str	r2, [r3, #8]
    4ae4:	e59f30bc 	ldr	r3, [pc, #188]	; 4ba8 <init_taglist+0x218>
    4ae8:	e5933000 	ldr	r3, [r3]
    4aec:	e3a02101 	mov	r2, #1073741824	; 0x40000000
    4af0:	e583200c 	str	r2, [r3, #12]
    4af4:	e59f30ac 	ldr	r3, [pc, #172]	; 4ba8 <init_taglist+0x218>
    4af8:	e5932000 	ldr	r2, [r3]
    4afc:	e59f30a4 	ldr	r3, [pc, #164]	; 4ba8 <init_taglist+0x218>
    4b00:	e5933000 	ldr	r3, [r3]
    4b04:	e5933000 	ldr	r3, [r3]
    4b08:	e1a03103 	lsl	r3, r3, #2
    4b0c:	e0822003 	add	r2, r2, r3
    4b10:	e59f3090 	ldr	r3, [pc, #144]	; 4ba8 <init_taglist+0x218>
    4b14:	e5832000 	str	r2, [r3]
    4b18:	e59f3088 	ldr	r3, [pc, #136]	; 4ba8 <init_taglist+0x218>
    4b1c:	e5933000 	ldr	r3, [r3]
    4b20:	e59f2094 	ldr	r2, [pc, #148]	; 4bbc <init_taglist+0x22c>
    4b24:	e5832004 	str	r2, [r3, #4]
    4b28:	e59f3078 	ldr	r3, [pc, #120]	; 4ba8 <init_taglist+0x218>
    4b2c:	e5933000 	ldr	r3, [r3]
    4b30:	e3a02004 	mov	r2, #4
    4b34:	e5832000 	str	r2, [r3]
    4b38:	e59f3068 	ldr	r3, [pc, #104]	; 4ba8 <init_taglist+0x218>
    4b3c:	e5933000 	ldr	r3, [r3]
    4b40:	e3a02502 	mov	r2, #8388608	; 0x800000
    4b44:	e583200c 	str	r2, [r3, #12]
    4b48:	e59f3058 	ldr	r3, [pc, #88]	; 4ba8 <init_taglist+0x218>
    4b4c:	e5933000 	ldr	r3, [r3]
    4b50:	e59f2068 	ldr	r2, [pc, #104]	; 4bc0 <init_taglist+0x230>
    4b54:	e5832008 	str	r2, [r3, #8]
    4b58:	e59f3048 	ldr	r3, [pc, #72]	; 4ba8 <init_taglist+0x218>
    4b5c:	e5932000 	ldr	r2, [r3]
    4b60:	e59f3040 	ldr	r3, [pc, #64]	; 4ba8 <init_taglist+0x218>
    4b64:	e5933000 	ldr	r3, [r3]
    4b68:	e5933000 	ldr	r3, [r3]
    4b6c:	e1a03103 	lsl	r3, r3, #2
    4b70:	e0822003 	add	r2, r2, r3
    4b74:	e59f302c 	ldr	r3, [pc, #44]	; 4ba8 <init_taglist+0x218>
    4b78:	e5832000 	str	r2, [r3]
    4b7c:	e59f3024 	ldr	r3, [pc, #36]	; 4ba8 <init_taglist+0x218>
    4b80:	e5933000 	ldr	r3, [r3]
    4b84:	e3a02000 	mov	r2, #0
    4b88:	e5832004 	str	r2, [r3, #4]
    4b8c:	e59f3014 	ldr	r3, [pc, #20]	; 4ba8 <init_taglist+0x218>
    4b90:	e5933000 	ldr	r3, [r3]
    4b94:	e3a02000 	mov	r2, #0
    4b98:	e5832000 	str	r2, [r3]
    4b9c:	e28bd000 	add	sp, fp, #0
    4ba0:	e49db004 	pop	{fp}		; (ldr fp, [sp], #4)
    4ba4:	e12fff1e 	bx	lr
    4ba8:	0000611c 	andeq	r6, r0, ip, lsl r1
    4bac:	54410001 	strbpl	r0, [r1], #-1
    4bb0:	54410009 	strbpl	r0, [r1], #-9
    4bb4:	00006010 	andeq	r6, r0, r0, lsl r0
    4bb8:	54410002 	strbpl	r0, [r1], #-2
    4bbc:	54420005 	strbpl	r0, [r2], #-5
    4bc0:	40800000 	addmi	r0, r0, r0

00004bc4 <strcpy>:
    4bc4:	e52db004 	push	{fp}		; (str fp, [sp, #-4]!)
    4bc8:	e28db000 	add	fp, sp, #0
    4bcc:	e24dd014 	sub	sp, sp, #20
    4bd0:	e50b0010 	str	r0, [fp, #-16]
    4bd4:	e50b1014 	str	r1, [fp, #-20]	; 0xffffffec
    4bd8:	e51b3010 	ldr	r3, [fp, #-16]
    4bdc:	e50b3008 	str	r3, [fp, #-8]
    4be0:	ea000009 	b	4c0c <strcpy+0x48>
    4be4:	e51b3014 	ldr	r3, [fp, #-20]	; 0xffffffec
    4be8:	e5d32000 	ldrb	r2, [r3]
    4bec:	e51b3008 	ldr	r3, [fp, #-8]
    4bf0:	e5c32000 	strb	r2, [r3]
    4bf4:	e51b3008 	ldr	r3, [fp, #-8]
    4bf8:	e2833001 	add	r3, r3, #1
    4bfc:	e50b3008 	str	r3, [fp, #-8]
    4c00:	e51b3014 	ldr	r3, [fp, #-20]	; 0xffffffec
    4c04:	e2833001 	add	r3, r3, #1
    4c08:	e50b3014 	str	r3, [fp, #-20]	; 0xffffffec
    4c0c:	e51b3014 	ldr	r3, [fp, #-20]	; 0xffffffec
    4c10:	e5d33000 	ldrb	r3, [r3]
    4c14:	e3530000 	cmp	r3, #0
    4c18:	1afffff1 	bne	4be4 <strcpy+0x20>
    4c1c:	e51b3010 	ldr	r3, [fp, #-16]
    4c20:	e1a00003 	mov	r0, r3
    4c24:	e28bd000 	add	sp, fp, #0
    4c28:	e49db004 	pop	{fp}		; (ldr fp, [sp], #4)
    4c2c:	e12fff1e 	bx	lr

00004c30 <memcpy>:
    4c30:	e52db004 	push	{fp}		; (str fp, [sp, #-4]!)
    4c34:	e28db000 	add	fp, sp, #0
    4c38:	e24dd01c 	sub	sp, sp, #28
    4c3c:	e50b0010 	str	r0, [fp, #-16]
    4c40:	e50b1014 	str	r1, [fp, #-20]	; 0xffffffec
    4c44:	e50b2018 	str	r2, [fp, #-24]	; 0xffffffe8
    4c48:	e51b3010 	ldr	r3, [fp, #-16]
    4c4c:	e50b3008 	str	r3, [fp, #-8]
    4c50:	e51b3014 	ldr	r3, [fp, #-20]	; 0xffffffec
    4c54:	e50b300c 	str	r3, [fp, #-12]
    4c58:	ea00000c 	b	4c90 <memcpy+0x60>
    4c5c:	e51b300c 	ldr	r3, [fp, #-12]
    4c60:	e5d32000 	ldrb	r2, [r3]
    4c64:	e51b3008 	ldr	r3, [fp, #-8]
    4c68:	e5c32000 	strb	r2, [r3]
    4c6c:	e51b3008 	ldr	r3, [fp, #-8]
    4c70:	e2833001 	add	r3, r3, #1
    4c74:	e50b3008 	str	r3, [fp, #-8]
    4c78:	e51b300c 	ldr	r3, [fp, #-12]
    4c7c:	e2833001 	add	r3, r3, #1
    4c80:	e50b300c 	str	r3, [fp, #-12]
    4c84:	e51b3018 	ldr	r3, [fp, #-24]	; 0xffffffe8
    4c88:	e2433001 	sub	r3, r3, #1
    4c8c:	e50b3018 	str	r3, [fp, #-24]	; 0xffffffe8
    4c90:	e51b3018 	ldr	r3, [fp, #-24]	; 0xffffffe8
    4c94:	e3530000 	cmp	r3, #0
    4c98:	caffffef 	bgt	4c5c <memcpy+0x2c>
    4c9c:	e51b3010 	ldr	r3, [fp, #-16]
    4ca0:	e1a00003 	mov	r0, r3
    4ca4:	e28bd000 	add	sp, fp, #0
    4ca8:	e49db004 	pop	{fp}		; (ldr fp, [sp], #4)
    4cac:	e12fff1e 	bx	lr

00004cb0 <strcmp>:
    4cb0:	e52db004 	push	{fp}		; (str fp, [sp, #-4]!)
    4cb4:	e28db000 	add	fp, sp, #0
    4cb8:	e24dd00c 	sub	sp, sp, #12
    4cbc:	e50b0008 	str	r0, [fp, #-8]
    4cc0:	e50b100c 	str	r1, [fp, #-12]
    4cc4:	ea000012 	b	4d14 <strcmp+0x64>
    4cc8:	e51b3008 	ldr	r3, [fp, #-8]
    4ccc:	e5d32000 	ldrb	r2, [r3]
    4cd0:	e51b300c 	ldr	r3, [fp, #-12]
    4cd4:	e5d33000 	ldrb	r3, [r3]
    4cd8:	e1520003 	cmp	r2, r3
    4cdc:	0a000006 	beq	4cfc <strcmp+0x4c>
    4ce0:	e51b3008 	ldr	r3, [fp, #-8]
    4ce4:	e5d33000 	ldrb	r3, [r3]
    4ce8:	e1a02003 	mov	r2, r3
    4cec:	e51b300c 	ldr	r3, [fp, #-12]
    4cf0:	e5d33000 	ldrb	r3, [r3]
    4cf4:	e0633002 	rsb	r3, r3, r2
    4cf8:	ea00000e 	b	4d38 <strcmp+0x88>
    4cfc:	e51b3008 	ldr	r3, [fp, #-8]
    4d00:	e2833001 	add	r3, r3, #1
    4d04:	e50b3008 	str	r3, [fp, #-8]
    4d08:	e51b300c 	ldr	r3, [fp, #-12]
    4d0c:	e2833001 	add	r3, r3, #1
    4d10:	e50b300c 	str	r3, [fp, #-12]
    4d14:	e51b3008 	ldr	r3, [fp, #-8]
    4d18:	e5d33000 	ldrb	r3, [r3]
    4d1c:	e3530000 	cmp	r3, #0
    4d20:	0a000003 	beq	4d34 <strcmp+0x84>
    4d24:	e51b300c 	ldr	r3, [fp, #-12]
    4d28:	e5d33000 	ldrb	r3, [r3]
    4d2c:	e3530000 	cmp	r3, #0
    4d30:	1affffe4 	bne	4cc8 <strcmp+0x18>
    4d34:	e3a03000 	mov	r3, #0
    4d38:	e1a00003 	mov	r0, r3
    4d3c:	e28bd000 	add	sp, fp, #0
    4d40:	e49db004 	pop	{fp}		; (ldr fp, [sp], #4)
    4d44:	e12fff1e 	bx	lr

00004d48 <strlen>:
    4d48:	e52db004 	push	{fp}		; (str fp, [sp, #-4]!)
    4d4c:	e28db000 	add	fp, sp, #0
    4d50:	e24dd014 	sub	sp, sp, #20
    4d54:	e50b0010 	str	r0, [fp, #-16]
    4d58:	e51b3010 	ldr	r3, [fp, #-16]
    4d5c:	e50b3008 	str	r3, [fp, #-8]
    4d60:	ea000002 	b	4d70 <strlen+0x28>
    4d64:	e51b3008 	ldr	r3, [fp, #-8]
    4d68:	e2833001 	add	r3, r3, #1
    4d6c:	e50b3008 	str	r3, [fp, #-8]
    4d70:	e51b3008 	ldr	r3, [fp, #-8]
    4d74:	e5d33000 	ldrb	r3, [r3]
    4d78:	e3530000 	cmp	r3, #0
    4d7c:	1afffff8 	bne	4d64 <strlen+0x1c>
    4d80:	e51b2008 	ldr	r2, [fp, #-8]
    4d84:	e51b3010 	ldr	r3, [fp, #-16]
    4d88:	e0633002 	rsb	r3, r3, r2
    4d8c:	e1a00003 	mov	r0, r3
    4d90:	e28bd000 	add	sp, fp, #0
    4d94:	e49db004 	pop	{fp}		; (ldr fp, [sp], #4)
    4d98:	e12fff1e 	bx	lr

00004d9c <pow_w>:
    4d9c:	e52db004 	push	{fp}		; (str fp, [sp, #-4]!)
    4da0:	e28db000 	add	fp, sp, #0
    4da4:	e24dd014 	sub	sp, sp, #20
    4da8:	e50b0010 	str	r0, [fp, #-16]
    4dac:	e50b1014 	str	r1, [fp, #-20]	; 0xffffffec
    4db0:	e3a03001 	mov	r3, #1
    4db4:	e50b3008 	str	r3, [fp, #-8]
    4db8:	e51b3014 	ldr	r3, [fp, #-20]	; 0xffffffec
    4dbc:	e3530000 	cmp	r3, #0
    4dc0:	1a000001 	bne	4dcc <pow_w+0x30>
    4dc4:	e3a03001 	mov	r3, #1
    4dc8:	ea00000e 	b	4e08 <pow_w+0x6c>
    4dcc:	e3a03001 	mov	r3, #1
    4dd0:	e50b300c 	str	r3, [fp, #-12]
    4dd4:	ea000006 	b	4df4 <pow_w+0x58>
    4dd8:	e51b3008 	ldr	r3, [fp, #-8]
    4ddc:	e51b2010 	ldr	r2, [fp, #-16]
    4de0:	e0030392 	mul	r3, r2, r3
    4de4:	e50b3008 	str	r3, [fp, #-8]
    4de8:	e51b300c 	ldr	r3, [fp, #-12]
    4dec:	e2833001 	add	r3, r3, #1
    4df0:	e50b300c 	str	r3, [fp, #-12]
    4df4:	e51b200c 	ldr	r2, [fp, #-12]
    4df8:	e51b3014 	ldr	r3, [fp, #-20]	; 0xffffffec
    4dfc:	e1520003 	cmp	r2, r3
    4e00:	dafffff4 	ble	4dd8 <pow_w+0x3c>
    4e04:	e51b3008 	ldr	r3, [fp, #-8]
    4e08:	e1a00003 	mov	r0, r3
    4e0c:	e28bd000 	add	sp, fp, #0
    4e10:	e49db004 	pop	{fp}		; (ldr fp, [sp], #4)
    4e14:	e12fff1e 	bx	lr

00004e18 <atoi>:
    4e18:	e92d4810 	push	{r4, fp, lr}
    4e1c:	e28db008 	add	fp, sp, #8
    4e20:	e24dd01c 	sub	sp, sp, #28
    4e24:	e50b0020 	str	r0, [fp, #-32]	; 0xffffffe0
    4e28:	e3a03000 	mov	r3, #0
    4e2c:	e50b3014 	str	r3, [fp, #-20]	; 0xffffffec
    4e30:	e51b0020 	ldr	r0, [fp, #-32]	; 0xffffffe0
    4e34:	ebffffc3 	bl	4d48 <strlen>
    4e38:	e50b0018 	str	r0, [fp, #-24]	; 0xffffffe8
    4e3c:	e51b3018 	ldr	r3, [fp, #-24]	; 0xffffffe8
    4e40:	e50b3010 	str	r3, [fp, #-16]
    4e44:	ea000023 	b	4ed8 <atoi+0xc0>
    4e48:	e51b3010 	ldr	r3, [fp, #-16]
    4e4c:	e2433001 	sub	r3, r3, #1
    4e50:	e51b2020 	ldr	r2, [fp, #-32]	; 0xffffffe0
    4e54:	e0823003 	add	r3, r2, r3
    4e58:	e5d33000 	ldrb	r3, [r3]
    4e5c:	e353002f 	cmp	r3, #47	; 0x2f
    4e60:	8a000008 	bhi	4e88 <atoi+0x70>
    4e64:	e51b3010 	ldr	r3, [fp, #-16]
    4e68:	e2433001 	sub	r3, r3, #1
    4e6c:	e51b2020 	ldr	r2, [fp, #-32]	; 0xffffffe0
    4e70:	e0823003 	add	r3, r2, r3
    4e74:	e5d33000 	ldrb	r3, [r3]
    4e78:	e3530039 	cmp	r3, #57	; 0x39
    4e7c:	9a000001 	bls	4e88 <atoi+0x70>
    4e80:	e3a03000 	mov	r3, #0
    4e84:	ea000017 	b	4ee8 <atoi+0xd0>
    4e88:	e51b3010 	ldr	r3, [fp, #-16]
    4e8c:	e2433001 	sub	r3, r3, #1
    4e90:	e51b2020 	ldr	r2, [fp, #-32]	; 0xffffffe0
    4e94:	e0823003 	add	r3, r2, r3
    4e98:	e5d33000 	ldrb	r3, [r3]
    4e9c:	e2434030 	sub	r4, r3, #48	; 0x30
    4ea0:	e51b2018 	ldr	r2, [fp, #-24]	; 0xffffffe8
    4ea4:	e51b3010 	ldr	r3, [fp, #-16]
    4ea8:	e0633002 	rsb	r3, r3, r2
    4eac:	e3a0000a 	mov	r0, #10
    4eb0:	e1a01003 	mov	r1, r3
    4eb4:	ebffffb8 	bl	4d9c <pow_w>
    4eb8:	e1a03000 	mov	r3, r0
    4ebc:	e0030394 	mul	r3, r4, r3
    4ec0:	e51b2014 	ldr	r2, [fp, #-20]	; 0xffffffec
    4ec4:	e0823003 	add	r3, r2, r3
    4ec8:	e50b3014 	str	r3, [fp, #-20]	; 0xffffffec
    4ecc:	e51b3010 	ldr	r3, [fp, #-16]
    4ed0:	e2433001 	sub	r3, r3, #1
    4ed4:	e50b3010 	str	r3, [fp, #-16]
    4ed8:	e51b3010 	ldr	r3, [fp, #-16]
    4edc:	e3530000 	cmp	r3, #0
    4ee0:	caffffd8 	bgt	4e48 <atoi+0x30>
    4ee4:	e51b3014 	ldr	r3, [fp, #-20]	; 0xffffffec
    4ee8:	e1a00003 	mov	r0, r3
    4eec:	e24bd008 	sub	sp, fp, #8
    4ef0:	e8bd8810 	pop	{r4, fp, pc}

00004ef4 <atox>:
    4ef4:	e92d4810 	push	{r4, fp, lr}
    4ef8:	e28db008 	add	fp, sp, #8
    4efc:	e24dd01c 	sub	sp, sp, #28
    4f00:	e50b0020 	str	r0, [fp, #-32]	; 0xffffffe0
    4f04:	e3a03000 	mov	r3, #0
    4f08:	e50b3014 	str	r3, [fp, #-20]	; 0xffffffec
    4f0c:	e51b0020 	ldr	r0, [fp, #-32]	; 0xffffffe0
    4f10:	ebffff8c 	bl	4d48 <strlen>
    4f14:	e50b0018 	str	r0, [fp, #-24]	; 0xffffffe8
    4f18:	e51b3018 	ldr	r3, [fp, #-24]	; 0xffffffe8
    4f1c:	e50b3010 	str	r3, [fp, #-16]
    4f20:	ea000064 	b	50b8 <atox+0x1c4>
    4f24:	e51b3010 	ldr	r3, [fp, #-16]
    4f28:	e2433001 	sub	r3, r3, #1
    4f2c:	e51b2020 	ldr	r2, [fp, #-32]	; 0xffffffe0
    4f30:	e0823003 	add	r3, r2, r3
    4f34:	e5d33000 	ldrb	r3, [r3]
    4f38:	e353002f 	cmp	r3, #47	; 0x2f
    4f3c:	9a000018 	bls	4fa4 <atox+0xb0>
    4f40:	e51b3010 	ldr	r3, [fp, #-16]
    4f44:	e2433001 	sub	r3, r3, #1
    4f48:	e51b2020 	ldr	r2, [fp, #-32]	; 0xffffffe0
    4f4c:	e0823003 	add	r3, r2, r3
    4f50:	e5d33000 	ldrb	r3, [r3]
    4f54:	e3530039 	cmp	r3, #57	; 0x39
    4f58:	8a000011 	bhi	4fa4 <atox+0xb0>
    4f5c:	e51b3010 	ldr	r3, [fp, #-16]
    4f60:	e2433001 	sub	r3, r3, #1
    4f64:	e51b2020 	ldr	r2, [fp, #-32]	; 0xffffffe0
    4f68:	e0823003 	add	r3, r2, r3
    4f6c:	e5d33000 	ldrb	r3, [r3]
    4f70:	e2434030 	sub	r4, r3, #48	; 0x30
    4f74:	e51b2018 	ldr	r2, [fp, #-24]	; 0xffffffe8
    4f78:	e51b3010 	ldr	r3, [fp, #-16]
    4f7c:	e0633002 	rsb	r3, r3, r2
    4f80:	e3a00010 	mov	r0, #16
    4f84:	e1a01003 	mov	r1, r3
    4f88:	ebffff83 	bl	4d9c <pow_w>
    4f8c:	e1a03000 	mov	r3, r0
    4f90:	e0030394 	mul	r3, r4, r3
    4f94:	e51b2014 	ldr	r2, [fp, #-20]	; 0xffffffec
    4f98:	e0823003 	add	r3, r2, r3
    4f9c:	e50b3014 	str	r3, [fp, #-20]	; 0xffffffec
    4fa0:	ea000041 	b	50ac <atox+0x1b8>
    4fa4:	e51b3010 	ldr	r3, [fp, #-16]
    4fa8:	e2433001 	sub	r3, r3, #1
    4fac:	e51b2020 	ldr	r2, [fp, #-32]	; 0xffffffe0
    4fb0:	e0823003 	add	r3, r2, r3
    4fb4:	e5d33000 	ldrb	r3, [r3]
    4fb8:	e3530060 	cmp	r3, #96	; 0x60
    4fbc:	9a000018 	bls	5024 <atox+0x130>
    4fc0:	e51b3010 	ldr	r3, [fp, #-16]
    4fc4:	e2433001 	sub	r3, r3, #1
    4fc8:	e51b2020 	ldr	r2, [fp, #-32]	; 0xffffffe0
    4fcc:	e0823003 	add	r3, r2, r3
    4fd0:	e5d33000 	ldrb	r3, [r3]
    4fd4:	e3530066 	cmp	r3, #102	; 0x66
    4fd8:	8a000011 	bhi	5024 <atox+0x130>
    4fdc:	e51b3010 	ldr	r3, [fp, #-16]
    4fe0:	e2433001 	sub	r3, r3, #1
    4fe4:	e51b2020 	ldr	r2, [fp, #-32]	; 0xffffffe0
    4fe8:	e0823003 	add	r3, r2, r3
    4fec:	e5d33000 	ldrb	r3, [r3]
    4ff0:	e2434057 	sub	r4, r3, #87	; 0x57
    4ff4:	e51b2018 	ldr	r2, [fp, #-24]	; 0xffffffe8
    4ff8:	e51b3010 	ldr	r3, [fp, #-16]
    4ffc:	e0633002 	rsb	r3, r3, r2
    5000:	e3a00010 	mov	r0, #16
    5004:	e1a01003 	mov	r1, r3
    5008:	ebffff63 	bl	4d9c <pow_w>
    500c:	e1a03000 	mov	r3, r0
    5010:	e0030394 	mul	r3, r4, r3
    5014:	e51b2014 	ldr	r2, [fp, #-20]	; 0xffffffec
    5018:	e0823003 	add	r3, r2, r3
    501c:	e50b3014 	str	r3, [fp, #-20]	; 0xffffffec
    5020:	ea000021 	b	50ac <atox+0x1b8>
    5024:	e51b3010 	ldr	r3, [fp, #-16]
    5028:	e2433001 	sub	r3, r3, #1
    502c:	e51b2020 	ldr	r2, [fp, #-32]	; 0xffffffe0
    5030:	e0823003 	add	r3, r2, r3
    5034:	e5d33000 	ldrb	r3, [r3]
    5038:	e3530040 	cmp	r3, #64	; 0x40
    503c:	9a000018 	bls	50a4 <atox+0x1b0>
    5040:	e51b3010 	ldr	r3, [fp, #-16]
    5044:	e2433001 	sub	r3, r3, #1
    5048:	e51b2020 	ldr	r2, [fp, #-32]	; 0xffffffe0
    504c:	e0823003 	add	r3, r2, r3
    5050:	e5d33000 	ldrb	r3, [r3]
    5054:	e3530046 	cmp	r3, #70	; 0x46
    5058:	8a000011 	bhi	50a4 <atox+0x1b0>
    505c:	e51b3010 	ldr	r3, [fp, #-16]
    5060:	e2433001 	sub	r3, r3, #1
    5064:	e51b2020 	ldr	r2, [fp, #-32]	; 0xffffffe0
    5068:	e0823003 	add	r3, r2, r3
    506c:	e5d33000 	ldrb	r3, [r3]
    5070:	e2434037 	sub	r4, r3, #55	; 0x37
    5074:	e51b2018 	ldr	r2, [fp, #-24]	; 0xffffffe8
    5078:	e51b3010 	ldr	r3, [fp, #-16]
    507c:	e0633002 	rsb	r3, r3, r2
    5080:	e3a00010 	mov	r0, #16
    5084:	e1a01003 	mov	r1, r3
    5088:	ebffff43 	bl	4d9c <pow_w>
    508c:	e1a03000 	mov	r3, r0
    5090:	e0030394 	mul	r3, r4, r3
    5094:	e51b2014 	ldr	r2, [fp, #-20]	; 0xffffffec
    5098:	e0823003 	add	r3, r2, r3
    509c:	e50b3014 	str	r3, [fp, #-20]	; 0xffffffec
    50a0:	ea000001 	b	50ac <atox+0x1b8>
    50a4:	e3a03000 	mov	r3, #0
    50a8:	ea000006 	b	50c8 <atox+0x1d4>
    50ac:	e51b3010 	ldr	r3, [fp, #-16]
    50b0:	e2433001 	sub	r3, r3, #1
    50b4:	e50b3010 	str	r3, [fp, #-16]
    50b8:	e51b3010 	ldr	r3, [fp, #-16]
    50bc:	e3530000 	cmp	r3, #0
    50c0:	caffff97 	bgt	4f24 <atox+0x30>
    50c4:	e51b3014 	ldr	r3, [fp, #-20]	; 0xffffffec
    50c8:	e1a00003 	mov	r0, r3
    50cc:	e24bd008 	sub	sp, fp, #8
    50d0:	e8bd8810 	pop	{r4, fp, pc}

000050d4 <atoi_x>:
    50d4:	e92d4800 	push	{fp, lr}
    50d8:	e28db004 	add	fp, sp, #4
    50dc:	e24dd008 	sub	sp, sp, #8
    50e0:	e50b0008 	str	r0, [fp, #-8]
    50e4:	e51b3008 	ldr	r3, [fp, #-8]
    50e8:	e5d33000 	ldrb	r3, [r3]
    50ec:	e3530030 	cmp	r3, #48	; 0x30
    50f0:	1a000017 	bne	5154 <atoi_x+0x80>
    50f4:	e51b3008 	ldr	r3, [fp, #-8]
    50f8:	e2833001 	add	r3, r3, #1
    50fc:	e5d33000 	ldrb	r3, [r3]
    5100:	e3530078 	cmp	r3, #120	; 0x78
    5104:	13a03000 	movne	r3, #0
    5108:	03a03001 	moveq	r3, #1
    510c:	e20320ff 	and	r2, r3, #255	; 0xff
    5110:	e51b3008 	ldr	r3, [fp, #-8]
    5114:	e2833001 	add	r3, r3, #1
    5118:	e5d33000 	ldrb	r3, [r3]
    511c:	e3530058 	cmp	r3, #88	; 0x58
    5120:	13a03000 	movne	r3, #0
    5124:	03a03001 	moveq	r3, #1
    5128:	e20330ff 	and	r3, r3, #255	; 0xff
    512c:	e1823003 	orr	r3, r2, r3
    5130:	e20330ff 	and	r3, r3, #255	; 0xff
    5134:	e3530000 	cmp	r3, #0
    5138:	0a000005 	beq	5154 <atoi_x+0x80>
    513c:	e51b3008 	ldr	r3, [fp, #-8]
    5140:	e2833002 	add	r3, r3, #2
    5144:	e1a00003 	mov	r0, r3
    5148:	ebffff69 	bl	4ef4 <atox>
    514c:	e1a03000 	mov	r3, r0
    5150:	ea000002 	b	5160 <atoi_x+0x8c>
    5154:	e51b0008 	ldr	r0, [fp, #-8]
    5158:	ebffff2e 	bl	4e18 <atoi>
    515c:	e1a03000 	mov	r3, r0
    5160:	e1a00003 	mov	r0, r3
    5164:	e24bd004 	sub	sp, fp, #4
    5168:	e8bd8800 	pop	{fp, pc}

0000516c <itox>:
    516c:	e92d0810 	push	{r4, fp}
    5170:	e28db004 	add	fp, sp, #4
    5174:	e24dd028 	sub	sp, sp, #40	; 0x28
    5178:	e50b0028 	str	r0, [fp, #-40]	; 0xffffffd8
    517c:	e59f30d0 	ldr	r3, [pc, #208]	; 5254 <itox+0xe8>
    5180:	e24bc020 	sub	ip, fp, #32
    5184:	e1a04003 	mov	r4, r3
    5188:	e8b4000f 	ldm	r4!, {r0, r1, r2, r3}
    518c:	e8ac000f 	stmia	ip!, {r0, r1, r2, r3}
    5190:	e5943000 	ldr	r3, [r4]
    5194:	e5cc3000 	strb	r3, [ip]
    5198:	e3a03000 	mov	r3, #0
    519c:	e50b3008 	str	r3, [fp, #-8]
    51a0:	e3a03002 	mov	r3, #2
    51a4:	e50b300c 	str	r3, [fp, #-12]
    51a8:	ea000021 	b	5234 <itox+0xc8>
    51ac:	e51b3008 	ldr	r3, [fp, #-8]
    51b0:	e1a03103 	lsl	r3, r3, #2
    51b4:	e51b2028 	ldr	r2, [fp, #-40]	; 0xffffffd8
    51b8:	e1a03312 	lsl	r3, r2, r3
    51bc:	e1a02e23 	lsr	r2, r3, #28
    51c0:	e3e0301b 	mvn	r3, #27
    51c4:	e24b1004 	sub	r1, fp, #4
    51c8:	e0812002 	add	r2, r1, r2
    51cc:	e0823003 	add	r3, r2, r3
    51d0:	e5d32000 	ldrb	r2, [r3]
    51d4:	e59f107c 	ldr	r1, [pc, #124]	; 5258 <itox+0xec>
    51d8:	e51b300c 	ldr	r3, [fp, #-12]
    51dc:	e0813003 	add	r3, r1, r3
    51e0:	e5c32000 	strb	r2, [r3]
    51e4:	e59f206c 	ldr	r2, [pc, #108]	; 5258 <itox+0xec>
    51e8:	e51b300c 	ldr	r3, [fp, #-12]
    51ec:	e0823003 	add	r3, r2, r3
    51f0:	e5d33000 	ldrb	r3, [r3]
    51f4:	e3530030 	cmp	r3, #48	; 0x30
    51f8:	1a000002 	bne	5208 <itox+0x9c>
    51fc:	e51b300c 	ldr	r3, [fp, #-12]
    5200:	e3530002 	cmp	r3, #2
    5204:	0a000002 	beq	5214 <itox+0xa8>
    5208:	e51b300c 	ldr	r3, [fp, #-12]
    520c:	e2833001 	add	r3, r3, #1
    5210:	e50b300c 	str	r3, [fp, #-12]
    5214:	e51b300c 	ldr	r3, [fp, #-12]
    5218:	e2833001 	add	r3, r3, #1
    521c:	e59f2034 	ldr	r2, [pc, #52]	; 5258 <itox+0xec>
    5220:	e3a01000 	mov	r1, #0
    5224:	e7c21003 	strb	r1, [r2, r3]
    5228:	e51b3008 	ldr	r3, [fp, #-8]
    522c:	e2833001 	add	r3, r3, #1
    5230:	e50b3008 	str	r3, [fp, #-8]
    5234:	e51b3008 	ldr	r3, [fp, #-8]
    5238:	e3530007 	cmp	r3, #7
    523c:	daffffda 	ble	51ac <itox+0x40>
    5240:	e59f3010 	ldr	r3, [pc, #16]	; 5258 <itox+0xec>
    5244:	e1a00003 	mov	r0, r3
    5248:	e24bd004 	sub	sp, fp, #4
    524c:	e8bd0810 	pop	{r4, fp}
    5250:	e12fff1e 	bx	lr
    5254:	00005af4 	strdeq	r5, [r0], -r4
    5258:	0000609c 	muleq	r0, ip, r0

0000525c <itoa>:
    525c:	e92d4800 	push	{fp, lr}
    5260:	e28db004 	add	fp, sp, #4
    5264:	e24dd018 	sub	sp, sp, #24
    5268:	e50b0018 	str	r0, [fp, #-24]	; 0xffffffe8
    526c:	e50b101c 	str	r1, [fp, #-28]	; 0xffffffe4
    5270:	e51b3018 	ldr	r3, [fp, #-24]	; 0xffffffe8
    5274:	e50b3010 	str	r3, [fp, #-16]
    5278:	e3a03000 	mov	r3, #0
    527c:	e50b3008 	str	r3, [fp, #-8]
    5280:	ea000002 	b	5290 <itoa+0x34>
    5284:	e51b3008 	ldr	r3, [fp, #-8]
    5288:	e2833001 	add	r3, r3, #1
    528c:	e50b3008 	str	r3, [fp, #-8]
    5290:	e51b3010 	ldr	r3, [fp, #-16]
    5294:	e59f2080 	ldr	r2, [pc, #128]	; 531c <itoa+0xc0>
    5298:	e0c21293 	smull	r1, r2, r3, r2
    529c:	e1a02142 	asr	r2, r2, #2
    52a0:	e1a03fc3 	asr	r3, r3, #31
    52a4:	e0633002 	rsb	r3, r3, r2
    52a8:	e50b3010 	str	r3, [fp, #-16]
    52ac:	e51b3010 	ldr	r3, [fp, #-16]
    52b0:	e3530000 	cmp	r3, #0
    52b4:	1afffff2 	bne	5284 <itoa+0x28>
    52b8:	e3a03000 	mov	r3, #0
    52bc:	e50b300c 	str	r3, [fp, #-12]
    52c0:	ea000009 	b	52ec <itoa+0x90>
    52c4:	e3a0000a 	mov	r0, #10
    52c8:	e51b1008 	ldr	r1, [fp, #-8]
    52cc:	ebfffeb2 	bl	4d9c <pow_w>
    52d0:	e50b0014 	str	r0, [fp, #-20]	; 0xffffffec
    52d4:	e51b3008 	ldr	r3, [fp, #-8]
    52d8:	e2433001 	sub	r3, r3, #1
    52dc:	e50b3008 	str	r3, [fp, #-8]
    52e0:	e51b300c 	ldr	r3, [fp, #-12]
    52e4:	e2833001 	add	r3, r3, #1
    52e8:	e50b300c 	str	r3, [fp, #-12]
    52ec:	e51b3008 	ldr	r3, [fp, #-8]
    52f0:	e3530000 	cmp	r3, #0
    52f4:	cafffff2 	bgt	52c4 <itoa+0x68>
    52f8:	e51b300c 	ldr	r3, [fp, #-12]
    52fc:	e51b201c 	ldr	r2, [fp, #-28]	; 0xffffffe4
    5300:	e0823003 	add	r3, r2, r3
    5304:	e3a02000 	mov	r2, #0
    5308:	e5c32000 	strb	r2, [r3]
    530c:	e51b301c 	ldr	r3, [fp, #-28]	; 0xffffffe4
    5310:	e1a00003 	mov	r0, r3
    5314:	e24bd004 	sub	sp, fp, #4
    5318:	e8bd8800 	pop	{fp, pc}
    531c:	66666667 	strbtvs	r6, [r6], -r7, ror #12

00005320 <cmdline>:
    5320:	e92d4800 	push	{fp, lr}
    5324:	e28db004 	add	fp, sp, #4
    5328:	e24dd008 	sub	sp, sp, #8
    532c:	e50b0008 	str	r0, [fp, #-8]
    5330:	e59f001c 	ldr	r0, [pc, #28]	; 5354 <cmdline+0x34>
    5334:	eb000153 	bl	5888 <gets>
    5338:	e59f0014 	ldr	r0, [pc, #20]	; 5354 <cmdline+0x34>
    533c:	e51b1008 	ldr	r1, [fp, #-8]
    5340:	eb000004 	bl	5358 <cmd>
    5344:	e1a03000 	mov	r3, r0
    5348:	e1a00003 	mov	r0, r3
    534c:	e24bd004 	sub	sp, fp, #4
    5350:	e8bd8800 	pop	{fp, pc}
    5354:	00006120 	andeq	r6, r0, r0, lsr #2

00005358 <cmd>:
    5358:	e52db004 	push	{fp}		; (str fp, [sp, #-4]!)
    535c:	e28db000 	add	fp, sp, #0
    5360:	e24dd014 	sub	sp, sp, #20
    5364:	e50b0010 	str	r0, [fp, #-16]
    5368:	e50b1014 	str	r1, [fp, #-20]	; 0xffffffec
    536c:	e3a03000 	mov	r3, #0
    5370:	e50b3008 	str	r3, [fp, #-8]
    5374:	ea000000 	b	537c <cmd+0x24>
    5378:	e1a00000 	nop			; (mov r0, r0)
    537c:	e51b3010 	ldr	r3, [fp, #-16]
    5380:	e5d33000 	ldrb	r3, [r3]
    5384:	e3530020 	cmp	r3, #32
    5388:	1a000006 	bne	53a8 <cmd+0x50>
    538c:	e51b3010 	ldr	r3, [fp, #-16]
    5390:	e2833001 	add	r3, r3, #1
    5394:	e50b3010 	str	r3, [fp, #-16]
    5398:	e51b3010 	ldr	r3, [fp, #-16]
    539c:	e5d33000 	ldrb	r3, [r3]
    53a0:	e3530020 	cmp	r3, #32
    53a4:	0afffff8 	beq	538c <cmd+0x34>
    53a8:	e51b3010 	ldr	r3, [fp, #-16]
    53ac:	e5d33000 	ldrb	r3, [r3]
    53b0:	e3530000 	cmp	r3, #0
    53b4:	1a000004 	bne	53cc <cmd+0x74>
    53b8:	e51b3008 	ldr	r3, [fp, #-8]
    53bc:	e1a00003 	mov	r0, r3
    53c0:	e28bd000 	add	sp, fp, #0
    53c4:	e49db004 	pop	{fp}		; (ldr fp, [sp], #4)
    53c8:	e12fff1e 	bx	lr
    53cc:	e51b3014 	ldr	r3, [fp, #-20]	; 0xffffffec
    53d0:	e51b2010 	ldr	r2, [fp, #-16]
    53d4:	e5832000 	str	r2, [r3]
    53d8:	e51b3014 	ldr	r3, [fp, #-20]	; 0xffffffec
    53dc:	e2833004 	add	r3, r3, #4
    53e0:	e50b3014 	str	r3, [fp, #-20]	; 0xffffffec
    53e4:	ea000007 	b	5408 <cmd+0xb0>
    53e8:	e51b3010 	ldr	r3, [fp, #-16]
    53ec:	e5d33000 	ldrb	r3, [r3]
    53f0:	e3530000 	cmp	r3, #0
    53f4:	1a000003 	bne	5408 <cmd+0xb0>
    53f8:	e51b3008 	ldr	r3, [fp, #-8]
    53fc:	e2833001 	add	r3, r3, #1
    5400:	e50b3008 	str	r3, [fp, #-8]
    5404:	ea00000a 	b	5434 <cmd+0xdc>
    5408:	e51b3010 	ldr	r3, [fp, #-16]
    540c:	e5d33000 	ldrb	r3, [r3]
    5410:	e3530020 	cmp	r3, #32
    5414:	03a03000 	moveq	r3, #0
    5418:	13a03001 	movne	r3, #1
    541c:	e20330ff 	and	r3, r3, #255	; 0xff
    5420:	e51b2010 	ldr	r2, [fp, #-16]
    5424:	e2822001 	add	r2, r2, #1
    5428:	e50b2010 	str	r2, [fp, #-16]
    542c:	e3530000 	cmp	r3, #0
    5430:	1affffec 	bne	53e8 <cmd+0x90>
    5434:	e51b3010 	ldr	r3, [fp, #-16]
    5438:	e5d33000 	ldrb	r3, [r3]
    543c:	e3530000 	cmp	r3, #0
    5440:	0affffcc 	beq	5378 <cmd+0x20>
    5444:	e51b3010 	ldr	r3, [fp, #-16]
    5448:	e2433001 	sub	r3, r3, #1
    544c:	e3a02000 	mov	r2, #0
    5450:	e5c32000 	strb	r2, [r3]
    5454:	e51b3008 	ldr	r3, [fp, #-8]
    5458:	e2833001 	add	r3, r3, #1
    545c:	e50b3008 	str	r3, [fp, #-8]
    5460:	eaffffc5 	b	537c <cmd+0x24>

00005464 <cmd_get>:
    5464:	e92d4800 	push	{fp, lr}
    5468:	e28db004 	add	fp, sp, #4
    546c:	e24dd010 	sub	sp, sp, #16
    5470:	e50b0010 	str	r0, [fp, #-16]
    5474:	e59f0058 	ldr	r0, [pc, #88]	; 54d4 <cmd_get+0x70>
    5478:	eb0000ea 	bl	5828 <puts>
    547c:	e59f0054 	ldr	r0, [pc, #84]	; 54d8 <cmd_get+0x74>
    5480:	eb0000e8 	bl	5828 <puts>
    5484:	e3a03000 	mov	r3, #0
    5488:	e50b3008 	str	r3, [fp, #-8]
    548c:	ea000006 	b	54ac <cmd_get+0x48>
    5490:	e3a0002e 	mov	r0, #46	; 0x2e
    5494:	eb0000d0 	bl	57dc <putchr>
    5498:	e3a00ffa 	mov	r0, #1000	; 0x3e8
    549c:	eb000033 	bl	5570 <mdelay>
    54a0:	e51b3008 	ldr	r3, [fp, #-8]
    54a4:	e2833001 	add	r3, r3, #1
    54a8:	e50b3008 	str	r3, [fp, #-8]
    54ac:	e51b3008 	ldr	r3, [fp, #-8]
    54b0:	e3530013 	cmp	r3, #19
    54b4:	dafffff5 	ble	5490 <cmd_get+0x2c>
    54b8:	e51b0010 	ldr	r0, [fp, #-16]
    54bc:	ebffff04 	bl	50d4 <atoi_x>
    54c0:	e1a03000 	mov	r3, r0
    54c4:	e1a00003 	mov	r0, r3
    54c8:	eb000123 	bl	595c <getfile>
    54cc:	e24bd004 	sub	sp, fp, #4
    54d0:	e8bd8800 	pop	{fp, pc}
    54d4:	00005b08 	andeq	r5, r0, r8, lsl #22
    54d8:	00005b0c 	andeq	r5, r0, ip, lsl #22

000054dc <cmd_go>:
    54dc:	e92d4800 	push	{fp, lr}
    54e0:	e28db004 	add	fp, sp, #4
    54e4:	e24dd010 	sub	sp, sp, #16
    54e8:	e50b0010 	str	r0, [fp, #-16]
    54ec:	e3a03101 	mov	r3, #1073741824	; 0x40000000
    54f0:	e50b3008 	str	r3, [fp, #-8]
    54f4:	e51b0010 	ldr	r0, [fp, #-16]
    54f8:	ebfffef5 	bl	50d4 <atoi_x>
    54fc:	e1a03000 	mov	r3, r0
    5500:	e50b300c 	str	r3, [fp, #-12]
    5504:	e51b300c 	ldr	r3, [fp, #-12]
    5508:	e3a00000 	mov	r0, #0
    550c:	e59f100c 	ldr	r1, [pc, #12]	; 5520 <cmd_go+0x44>
    5510:	e51b2008 	ldr	r2, [fp, #-8]
    5514:	e12fff33 	blx	r3
    5518:	e24bd004 	sub	sp, fp, #4
    551c:	e8bd8800 	pop	{fp, pc}
    5520:	00000a45 	andeq	r0, r0, r5, asr #20

00005524 <udelay>:
    5524:	e52db004 	push	{fp}		; (str fp, [sp, #-4]!)
    5528:	e28db000 	add	fp, sp, #0
    552c:	e24dd014 	sub	sp, sp, #20
    5530:	e50b0010 	str	r0, [fp, #-16]
    5534:	e59f3030 	ldr	r3, [pc, #48]	; 556c <udelay+0x48>
    5538:	e5933000 	ldr	r3, [r3]
    553c:	e50b3008 	str	r3, [fp, #-8]
    5540:	e1a00000 	nop			; (mov r0, r0)
    5544:	e59f3020 	ldr	r3, [pc, #32]	; 556c <udelay+0x48>
    5548:	e5932000 	ldr	r2, [r3]
    554c:	e51b1008 	ldr	r1, [fp, #-8]
    5550:	e51b3010 	ldr	r3, [fp, #-16]
    5554:	e0813003 	add	r3, r1, r3
    5558:	e1520003 	cmp	r2, r3
    555c:	3afffff8 	bcc	5544 <udelay+0x20>
    5560:	e28bd000 	add	sp, fp, #0
    5564:	e49db004 	pop	{fp}		; (ldr fp, [sp], #4)
    5568:	e12fff1e 	bx	lr
    556c:	8001c0c0 	andhi	ip, r1, r0, asr #1

00005570 <mdelay>:
    5570:	e92d4800 	push	{fp, lr}
    5574:	e28db004 	add	fp, sp, #4
    5578:	e24dd008 	sub	sp, sp, #8
    557c:	e50b0008 	str	r0, [fp, #-8]
    5580:	ea000001 	b	558c <mdelay+0x1c>
    5584:	e3a00ffa 	mov	r0, #1000	; 0x3e8
    5588:	ebffffe5 	bl	5524 <udelay>
    558c:	e51b3008 	ldr	r3, [fp, #-8]
    5590:	e3530000 	cmp	r3, #0
    5594:	03a03000 	moveq	r3, #0
    5598:	13a03001 	movne	r3, #1
    559c:	e20330ff 	and	r3, r3, #255	; 0xff
    55a0:	e51b2008 	ldr	r2, [fp, #-8]
    55a4:	e2422001 	sub	r2, r2, #1
    55a8:	e50b2008 	str	r2, [fp, #-8]
    55ac:	e3530000 	cmp	r3, #0
    55b0:	1afffff3 	bne	5584 <mdelay+0x14>
    55b4:	e24bd004 	sub	sp, fp, #4
    55b8:	e8bd8800 	pop	{fp, pc}

000055bc <dm9000_index>:
    55bc:	e92d4800 	push	{fp, lr}
    55c0:	e28db004 	add	fp, sp, #4
    55c4:	e24dd018 	sub	sp, sp, #24
    55c8:	e1a03000 	mov	r3, r0
    55cc:	e54b3015 	strb	r3, [fp, #-21]	; 0xffffffeb
    55d0:	e3a03000 	mov	r3, #0
    55d4:	e50b3014 	str	r3, [fp, #-20]	; 0xffffffec
    55d8:	e59f3034 	ldr	r3, [pc, #52]	; 5614 <dm9000_index+0x58>
    55dc:	e50b3010 	str	r3, [fp, #-16]
    55e0:	e24b3015 	sub	r3, fp, #21
    55e4:	e50b300c 	str	r3, [fp, #-12]
    55e8:	e59f3028 	ldr	r3, [pc, #40]	; 5618 <dm9000_index+0x5c>
    55ec:	e50b3008 	str	r3, [fp, #-8]
    55f0:	e24b3014 	sub	r3, fp, #20
    55f4:	e3a00005 	mov	r0, #5
    55f8:	e1a01003 	mov	r1, r3
    55fc:	e3a02001 	mov	r2, #1
    5600:	eb000032 	bl	56d0 <dma_start>
    5604:	e3a03000 	mov	r3, #0
    5608:	e1a00003 	mov	r0, r3
    560c:	e24bd004 	sub	sp, fp, #4
    5610:	e8bd8800 	pop	{fp, pc}
    5614:	000110ca 	andeq	r1, r1, sl, asr #1
    5618:	00900001 	addseq	r0, r0, r1

0000561c <dm9000_read>:
    561c:	e92d4800 	push	{fp, lr}
    5620:	e28db004 	add	fp, sp, #4
    5624:	e24dd018 	sub	sp, sp, #24
    5628:	e3a03000 	mov	r3, #0
    562c:	e50b3018 	str	r3, [fp, #-24]	; 0xffffffe8
    5630:	e59f3034 	ldr	r3, [pc, #52]	; 566c <dm9000_read+0x50>
    5634:	e50b3014 	str	r3, [fp, #-20]	; 0xffffffec
    5638:	e24b3005 	sub	r3, fp, #5
    563c:	e50b3010 	str	r3, [fp, #-16]
    5640:	e59f3028 	ldr	r3, [pc, #40]	; 5670 <dm9000_read+0x54>
    5644:	e50b300c 	str	r3, [fp, #-12]
    5648:	e24b3018 	sub	r3, fp, #24
    564c:	e3a00005 	mov	r0, #5
    5650:	e1a01003 	mov	r1, r3
    5654:	e3a02001 	mov	r2, #1
    5658:	eb00001c 	bl	56d0 <dma_start>
    565c:	e55b3005 	ldrb	r3, [fp, #-5]
    5660:	e1a00003 	mov	r0, r3
    5664:	e24bd004 	sub	sp, fp, #4
    5668:	e8bd8800 	pop	{fp, pc}
    566c:	000110c9 	andeq	r1, r1, r9, asr #1
    5670:	01920001 	orrseq	r0, r2, r1

00005674 <dm9000_write>:
    5674:	e92d4800 	push	{fp, lr}
    5678:	e28db004 	add	fp, sp, #4
    567c:	e24dd018 	sub	sp, sp, #24
    5680:	e1a03000 	mov	r3, r0
    5684:	e54b3015 	strb	r3, [fp, #-21]	; 0xffffffeb
    5688:	e3a03000 	mov	r3, #0
    568c:	e50b3014 	str	r3, [fp, #-20]	; 0xffffffec
    5690:	e59f3030 	ldr	r3, [pc, #48]	; 56c8 <dm9000_write+0x54>
    5694:	e50b3010 	str	r3, [fp, #-16]
    5698:	e24b3015 	sub	r3, fp, #21
    569c:	e50b300c 	str	r3, [fp, #-12]
    56a0:	e59f3024 	ldr	r3, [pc, #36]	; 56cc <dm9000_write+0x58>
    56a4:	e50b3008 	str	r3, [fp, #-8]
    56a8:	e24b3014 	sub	r3, fp, #20
    56ac:	e3a00005 	mov	r0, #5
    56b0:	e1a01003 	mov	r1, r3
    56b4:	e3a02001 	mov	r2, #1
    56b8:	eb000004 	bl	56d0 <dma_start>
    56bc:	e1a00003 	mov	r0, r3
    56c0:	e24bd004 	sub	sp, fp, #4
    56c4:	e8bd8800 	pop	{fp, pc}
    56c8:	000110ca 	andeq	r1, r1, sl, asr #1
    56cc:	00920001 	addseq	r0, r2, r1

000056d0 <dma_start>:
    56d0:	e52db004 	push	{fp}		; (str fp, [sp, #-4]!)
    56d4:	e28db000 	add	fp, sp, #0
    56d8:	e24dd014 	sub	sp, sp, #20
    56dc:	e50b0008 	str	r0, [fp, #-8]
    56e0:	e50b100c 	str	r1, [fp, #-12]
    56e4:	e50b2010 	str	r2, [fp, #-16]
    56e8:	e59f308c 	ldr	r3, [pc, #140]	; 577c <dma_start+0xac>
    56ec:	e5931000 	ldr	r1, [r3]
    56f0:	e51b2008 	ldr	r2, [fp, #-8]
    56f4:	e1a03002 	mov	r3, r2
    56f8:	e1a03183 	lsl	r3, r3, #3
    56fc:	e0623003 	rsb	r3, r2, r3
    5700:	e1a03203 	lsl	r3, r3, #4
    5704:	e0813003 	add	r3, r1, r3
    5708:	e51b200c 	ldr	r2, [fp, #-12]
    570c:	e5832010 	str	r2, [r3, #16]
    5710:	e59f3064 	ldr	r3, [pc, #100]	; 577c <dma_start+0xac>
    5714:	e5931000 	ldr	r1, [r3]
    5718:	e51b2008 	ldr	r2, [fp, #-8]
    571c:	e1a03002 	mov	r3, r2
    5720:	e1a03183 	lsl	r3, r3, #3
    5724:	e0623003 	rsb	r3, r2, r3
    5728:	e1a03203 	lsl	r3, r3, #4
    572c:	e0813003 	add	r3, r1, r3
    5730:	e51b2010 	ldr	r2, [fp, #-16]
    5734:	e5832040 	str	r2, [r3, #64]	; 0x40
    5738:	e1a00000 	nop			; (mov r0, r0)
    573c:	e59f303c 	ldr	r3, [pc, #60]	; 5780 <dma_start+0xb0>
    5740:	e5932000 	ldr	r2, [r3]
    5744:	e3a01001 	mov	r1, #1
    5748:	e51b3008 	ldr	r3, [fp, #-8]
    574c:	e1a03311 	lsl	r3, r1, r3
    5750:	e0023003 	and	r3, r2, r3
    5754:	e3530000 	cmp	r3, #0
    5758:	0afffff7 	beq	573c <dma_start+0x6c>
    575c:	e59f3020 	ldr	r3, [pc, #32]	; 5784 <dma_start+0xb4>
    5760:	e3a01001 	mov	r1, #1
    5764:	e51b2008 	ldr	r2, [fp, #-8]
    5768:	e1a02211 	lsl	r2, r1, r2
    576c:	e5832000 	str	r2, [r3]
    5770:	e28bd000 	add	sp, fp, #0
    5774:	e49db004 	pop	{fp}		; (ldr fp, [sp], #4)
    5778:	e12fff1e 	bx	lr
    577c:	000060a8 	andeq	r6, r0, r8, lsr #1
    5780:	80004010 	andhi	r4, r0, r0, lsl r0
    5784:	80004018 	andhi	r4, r0, r8, lsl r0

00005788 <getchr>:
    5788:	e52db004 	push	{fp}		; (str fp, [sp, #-4]!)
    578c:	e28db000 	add	fp, sp, #0
    5790:	e24dd00c 	sub	sp, sp, #12
    5794:	e3a03000 	mov	r3, #0
    5798:	e54b3005 	strb	r3, [fp, #-5]
    579c:	e1a00000 	nop			; (mov r0, r0)
    57a0:	e59f302c 	ldr	r3, [pc, #44]	; 57d4 <getchr+0x4c>
    57a4:	e5933000 	ldr	r3, [r3]
    57a8:	e2033010 	and	r3, r3, #16
    57ac:	e3530000 	cmp	r3, #0
    57b0:	1afffffa 	bne	57a0 <getchr+0x18>
    57b4:	e59f301c 	ldr	r3, [pc, #28]	; 57d8 <getchr+0x50>
    57b8:	e5933000 	ldr	r3, [r3]
    57bc:	e54b3005 	strb	r3, [fp, #-5]
    57c0:	e55b3005 	ldrb	r3, [fp, #-5]
    57c4:	e1a00003 	mov	r0, r3
    57c8:	e28bd000 	add	sp, fp, #0
    57cc:	e49db004 	pop	{fp}		; (ldr fp, [sp], #4)
    57d0:	e12fff1e 	bx	lr
    57d4:	80070018 	andhi	r0, r7, r8, lsl r0
    57d8:	80070000 	andhi	r0, r7, r0

000057dc <putchr>:
    57dc:	e52db004 	push	{fp}		; (str fp, [sp, #-4]!)
    57e0:	e28db000 	add	fp, sp, #0
    57e4:	e24dd00c 	sub	sp, sp, #12
    57e8:	e1a03000 	mov	r3, r0
    57ec:	e54b3005 	strb	r3, [fp, #-5]
    57f0:	e1a00000 	nop			; (mov r0, r0)
    57f4:	e59f3024 	ldr	r3, [pc, #36]	; 5820 <putchr+0x44>
    57f8:	e5933000 	ldr	r3, [r3]
    57fc:	e2033020 	and	r3, r3, #32
    5800:	e3530000 	cmp	r3, #0
    5804:	1afffffa 	bne	57f4 <putchr+0x18>
    5808:	e59f3014 	ldr	r3, [pc, #20]	; 5824 <putchr+0x48>
    580c:	e55b2005 	ldrb	r2, [fp, #-5]
    5810:	e5832000 	str	r2, [r3]
    5814:	e28bd000 	add	sp, fp, #0
    5818:	e49db004 	pop	{fp}		; (ldr fp, [sp], #4)
    581c:	e12fff1e 	bx	lr
    5820:	80070018 	andhi	r0, r7, r8, lsl r0
    5824:	80070000 	andhi	r0, r7, r0

00005828 <puts>:
    5828:	e92d4800 	push	{fp, lr}
    582c:	e28db004 	add	fp, sp, #4
    5830:	e24dd010 	sub	sp, sp, #16
    5834:	e50b0010 	str	r0, [fp, #-16]
    5838:	e51b3010 	ldr	r3, [fp, #-16]
    583c:	e50b3008 	str	r3, [fp, #-8]
    5840:	ea000006 	b	5860 <puts+0x38>
    5844:	e51b3008 	ldr	r3, [fp, #-8]
    5848:	e5d33000 	ldrb	r3, [r3]
    584c:	e1a00003 	mov	r0, r3
    5850:	ebffffe1 	bl	57dc <putchr>
    5854:	e51b3008 	ldr	r3, [fp, #-8]
    5858:	e2833001 	add	r3, r3, #1
    585c:	e50b3008 	str	r3, [fp, #-8]
    5860:	e51b3008 	ldr	r3, [fp, #-8]
    5864:	e5d33000 	ldrb	r3, [r3]
    5868:	e3530000 	cmp	r3, #0
    586c:	1afffff4 	bne	5844 <puts+0x1c>
    5870:	e51b2008 	ldr	r2, [fp, #-8]
    5874:	e51b3010 	ldr	r3, [fp, #-16]
    5878:	e0633002 	rsb	r3, r3, r2
    587c:	e1a00003 	mov	r0, r3
    5880:	e24bd004 	sub	sp, fp, #4
    5884:	e8bd8800 	pop	{fp, pc}

00005888 <gets>:
    5888:	e92d4800 	push	{fp, lr}
    588c:	e28db004 	add	fp, sp, #4
    5890:	e24dd010 	sub	sp, sp, #16
    5894:	e50b0010 	str	r0, [fp, #-16]
    5898:	e51b3010 	ldr	r3, [fp, #-16]
    589c:	e50b3008 	str	r3, [fp, #-8]
    58a0:	ebffffb8 	bl	5788 <getchr>
    58a4:	e1a03000 	mov	r3, r0
    58a8:	e1a02003 	mov	r2, r3
    58ac:	e51b3008 	ldr	r3, [fp, #-8]
    58b0:	e5c32000 	strb	r2, [r3]
    58b4:	e51b3008 	ldr	r3, [fp, #-8]
    58b8:	e5d33000 	ldrb	r3, [r3]
    58bc:	e3530008 	cmp	r3, #8
    58c0:	1a00000e 	bne	5900 <gets+0x78>
    58c4:	e51b2008 	ldr	r2, [fp, #-8]
    58c8:	e51b3010 	ldr	r3, [fp, #-16]
    58cc:	e1520003 	cmp	r2, r3
    58d0:	9a000008 	bls	58f8 <gets+0x70>
    58d4:	e3a00008 	mov	r0, #8
    58d8:	ebffffbf 	bl	57dc <putchr>
    58dc:	e3a00020 	mov	r0, #32
    58e0:	ebffffbd 	bl	57dc <putchr>
    58e4:	e3a00008 	mov	r0, #8
    58e8:	ebffffbb 	bl	57dc <putchr>
    58ec:	e51b3008 	ldr	r3, [fp, #-8]
    58f0:	e2433001 	sub	r3, r3, #1
    58f4:	e50b3008 	str	r3, [fp, #-8]
    58f8:	e1a00000 	nop			; (mov r0, r0)
    58fc:	eaffffe7 	b	58a0 <gets+0x18>
    5900:	e51b3008 	ldr	r3, [fp, #-8]
    5904:	e5d33000 	ldrb	r3, [r3]
    5908:	e353000d 	cmp	r3, #13
    590c:	0a000003 	beq	5920 <gets+0x98>
    5910:	e51b3008 	ldr	r3, [fp, #-8]
    5914:	e5d33000 	ldrb	r3, [r3]
    5918:	e1a00003 	mov	r0, r3
    591c:	ebffffae 	bl	57dc <putchr>
    5920:	e51b3008 	ldr	r3, [fp, #-8]
    5924:	e5d33000 	ldrb	r3, [r3]
    5928:	e353000d 	cmp	r3, #13
    592c:	1a000006 	bne	594c <gets+0xc4>
    5930:	e51b3008 	ldr	r3, [fp, #-8]
    5934:	e3a02000 	mov	r2, #0
    5938:	e5c32000 	strb	r2, [r3]
    593c:	e51b3010 	ldr	r3, [fp, #-16]
    5940:	e1a00003 	mov	r0, r3
    5944:	e24bd004 	sub	sp, fp, #4
    5948:	e8bd8800 	pop	{fp, pc}
    594c:	e51b3008 	ldr	r3, [fp, #-8]
    5950:	e2833001 	add	r3, r3, #1
    5954:	e50b3008 	str	r3, [fp, #-8]
    5958:	eaffffd0 	b	58a0 <gets+0x18>

0000595c <getfile>:
    595c:	e92d4800 	push	{fp, lr}
    5960:	e28db004 	add	fp, sp, #4
    5964:	e24dd018 	sub	sp, sp, #24
    5968:	e50b0018 	str	r0, [fp, #-24]	; 0xffffffe8
    596c:	e3a03000 	mov	r3, #0
    5970:	e50b300c 	str	r3, [fp, #-12]
    5974:	e3a03000 	mov	r3, #0
    5978:	e54b300d 	strb	r3, [fp, #-13]
    597c:	e3a00015 	mov	r0, #21
    5980:	ebffff95 	bl	57dc <putchr>
    5984:	ea000029 	b	5a30 <getfile+0xd4>
    5988:	e55b300e 	ldrb	r3, [fp, #-14]
    598c:	e3530001 	cmp	r3, #1
    5990:	1a000025 	bne	5a2c <getfile+0xd0>
    5994:	ebffff7b 	bl	5788 <getchr>
    5998:	e1a03000 	mov	r3, r0
    599c:	e54b300f 	strb	r3, [fp, #-15]
    59a0:	ebffff78 	bl	5788 <getchr>
    59a4:	e1a03000 	mov	r3, r0
    59a8:	e54b3010 	strb	r3, [fp, #-16]
    59ac:	e3a03000 	mov	r3, #0
    59b0:	e50b3008 	str	r3, [fp, #-8]
    59b4:	ea000010 	b	59fc <getfile+0xa0>
    59b8:	ebffff72 	bl	5788 <getchr>
    59bc:	e1a03000 	mov	r3, r0
    59c0:	e1a02003 	mov	r2, r3
    59c4:	e51b3018 	ldr	r3, [fp, #-24]	; 0xffffffe8
    59c8:	e5c32000 	strb	r2, [r3]
    59cc:	e51b3018 	ldr	r3, [fp, #-24]	; 0xffffffe8
    59d0:	e2833001 	add	r3, r3, #1
    59d4:	e50b3018 	str	r3, [fp, #-24]	; 0xffffffe8
    59d8:	e51b3018 	ldr	r3, [fp, #-24]	; 0xffffffe8
    59dc:	e2433001 	sub	r3, r3, #1
    59e0:	e5d32000 	ldrb	r2, [r3]
    59e4:	e55b300d 	ldrb	r3, [fp, #-13]
    59e8:	e0823003 	add	r3, r2, r3
    59ec:	e54b300d 	strb	r3, [fp, #-13]
    59f0:	e51b3008 	ldr	r3, [fp, #-8]
    59f4:	e2833001 	add	r3, r3, #1
    59f8:	e50b3008 	str	r3, [fp, #-8]
    59fc:	e51b3008 	ldr	r3, [fp, #-8]
    5a00:	e353007f 	cmp	r3, #127	; 0x7f
    5a04:	daffffeb 	ble	59b8 <getfile+0x5c>
    5a08:	ebffff5e 	bl	5788 <getchr>
    5a0c:	e1a03000 	mov	r3, r0
    5a10:	e54b3011 	strb	r3, [fp, #-17]	; 0xffffffef
    5a14:	e3a00006 	mov	r0, #6
    5a18:	ebffff6f 	bl	57dc <putchr>
    5a1c:	e51b300c 	ldr	r3, [fp, #-12]
    5a20:	e2833001 	add	r3, r3, #1
    5a24:	e50b300c 	str	r3, [fp, #-12]
    5a28:	ea000000 	b	5a30 <getfile+0xd4>
    5a2c:	e1a00000 	nop			; (mov r0, r0)
    5a30:	ebffff54 	bl	5788 <getchr>
    5a34:	e1a03000 	mov	r3, r0
    5a38:	e54b300e 	strb	r3, [fp, #-14]
    5a3c:	e55b300e 	ldrb	r3, [fp, #-14]
    5a40:	e3530004 	cmp	r3, #4
    5a44:	1affffcf 	bne	5988 <getfile+0x2c>
    5a48:	e3a00006 	mov	r0, #6
    5a4c:	ebffff62 	bl	57dc <putchr>
    5a50:	e51b300c 	ldr	r3, [fp, #-12]
    5a54:	e1a00003 	mov	r0, r3
    5a58:	e24bd004 	sub	sp, fp, #4
    5a5c:	e8bd8800 	pop	{fp, pc}

Disassembly of section .data:

00006000 <help>:
    6000:	00005a68 	andeq	r5, r0, r8, ror #20
    6004:	00005a88 	andeq	r5, r0, r8, lsl #21
    6008:	00005ab0 			; <UNDEFINED> instruction: 0x00005ab0

0000600c <pTOC>:
    600c:	ffffffff 			; <UNDEFINED> instruction: 0xffffffff

00006010 <cmdlin>:
    6010:	74696e69 	strbtvc	r6, [r9], #-3689	; 0xfffff197
    6014:	696c2f3d 	stmdbvs	ip!, {r0, r2, r3, r4, r5, r8, r9, sl, fp, sp}^
    6018:	7278756e 	rsbsvc	r7, r8, #461373440	; 0x1b800000
    601c:	6f632063 	svcvs	0x00632063
    6020:	6c6f736e 	stclvs	3, cr7, [pc], #-440	; 5e70 <getfile+0x514>
    6024:	74743d65 	ldrbtvc	r3, [r4], #-3429	; 0xfffff29b
    6028:	43415379 	movtmi	r5, #4985	; 0x1379
    602c:	31312c30 	teqcc	r1, r0, lsr ip
    6030:	30303235 	eorscc	r3, r0, r5, lsr r2
    6034:	64746d20 	ldrbtvs	r6, [r4], #-3360	; 0xfffff2e0
    6038:	74726170 	ldrbtvc	r6, [r2], #-368	; 0xfffffe90
    603c:	6b613d73 	blvs	1855610 <__bss_end__+0x184f4d0>
    6040:	34326561 	ldrtcc	r6, [r2], #-1377	; 0xfffffa9f
    6044:	6e2d3034 	mcrvs	0, 1, r3, cr13, cr4, {1}
    6048:	3a646e61 	bcc	19219d4 <__bss_end__+0x191b894>
    604c:	286b3631 	stmdacs	fp!, {r0, r4, r5, r9, sl, ip, sp}^
    6050:	6f62796d 	svcvs	0x0062796d
    6054:	2c29746f 	cfstrscs	mvf7, [r9], #-444	; 0xfffffe44
    6058:	30303631 	eorscc	r3, r0, r1, lsr r6
    605c:	656b286b 	strbvs	r2, [fp, #-2155]!	; 0xfffff795
    6060:	6c656e72 	stclvs	14, cr6, [r5], #-456	; 0xfffffe38
    6064:	6d382c29 	ldcvs	12, cr2, [r8, #-164]!	; 0xffffff5c
    6068:	74786528 	ldrbtvc	r6, [r8], #-1320	; 0xfffffad8
    606c:	2d2c2932 	stccs	9, cr2, [ip, #-200]!	; 0xffffff38
    6070:	65737528 	ldrbvs	r7, [r3, #-1320]!	; 0xfffffad8
    6074:	72202972 	eorvc	r2, r0, #1867776	; 0x1c8000
    6078:	3d746f6f 	ldclcc	15, cr6, [r4, #-444]!	; 0xfffffe44
    607c:	7665642f 	strbtvc	r6, [r5], -pc, lsr #8
    6080:	6d61722f 	sfmvs	f7, 2, [r1, #-188]!	; 0xffffff44
    6084:	77722020 	ldrbvc	r2, [r2, -r0, lsr #32]!
    6088:	6d617220 	sfmvs	f7, 2, [r1, #-128]!	; 0xffffff80
    608c:	6b736964 	blvs	1ce0624 <__bss_end__+0x1cda4e4>
    6090:	7a69735f 	bvc	1a62e14 <__bss_end__+0x1a5ccd4>
    6094:	31383d65 	teqcc	r8, r5, ror #26
    6098:	00003239 	andeq	r3, r0, r9, lsr r2

0000609c <hex.4037>:
    609c:	00007830 	andeq	r7, r0, r0, lsr r8
	...

000060a8 <apbh_ch>:
    60a8:	80004040 	andhi	r4, r0, r0, asr #32

Disassembly of section .rodata:

00005a60 <.rodata>:
    5a60:	3a646162 	bcc	191dff0 <__bss_end__+0x1917eb0>
    5a64:	00000000 	andeq	r0, r0, r0
    5a68:	202d2068 	eorcs	r2, sp, r8, rrx
    5a6c:	70736964 	rsbsvc	r6, r3, r4, ror #18
    5a70:	2079616c 	rsbscs	r6, r9, ip, ror #2
    5a74:	20656874 	rsbcs	r6, r5, r4, ror r8
    5a78:	706c6568 	rsbvc	r6, ip, r8, ror #10
    5a7c:	6d6f6320 	stclvs	3, cr6, [pc, #-128]!	; 5a04 <getfile+0xa8>
    5a80:	646e616d 	strbtvs	r6, [lr], #-365	; 0xfffffe93
    5a84:	00000000 	andeq	r0, r0, r0
    5a88:	20746567 	rsbscs	r6, r4, r7, ror #10
    5a8c:	6464613c 	strbtvs	r6, [r4], #-316	; 0xfffffec4
    5a90:	73736572 	cmnvc	r3, #478150656	; 0x1c800000
    5a94:	202d203e 	eorcs	r2, sp, lr, lsr r0
    5a98:	20657375 	rsbcs	r7, r5, r5, ror r3
    5a9c:	646f6d78 	strbtvs	r6, [pc], #-3448	; 5aa4 <getfile+0x148>
    5aa0:	6c206d65 	stcvs	13, cr6, [r0], #-404	; 0xfffffe6c
    5aa4:	2064616f 	rsbcs	r6, r4, pc, ror #2
    5aa8:	616e6962 	cmnvs	lr, r2, ror #18
    5aac:	00007972 	andeq	r7, r0, r2, ror r9
    5ab0:	3c206f67 	stccc	15, cr6, [r0], #-412	; 0xfffffe64
    5ab4:	72646461 	rsbvc	r6, r4, #1627389952	; 0x61000000
    5ab8:	3e737365 	cdpcc	3, 7, cr7, cr3, cr5, {3}
    5abc:	6a202d20 	bvs	810f44 <__bss_end__+0x80ae04>
    5ac0:	20706d75 	rsbscs	r6, r0, r5, ror sp
    5ac4:	3c206f74 	stccc	15, cr6, [r0], #-464	; 0xfffffe30
    5ac8:	72646461 	rsbvc	r6, r4, #1627389952	; 0x61000000
    5acc:	3e737365 	cdpcc	3, 7, cr7, cr3, cr5, {3}
    5ad0:	00000000 	andeq	r0, r0, r0
    5ad4:	32584d49 	subscc	r4, r8, #4672	; 0x1240
    5ad8:	20233333 	eorcs	r3, r3, r3, lsr r3
    5adc:	00000000 	andeq	r0, r0, r0
    5ae0:	00000068 	andeq	r0, r0, r8, rrx
    5ae4:	00000a0d 	andeq	r0, r0, sp, lsl #20
    5ae8:	00746567 	rsbseq	r6, r4, r7, ror #10
    5aec:	00006f67 	andeq	r6, r0, r7, ror #30
    5af0:	00726464 	rsbseq	r6, r2, r4, ror #8
    5af4:	33323130 	teqcc	r2, #48, 2
    5af8:	37363534 			; <UNDEFINED> instruction: 0x37363534
    5afc:	42413938 	submi	r3, r1, #56, 18	; 0xe0000
    5b00:	46454443 	strbmi	r4, [r5], -r3, asr #8
    5b04:	00000000 	andeq	r0, r0, r0
    5b08:	00000a0d 	andeq	r0, r0, sp, lsl #20
    5b0c:	61656c70 	smcvs	22208	; 0x56c0
    5b10:	75206573 	strvc	r6, [r0, #-1395]!	; 0xfffffa8d
    5b14:	78206573 	stmdavc	r0!, {r0, r1, r4, r5, r6, r8, sl, sp, lr}
    5b18:	65646f6d 	strbvs	r6, [r4, #-3949]!	; 0xfffff093
    5b1c:	0000006d 	andeq	r0, r0, sp, rrx

Disassembly of section .bss:

000060ac <bKeepPllPowered>:
    60ac:	00000000 	andeq	r0, r0, r0

000060b0 <DetectionMethod>:
    60b0:	00000000 	andeq	r0, r0, r0

000060b4 <s_ddi_emi_vars>:
	...

0000610c <s_bSyncModeEnabled>:
    610c:	00000000 	andeq	r0, r0, r0

00006110 <s_b5V>:
    6110:	00000000 	andeq	r0, r0, r0

00006114 <s_bUsb>:
    6114:	00000000 	andeq	r0, r0, r0

00006118 <s_bBattery>:
    6118:	00000000 	andeq	r0, r0, r0

0000611c <p>:
    611c:	00000000 	andeq	r0, r0, r0

00006120 <cmdbuff>:
	...

Disassembly of section .ARM.attributes:

00000000 <.ARM.attributes>:
   0:	00002a41 	andeq	r2, r0, r1, asr #20
   4:	61656100 	cmnvs	r5, r0, lsl #2
   8:	01006962 	tsteq	r0, r2, ror #18
   c:	00000020 	andeq	r0, r0, r0, lsr #32
  10:	45543505 	ldrbmi	r3, [r4, #-1285]	; 0xfffffafb
  14:	08040600 	stmdaeq	r4, {r9, sl}
  18:	12010901 	andne	r0, r1, #16384	; 0x4000
  1c:	15011404 	strne	r1, [r1, #-1028]	; 0xfffffbfc
  20:	18031701 	stmdane	r3, {r0, r8, r9, sl, ip}
  24:	1e021a01 	vmlane.f32	s2, s4, s2
  28:	Address 0x00000028 is out of bounds.


Disassembly of section .comment:

00000000 <.comment>:
   0:	3a434347 	bcc	10d0d24 <__bss_end__+0x10cabe4>
   4:	6f532820 	svcvs	0x00532820
   8:	65637275 	strbvs	r7, [r3, #-629]!	; 0xfffffd8b
   c:	47207972 			; <UNDEFINED> instruction: 0x47207972
  10:	4c202b2b 	stcmi	11, cr2, [r0], #-172	; 0xffffff54
  14:	20657469 	rsbcs	r7, r5, r9, ror #8
  18:	31313032 	teqcc	r1, r2, lsr r0
  1c:	2d33302e 	ldccs	0, cr3, [r3, #-184]!	; 0xffffff48
  20:	20293134 	eorcs	r3, r9, r4, lsr r1
  24:	2e352e34 	mrccs	14, 1, r2, cr5, cr4, {1}
  28:	Address 0x00000028 is out of bounds.


Disassembly of section .debug_aranges:

00000000 <.debug_aranges>:
   0:	0000001c 	andeq	r0, r0, ip, lsl r0
   4:	00000002 	andeq	r0, r0, r2
   8:	00040000 	andeq	r0, r4, r0
   c:	00000000 	andeq	r0, r0, r0
  10:	00001000 	andeq	r1, r0, r0
  14:	00000258 	andeq	r0, r0, r8, asr r2
	...
  20:	0000001c 	andeq	r0, r0, ip, lsl r0
  24:	01b20002 			; <UNDEFINED> instruction: 0x01b20002
  28:	00040000 	andeq	r0, r4, r0
  2c:	00000000 	andeq	r0, r0, r0
  30:	00001258 	andeq	r1, r0, r8, asr r2
  34:	0000356c 	andeq	r3, r0, ip, ror #10
	...
  40:	0000001c 	andeq	r0, r0, ip, lsl r0
  44:	39bf0002 	ldmibcc	pc!, {r1}	; <UNPREDICTABLE>
  48:	00040000 	andeq	r0, r4, r0
  4c:	00000000 	andeq	r0, r0, r0
  50:	000047c4 	andeq	r4, r0, r4, asr #15
  54:	000001cc 	andeq	r0, r0, ip, asr #3
	...
  60:	0000001c 	andeq	r0, r0, ip, lsl r0
  64:	3a820002 	bcc	fe080074 <__bss_end__+0xfe079f34>
  68:	00040000 	andeq	r0, r4, r0
  6c:	00000000 	andeq	r0, r0, r0
  70:	00004990 	muleq	r0, r0, r9
  74:	00000234 	andeq	r0, r0, r4, lsr r2
	...
  80:	0000001c 	andeq	r0, r0, ip, lsl r0
  84:	3f530002 	svccc	0x00530002
  88:	00040000 	andeq	r0, r4, r0
  8c:	00000000 	andeq	r0, r0, r0
  90:	00004bc4 	andeq	r4, r0, r4, asr #23
  94:	0000075c 	andeq	r0, r0, ip, asr r7
	...
  a0:	0000001c 	andeq	r0, r0, ip, lsl r0
  a4:	42e50002 	rscmi	r0, r5, #2
  a8:	00040000 	andeq	r0, r4, r0
  ac:	00000000 	andeq	r0, r0, r0
  b0:	00005320 	andeq	r5, r0, r0, lsr #6
  b4:	00000204 	andeq	r0, r0, r4, lsl #4
	...
  c0:	0000001c 	andeq	r0, r0, ip, lsl r0
  c4:	44e20002 	strbtmi	r0, [r2], #2
  c8:	00040000 	andeq	r0, r4, r0
  cc:	00000000 	andeq	r0, r0, r0
  d0:	00005524 	andeq	r5, r0, r4, lsr #10
  d4:	00000098 	muleq	r0, r8, r0
	...
  e0:	0000001c 	andeq	r0, r0, ip, lsl r0
  e4:	45d70002 	ldrbmi	r0, [r7, #2]
  e8:	00040000 	andeq	r0, r4, r0
	...
  f4:	00000098 	muleq	r0, r8, r0
	...
 100:	0000001c 	andeq	r0, r0, ip, lsl r0
 104:	462d0002 	strtmi	r0, [sp], -r2
 108:	00040000 	andeq	r0, r4, r0
 10c:	00000000 	andeq	r0, r0, r0
 110:	000055bc 			; <UNDEFINED> instruction: 0x000055bc
 114:	000001cc 	andeq	r0, r0, ip, asr #3
	...
 120:	0000001c 	andeq	r0, r0, ip, lsl r0
 124:	4af60002 	bmi	ffd80134 <__bss_end__+0xffd79ff4>
 128:	00040000 	andeq	r0, r4, r0
 12c:	00000000 	andeq	r0, r0, r0
 130:	00005788 	andeq	r5, r0, r8, lsl #15
 134:	000002d8 	ldrdeq	r0, [r0], -r8
	...

Disassembly of section .debug_pubnames:

00000000 <.debug_pubnames>:
   0:	0000002c 	andeq	r0, r0, ip, lsr #32
   4:	00000002 	andeq	r0, r0, r2
   8:	01b20000 			; <UNDEFINED> instruction: 0x01b20000
   c:	00780000 	rsbseq	r0, r8, r0
  10:	64640000 	strbtvs	r0, [r4], #-0
  14:	73657472 	cmnvc	r5, #1912602624	; 0x72000000
  18:	00f00074 	rscseq	r0, r0, r4, ror r0
  1c:	614d0000 	mrsvs	r0, (UNDEF: 77)
  20:	9f006e69 	svcls	0x00006e69
  24:	68000001 	stmdavs	r0, {r0}
  28:	00706c65 	rsbseq	r6, r0, r5, ror #24
  2c:	00000000 	andeq	r0, r0, r0
  30:	0000060f 	andeq	r0, r0, pc, lsl #12
  34:	01b20002 			; <UNDEFINED> instruction: 0x01b20002
  38:	380d0000 	stmdacc	sp, {}	; <UNPREDICTABLE>
  3c:	2e5f0000 	cdpcs	0, 5, cr0, cr15, cr0, {0}
  40:	77680000 	strbvc	r0, [r8, -r0]!
  44:	696d655f 	stmdbvs	sp!, {r0, r1, r2, r3, r4, r6, r8, sl, sp, lr}^
  48:	4373495f 	cmnmi	r3, #1556480	; 0x17c000
  4c:	72746e6f 	rsbsvc	r6, r4, #1776	; 0x6f0
  50:	656c6c6f 	strbvs	r6, [ip, #-3183]!	; 0xfffff391
  54:	6c614872 	stclvs	8, cr4, [r1], #-456	; 0xfffffe38
  58:	00646574 	rsbeq	r6, r4, r4, ror r5
  5c:	00002e78 	andeq	r2, r0, r8, ror lr
  60:	635f7768 	cmpvs	pc, #104, 14	; 0x1a00000
  64:	5f65726f 	svcpl	0x0065726f
  68:	69617264 	stmdbvs	r1!, {r2, r5, r6, r9, ip, sp, lr}^
  6c:	72775f6e 	rsbsvc	r5, r7, #440	; 0x1b8
  70:	5f657469 	svcpl	0x00657469
  74:	66667562 	strbtvs	r7, [r6], -r2, ror #10
  78:	8c007265 	sfmhi	f7, 4, [r0], {101}	; 0x65
  7c:	6800002e 	stmdavs	r0, {r1, r2, r3, r5}
  80:	6d655f77 	stclvs	15, cr5, [r5, #-476]!	; 0xfffffe24
  84:	73495f69 	movtvc	r5, #40809	; 0x9f69
  88:	6d617244 	sfmvs	f7, 2, [r1, #-272]!	; 0xfffffef0
  8c:	70707553 	rsbsvc	r7, r0, r3, asr r5
  90:	6574726f 	ldrbvs	r7, [r4, #-623]!	; 0xfffffd91
  94:	2ea50064 	cdpcs	0, 10, cr0, cr5, cr4, {3}
  98:	77680000 	strbvc	r0, [r8, -r0]!
  9c:	696d655f 	stmdbvs	sp!, {r0, r1, r2, r3, r4, r6, r8, sl, sp, lr}^
  a0:	656c435f 	strbvs	r4, [ip, #-863]!	; 0xfffffca1
  a4:	65527261 	ldrbvs	r7, [r2, #-609]	; 0xfffffd9f
  a8:	00746573 	rsbseq	r6, r4, r3, ror r5
  ac:	00002eba 			; <UNDEFINED> instruction: 0x00002eba
  b0:	635f7768 	cmpvs	pc, #104, 14	; 0x1a00000
  b4:	74636b6c 	strbtvc	r6, [r3], #-2924	; 0xfffff494
  b8:	535f6c72 	cmppl	pc, #29184	; 0x7200
  bc:	6d457465 	cfstrdvs	mvd7, [r5, #-404]	; 0xfffffe6c
  c0:	6b6c4369 	blvs	1b10e6c <__bss_end__+0x1b0ad2c>
  c4:	58666552 	stmdapl	r6!, {r1, r4, r6, r8, sl, sp, lr}^
  c8:	446c6174 	strbtmi	r6, [ip], #-372	; 0xfffffe8c
  cc:	e6007669 	str	r7, [r0], -r9, ror #12
  d0:	6800002e 	stmdavs	r0, {r1, r2, r3, r5}
  d4:	6c635f77 	stclvs	15, cr5, [r3], #-476	; 0xfffffe24
  d8:	7274636b 	rsbsvc	r6, r4, #-1409286143	; 0xac000001
  dc:	65535f6c 	ldrbvs	r5, [r3, #-3948]	; 0xfffff094
  e0:	696d4574 	stmdbvs	sp!, {r2, r4, r5, r6, r8, sl, lr}^
  e4:	58666552 	stmdapl	r6!, {r1, r4, r6, r8, sl, sp, lr}^
  e8:	436c6174 	cmnmi	ip, #116, 2
  ec:	61476b6c 	cmpvs	r7, ip, ror #22
  f0:	0e006574 	cfrshl64eq	mvdx0, mvdx4, r6
  f4:	6800002f 	stmdavs	r0, {r0, r1, r2, r3, r5}
  f8:	6c635f77 	stclvs	15, cr5, [r3], #-476	; 0xfffffe24
  fc:	7274636b 	rsbsvc	r6, r4, #-1409286143	; 0xac000001
 100:	65535f6c 	ldrbvs	r5, [r3, #-3948]	; 0xfffff094
 104:	6b6c4374 	blvs	1b10edc <__bss_end__+0x1b0ad9c>
 108:	61707942 	cmnvs	r0, r2, asr #18
 10c:	5d007373 	stcpl	3, cr7, [r0, #-460]	; 0xfffffe34
 110:	6400002f 	strvs	r0, [r0], #-47	; 0xffffffd1
 114:	655f6964 	ldrbvs	r6, [pc, #-2404]	; fffff7b8 <__bss_end__+0xffff9678>
 118:	455f696d 	ldrbmi	r6, [pc, #-2413]	; fffff7b3 <__bss_end__+0xffff9673>
 11c:	7265746e 	rsbvc	r7, r5, #1845493760	; 0x6e000000
 120:	6f747541 	svcvs	0x00747541
 124:	6f6d654d 	svcvs	0x006d654d
 128:	6c437972 	mcrrvs	9, 7, r7, r3, cr2
 12c:	476b636f 	strbmi	r6, [fp, -pc, ror #6]!
 130:	4d657461 	cfstrdmi	mvd7, [r5, #-388]!	; 0xfffffe7c
 134:	0065646f 	rsbeq	r6, r5, pc, ror #8
 138:	00002f73 	andeq	r2, r0, r3, ror pc
 13c:	655f7768 	ldrbvs	r7, [pc, #-1896]	; fffff9dc <__bss_end__+0xffff989c>
 140:	455f696d 	ldrbmi	r6, [pc, #-2413]	; fffff7db <__bss_end__+0xffff969b>
 144:	7265746e 	rsbvc	r7, r5, #1845493760	; 0x6e000000
 148:	6f6d654d 	svcvs	0x006d654d
 14c:	6c437972 	mcrrvs	9, 7, r7, r3, cr2
 150:	476b636f 	strbmi	r6, [fp, -pc, ror #6]!
 154:	4d657461 	cfstrdmi	mvd7, [r5, #-388]!	; 0xfffffe7c
 158:	0065646f 	rsbeq	r6, r5, pc, ror #8
 15c:	00002f9d 	muleq	r0, sp, pc	; <UNPREDICTABLE>
 160:	655f7768 	ldrbvs	r7, [pc, #-1896]	; fffffa00 <__bss_end__+0xffff98c0>
 164:	535f696d 	cmppl	pc, #1785856	; 0x1b4000
 168:	654d7465 	strbvs	r7, [sp, #-1125]	; 0xfffffb9b
 16c:	79726f6d 	ldmdbvc	r2!, {r0, r2, r3, r5, r6, r8, r9, sl, fp, sp, lr}^
 170:	636f6c43 	cmnvs	pc, #17152	; 0x4300
 174:	7461476b 	strbtvc	r4, [r1], #-1899	; 0xfffff895
 178:	74754165 	ldrbtvc	r4, [r5], #-357	; 0xfffffe9b
 17c:	616c466f 	cmnvs	ip, pc, ror #12
 180:	2fc70067 	svccs	0x00c70067
 184:	64640000 	strbtvs	r0, [r4], #-0
 188:	6d655f69 	stclvs	15, cr5, [r5, #-420]!	; 0xfffffe5c
 18c:	78455f69 	stmdavc	r5, {r0, r3, r5, r6, r8, r9, sl, fp, ip, lr}^
 190:	75417469 	strbvc	r7, [r1, #-1129]	; 0xfffffb97
 194:	654d6f74 	strbvs	r6, [sp, #-3956]	; 0xfffff08c
 198:	79726f6d 	ldmdbvc	r2!, {r0, r2, r3, r5, r6, r8, r9, sl, fp, sp, lr}^
 19c:	666c6553 			; <UNDEFINED> instruction: 0x666c6553
 1a0:	72666552 	rsbvc	r6, r6, #343932928	; 0x14800000
 1a4:	4d687365 	stclmi	3, cr7, [r8, #-404]!	; 0xfffffe6c
 1a8:	0065646f 	rsbeq	r6, r5, pc, ror #8
 1ac:	00002fdd 	ldrdeq	r2, [r0], -sp
 1b0:	5f696464 	svcpl	0x00696464
 1b4:	5f696d65 	svcpl	0x00696d65
 1b8:	72617453 	rsbvc	r7, r1, #1392508928	; 0x53000000
 1bc:	67694874 			; <UNDEFINED> instruction: 0x67694874
 1c0:	75704368 	ldrbvc	r4, [r0, #-872]!	; 0xfffffc98
 1c4:	6f697250 	svcvs	0x00697250
 1c8:	79746972 	ldmdbvc	r4!, {r1, r4, r5, r6, r8, fp, sp, lr}^
 1cc:	002ff300 	eoreq	pc, pc, r0, lsl #6
 1d0:	69646400 	stmdbvs	r4!, {sl, sp, lr}^
 1d4:	6f6c635f 	svcvs	0x006c635f
 1d8:	5f736b63 	svcpl	0x00736b63
 1dc:	7065654b 	rsbvc	r6, r5, fp, asr #10
 1e0:	506c6c50 	rsbpl	r6, ip, r0, asr ip
 1e4:	7265776f 	rsbvc	r7, r5, #29097984	; 0x1bc0000
 1e8:	1d006465 	cfstrsne	mvf6, [r0, #-404]	; 0xfffffe6c
 1ec:	68000030 	stmdavs	r0, {r4, r5}
 1f0:	69645f77 	stmdbvs	r4!, {r0, r1, r2, r4, r5, r6, r8, r9, sl, fp, ip, lr}^
 1f4:	6c746367 	ldclvs	3, cr6, [r4], #-412	; 0xfffffe64
 1f8:	63694d5f 	cmnvs	r9, #6080	; 0x17c0
 1fc:	65736f72 	ldrbvs	r6, [r3, #-3954]!	; 0xfffff08e
 200:	646e6f63 	strbtvs	r6, [lr], #-3939	; 0xfffff09d
 204:	74696157 	strbtvc	r6, [r9], #-343	; 0xfffffea9
 208:	00305600 	eorseq	r5, r0, r0, lsl #12
 20c:	5f776800 	svcpl	0x00776800
 210:	65776f70 	ldrbvs	r6, [r7, #-3952]!	; 0xfffff090
 214:	6e455f72 	mcrvs	15, 2, r5, cr5, cr2, {3}
 218:	656c6261 	strbvs	r6, [ip, #-609]!	; 0xfffffd9f
 21c:	00357032 	eorseq	r7, r5, r2, lsr r0
 220:	00003080 	andeq	r3, r0, r0, lsl #1
 224:	705f7768 	subsvc	r7, pc, r8, ror #14
 228:	7265776f 	rsbvc	r7, r5, #29097984	; 0x1bc0000
 22c:	616e455f 	cmnvs	lr, pc, asr r5
 230:	31656c62 	cmncc	r5, r2, ror #24
 234:	aa003870 	bge	e3fc <__bss_end__+0x82bc>
 238:	73000030 	movwvc	r0, #48	; 0x30
 23c:	74726174 	ldrbtvc	r6, [r2], #-372	; 0xfffffe8c
 240:	00310400 	eorseq	r0, r1, r0, lsl #8
 244:	69646400 	stmdbvs	r4!, {sl, sp, lr}^
 248:	696d655f 	stmdbvs	sp!, {r0, r1, r2, r3, r4, r6, r8, sl, sp, lr}^
 24c:	6572505f 	ldrbvs	r5, [r2, #-95]!	; 0xffffffa1
 250:	6e49734f 	cdpvs	3, 4, cr7, cr9, cr15, {2}
 254:	a8007469 	stmdage	r0, {r0, r3, r5, r6, sl, ip, sp, lr}
 258:	68000031 	stmdavs	r0, {r0, r4, r5}
 25c:	6f635f77 	svcvs	0x00635f77
 260:	455f6572 	ldrbmi	r6, [pc, #-1394]	; fffffcf6 <__bss_end__+0xffff9bb6>
 264:	6c62616e 	stfvse	f6, [r2], #-440	; 0xfffffe48
 268:	71724965 	cmnvc	r2, r5, ror #18
 26c:	65746e49 	ldrbvs	r6, [r4, #-3657]!	; 0xfffff1b7
 270:	70757272 	rsbsvc	r7, r5, r2, ror r2
 274:	31d60074 	bicscc	r0, r6, r4, ror r0
 278:	77680000 	strbvc	r0, [r8, -r0]!
 27c:	696d655f 	stmdbvs	sp!, {r0, r1, r2, r3, r4, r6, r8, sl, sp, lr}^
 280:	6e6f435f 	mcrvs	3, 3, r4, cr15, cr15, {2}
 284:	75676966 	strbvc	r6, [r7, #-2406]!	; 0xfffff69a
 288:	6d456572 	cfstr64vs	mvdx6, [r5, #-456]	; 0xfffffe38
 28c:	6e695069 	cdpvs	0, 6, cr5, cr9, cr9, {3}
 290:	324b0073 	subcc	r0, fp, #115	; 0x73
 294:	77680000 	strbvc	r0, [r8, -r0]!
 298:	696d655f 	stmdbvs	sp!, {r0, r1, r2, r3, r4, r6, r8, sl, sp, lr}^
 29c:	7369445f 	cmnvc	r9, #1593835520	; 0x5f000000
 2a0:	656c6261 	strbvs	r6, [ip, #-609]!	; 0xfffffd9f
 2a4:	50696d45 	rsbpl	r6, r9, r5, asr #26
 2a8:	654b6461 	strbvs	r6, [fp, #-1121]	; 0xfffffb9f
 2ac:	72657065 	rsbvc	r7, r5, #101	; 0x65
 2b0:	32610073 	rsbcc	r0, r1, #115	; 0x73
 2b4:	64640000 	strbtvs	r0, [r4], #-0
 2b8:	6d655f69 	stclvs	15, cr5, [r5, #-420]!	; 0xfffffe5c
 2bc:	78455f69 	stmdavc	r5, {r0, r3, r5, r6, r8, r9, sl, fp, ip, lr}^
 2c0:	75417469 	strbvc	r7, [r1, #-1129]	; 0xfffffb97
 2c4:	654d6f74 	strbvs	r6, [sp, #-3956]	; 0xfffff08c
 2c8:	79726f6d 	ldmdbvc	r2!, {r0, r2, r3, r5, r6, r8, r9, sl, fp, sp, lr}^
 2cc:	636f6c43 	cmnvs	pc, #17152	; 0x4300
 2d0:	7461476b 	strbtvc	r4, [r1], #-1899	; 0xfffff895
 2d4:	646f4d65 	strbtvs	r4, [pc], #-3429	; 2dc <irq_handler+0x258>
 2d8:	32770065 	rsbscc	r0, r7, #101	; 0x65
 2dc:	64640000 	strbtvs	r0, [r4], #-0
 2e0:	6d655f69 	stclvs	15, cr5, [r5, #-420]!	; 0xfffffe5c
 2e4:	72505f69 	subsvc	r5, r0, #420	; 0x1a4
 2e8:	72617065 	rsbvc	r7, r1, #101	; 0x65
 2ec:	726f4665 	rsbvc	r4, pc, #105906176	; 0x6500000
 2f0:	6d617244 	sfmvs	f7, 2, [r1, #-272]!	; 0xfffffef0
 2f4:	666c6553 			; <UNDEFINED> instruction: 0x666c6553
 2f8:	72666552 	rsbvc	r6, r6, #343932928	; 0x14800000
 2fc:	4d687365 	stclmi	3, cr7, [r8, #-404]!	; 0xfffffe6c
 300:	0065646f 	rsbeq	r6, r5, pc, ror #8
 304:	0000328d 	andeq	r3, r0, sp, lsl #5
 308:	5f696464 	svcpl	0x00696464
 30c:	5f696d65 	svcpl	0x00696d65
 310:	65746e45 	ldrbvs	r6, [r4, #-3653]!	; 0xfffff1bb
 314:	61745372 	cmnvs	r4, r2, ror r3
 318:	53636974 	cmnpl	r3, #116, 18	; 0x1d0000
 31c:	52666c65 	rsbpl	r6, r6, #25856	; 0x6500
 320:	65726665 	ldrbvs	r6, [r2, #-1637]!	; 0xfffff99b
 324:	6f4d6873 	svcvs	0x004d6873
 328:	bb006564 	bllt	198c0 <__bss_end__+0x13780>
 32c:	68000032 	stmdavs	r0, {r1, r4, r5}
 330:	6c635f77 	stclvs	15, cr5, [r3], #-476	; 0xfffffe24
 334:	7274636b 	rsbsvc	r6, r4, #-1409286143	; 0xac000001
 338:	65535f6c 	ldrbvs	r5, [r3, #-3948]	; 0xfffff094
 33c:	64665074 	strbtvs	r5, [r6], #-116	; 0xffffff8c
 340:	45666552 	strbmi	r6, [r6, #-1362]!	; 0xfffffaae
 344:	6147696d 	cmpvs	r7, sp, ror #18
 348:	e5006574 	str	r6, [r0, #-1396]	; 0xfffffa8c
 34c:	68000032 	stmdavs	r0, {r1, r4, r5}
 350:	6c635f77 	stclvs	15, cr5, [r3], #-476	; 0xfffffe24
 354:	7274636b 	rsbsvc	r6, r4, #-1409286143	; 0xac000001
 358:	6f505f6c 	svcvs	0x00505f6c
 35c:	50726577 	rsbspl	r6, r2, r7, ror r5
 360:	0f006c6c 	svceq	0x00006c6c
 364:	68000033 	stmdavs	r0, {r0, r1, r4, r5}
 368:	6c635f77 	stclvs	15, cr5, [r3], #-476	; 0xfffffe24
 36c:	7274636b 	rsbsvc	r6, r4, #-1409286143	; 0xac000001
 370:	65535f6c 	ldrbvs	r5, [r3, #-3948]	; 0xfffff094
 374:	64665074 	strbtvs	r5, [r6], #-116	; 0xffffff8c
 378:	45666552 	strbmi	r6, [r6, #-1362]!	; 0xfffffaae
 37c:	6944696d 	stmdbvs	r4, {r0, r2, r3, r5, r6, r8, fp, sp, lr}^
 380:	333d0076 	teqcc	sp, #118	; 0x76
 384:	77680000 	strbvc	r0, [r8, -r0]!
 388:	6b6c635f 	blvs	1b1910c <__bss_end__+0x1b12fcc>
 38c:	6c727463 	cfldrdvs	mvd7, [r2], #-396	; 0xfffffe74
 390:	7465535f 	strbtvc	r5, [r5], #-863	; 0xfffffca1
 394:	43696d45 	cmnmi	r9, #4416	; 0x1140
 398:	65526b6c 	ldrbvs	r6, [r2, #-2924]	; 0xfffff494
 39c:	696d4566 	stmdbvs	sp!, {r1, r2, r5, r6, r8, sl, lr}^
 3a0:	00766944 	rsbseq	r6, r6, r4, asr #18
 3a4:	0000336b 	andeq	r3, r0, fp, ror #6
 3a8:	645f7768 	ldrbvs	r7, [pc], #-1896	; 3b0 <irq_handler+0x32c>
 3ac:	5f6d6172 	svcpl	0x006d6172
 3b0:	74696e49 	strbtvc	r6, [r9], #-3657	; 0xfffff1b7
 3b4:	7264645f 	rsbvc	r6, r4, #1593835520	; 0x5f000000
 3b8:	34746d5f 	ldrbtcc	r6, [r4], #-3423	; 0xfffff2a1
 3bc:	32337636 	eorscc	r7, r3, #56623104	; 0x3600000
 3c0:	5f36316d 	svcpl	0x0036316d
 3c4:	395f7436 	ldmdbcc	pc, {r1, r2, r4, r5, sl, ip, sp, lr}^	; <UNPREDICTABLE>
 3c8:	7a484d36 	bvc	12138a8 <__bss_end__+0x120d768>
 3cc:	0033a000 	eorseq	sl, r3, r0
 3d0:	5f776800 	svcpl	0x00776800
 3d4:	6d617264 	sfmvs	f7, 2, [r1, #-400]!	; 0xfffffe70
 3d8:	696e495f 	stmdbvs	lr!, {r0, r1, r2, r3, r4, r6, r8, fp, lr}^
 3dc:	64645f74 	strbtvs	r5, [r4], #-3956	; 0xfffff08c
 3e0:	746d5f72 	strbtvc	r5, [sp], #-3954	; 0xfffff08e
 3e4:	33763634 	cmncc	r6, #52, 12	; 0x3400000
 3e8:	36316d32 			; <UNDEFINED> instruction: 0x36316d32
 3ec:	5f74365f 	svcpl	0x0074365f
 3f0:	4d333331 	ldcmi	3, cr3, [r3, #-196]!	; 0xffffff3c
 3f4:	6f5f7a48 	svcvs	0x005f7a48
 3f8:	6d697470 	cfstrdvs	mvd7, [r9, #-448]!	; 0xfffffe40
 3fc:	64657a69 	strbtvs	r7, [r5], #-2665	; 0xfffff597
 400:	0033ca00 	eorseq	ip, r3, r0, lsl #20
 404:	5f776800 	svcpl	0x00776800
 408:	6d617264 	sfmvs	f7, 2, [r1, #-400]!	; 0xfffffe70
 40c:	696e495f 	stmdbvs	lr!, {r0, r1, r2, r3, r4, r6, r8, fp, lr}^
 410:	6f6d5f74 	svcvs	0x006d5f74
 414:	656c6962 	strbvs	r6, [ip, #-2402]!	; 0xfffff69e
 418:	7264645f 	rsbvc	r6, r4, #1593835520	; 0x5f000000
 41c:	34746d5f 	ldrbtcc	r6, [r4], #-3423	; 0xfffff2a1
 420:	32336836 	eorscc	r6, r3, #3538944	; 0x360000
 424:	6c36316d 	ldfvss	f3, [r6], #-436	; 0xfffffe4c
 428:	5f355f66 	svcpl	0x00355f66
 42c:	73676572 	cmnvc	r7, #478150656	; 0x1c800000
 430:	315f335f 	cmpcc	pc, pc, asr r3	; <UNPREDICTABLE>
 434:	484d3333 	stmdami	sp, {r0, r1, r4, r5, r8, r9, ip, sp}^
 438:	33f4007a 	mvnscc	r0, #122	; 0x7a
 43c:	77680000 	strbvc	r0, [r8, -r0]!
 440:	6172645f 	cmnvs	r2, pc, asr r4
 444:	6e495f6d 	cdpvs	15, 4, cr5, cr9, cr13, {3}
 448:	6d5f7469 	cfldrdvs	mvd7, [pc, #-420]	; 2ac <irq_handler+0x228>
 44c:	6c69626f 	sfmvs	f6, 2, [r9], #-444	; 0xfffffe44
 450:	64645f65 	strbtvs	r5, [r4], #-3941	; 0xfffff09b
 454:	746d5f72 	strbtvc	r5, [sp], #-3954	; 0xfffff08e
 458:	33683634 	cmncc	r8, #52, 12	; 0x3400000
 45c:	36316d32 			; <UNDEFINED> instruction: 0x36316d32
 460:	355f666c 	ldrbcc	r6, [pc, #-1644]	; fffffdfc <__bss_end__+0xffff9cbc>
 464:	6765725f 			; <UNDEFINED> instruction: 0x6765725f
 468:	5f335f73 	svcpl	0x00335f73
 46c:	4d303631 	ldcmi	6, cr3, [r0, #-196]!	; 0xffffff3c
 470:	1e007a48 	vmlsne.f32	s14, s0, s16
 474:	68000034 	stmdavs	r0, {r2, r4, r5}
 478:	69645f77 	stmdbvs	r4!, {r0, r1, r2, r4, r5, r6, r8, r9, sl, fp, ip, lr}^
 47c:	6c746367 	ldclvs	3, cr6, [r4], #-412	; 0xfffffe64
 480:	7465475f 	strbtvc	r4, [r5], #-1887	; 0xfffff8a1
 484:	72727543 	rsbsvc	r7, r2, #281018368	; 0x10c00000
 488:	54746e65 	ldrbtpl	r6, [r4], #-3685	; 0xfffff19b
 48c:	00656d69 	rsbeq	r6, r5, r9, ror #26
 490:	00003438 	andeq	r3, r0, r8, lsr r4
 494:	5f696464 	svcpl	0x00696464
 498:	5f696d65 	svcpl	0x00696d65
 49c:	74697845 	strbtvc	r7, [r9], #-2117	; 0xfffff7bb
 4a0:	74617453 	strbtvc	r7, [r1], #-1107	; 0xfffffbad
 4a4:	65536369 	ldrbvs	r6, [r3, #-873]	; 0xfffffc97
 4a8:	6552666c 	ldrbvs	r6, [r2, #-1644]	; 0xfffff994
 4ac:	73657266 	cmnvc	r5, #1610612742	; 0x60000006
 4b0:	646f4d68 	strbtvs	r4, [pc], #-3432	; 4b8 <irq_handler+0x434>
 4b4:	34660065 	strbtcc	r0, [r6], #-101	; 0xffffff9b
 4b8:	77680000 	strbvc	r0, [r8, -r0]!
 4bc:	6769645f 			; <UNDEFINED> instruction: 0x6769645f
 4c0:	5f6c7463 	svcpl	0x006c7463
 4c4:	63656843 	cmnvs	r5, #4390912	; 0x430000
 4c8:	6d69546b 	cfstrdvs	mvd5, [r9, #-428]!	; 0xfffffe54
 4cc:	74754f65 	ldrbtvc	r4, [r5], #-3941	; 0xfffff09b
 4d0:	0034d000 	eorseq	sp, r4, r0
 4d4:	5f776800 	svcpl	0x00776800
 4d8:	5f696d65 	svcpl	0x00696d65
 4dc:	65746e45 	ldrbvs	r6, [r4, #-3653]!	; 0xfffff1bb
 4e0:	6d654d72 	stclvs	13, cr4, [r5, #-456]!	; 0xfffffe38
 4e4:	5379726f 	cmnpl	r9, #-268435450	; 0xf0000006
 4e8:	52666c65 	rsbpl	r6, r6, #25856	; 0x6500
 4ec:	65726665 	ldrbvs	r6, [r2, #-1637]!	; 0xfffff99b
 4f0:	6f4d6873 	svcvs	0x004d6873
 4f4:	fa006564 	blx	19a8c <__bss_end__+0x1394c>
 4f8:	68000034 	stmdavs	r0, {r2, r4, r5}
 4fc:	6d655f77 	stclvs	15, cr5, [r5, #-476]!	; 0xfffffe24
 500:	65535f69 	ldrbvs	r5, [r3, #-3945]	; 0xfffff097
 504:	6d654d74 	stclvs	13, cr4, [r5, #-464]!	; 0xfffffe30
 508:	5379726f 	cmnpl	r9, #-268435450	; 0xf0000006
 50c:	52666c65 	rsbpl	r6, r6, #25856	; 0x6500
 510:	73656665 	cmnvc	r5, #105906176	; 0x6500000
 514:	74754168 	ldrbtvc	r4, [r5], #-360	; 0xfffffe98
 518:	616c466f 	cmnvs	ip, pc, ror #12
 51c:	35240067 	strcc	r0, [r4, #-103]!	; 0xffffff99
 520:	6e490000 	cdpvs	0, 4, cr0, cr9, cr0, {0}
 524:	65447469 	strbvs	r7, [r4, #-1129]	; 0xfffffb97
 528:	53677562 	cmnpl	r7, #411041792	; 0x18800000
 52c:	61697265 	cmnvs	r9, r5, ror #4
 530:	354d006c 	strbcc	r0, [sp, #-108]	; 0xffffff94
 534:	454f0000 	strbmi	r0, [pc, #-0]	; 53c <irq_handler+0x4b8>
 538:	6972574d 	ldmdbvs	r2!, {r0, r2, r3, r6, r8, r9, sl, ip, lr}^
 53c:	65446574 	strbvs	r6, [r4, #-1396]	; 0xfffffa8c
 540:	42677562 	rsbmi	r7, r7, #411041792	; 0x18800000
 544:	00657479 	rsbeq	r7, r5, r9, ror r4
 548:	00003585 	andeq	r3, r0, r5, lsl #11
 54c:	74696e49 	strbtvc	r6, [r9], #-3657	; 0xfffff1b7
 550:	65776f50 	ldrbvs	r6, [r7, #-3920]!	; 0xfffff0b0
 554:	35d70072 	ldrbcc	r0, [r7, #114]	; 0x72
 558:	72500000 	subsvc	r0, r0, #0
 55c:	48746e69 	ldmdami	r4!, {r0, r3, r5, r6, r9, sl, fp, sp, lr}^
 560:	01007865 	tsteq	r0, r5, ror #16
 564:	50000036 	andpl	r0, r0, r6, lsr r0
 568:	746e6972 	strbtvc	r6, [lr], #-2418	; 0xfffff68e
 56c:	74746142 	ldrbtvc	r6, [r4], #-322	; 0xfffffebe
 570:	56797265 	ldrbtpl	r7, [r9], -r5, ror #4
 574:	61746c6f 	cmnvs	r4, pc, ror #24
 578:	57006567 	strpl	r6, [r0, -r7, ror #10]
 57c:	50000036 	andpl	r0, r0, r6, lsr r0
 580:	7265776f 	rsbvc	r7, r5, #29097984	; 0x1bc0000
 584:	63657845 	cmnvs	r5, #4521984	; 0x450000
 588:	35657475 	strbcc	r7, [r5, #-1141]!	; 0xfffffb8b
 58c:	746c6f56 	strbtvc	r6, [ip], #-3926	; 0xfffff0aa
 590:	426f5473 	rsbmi	r5, pc, #1929379840	; 0x73000000
 594:	65747461 	ldrbvs	r7, [r4, #-1121]!	; 0xfffffb9f
 598:	61487972 	hvcvs	34706	; 0x8792
 59c:	666f646e 	strbtvs	r6, [pc], -lr, ror #8
 5a0:	366c0066 	strbtcc	r0, [ip], -r6, rrx
 5a4:	6f500000 	svcvs	0x00500000
 5a8:	53726577 	cmnpl	r2, #499122176	; 0x1dc00000
 5ac:	34706f74 	ldrbtcc	r6, [r0], #-3956	; 0xfffff08c
 5b0:	82003270 	andhi	r3, r0, #112, 4
 5b4:	50000036 	andpl	r0, r0, r6, lsr r0
 5b8:	7265776f 	rsbvc	r7, r5, #29097984	; 0x1bc0000
 5bc:	61736944 	cmnvs	r3, r4, asr #18
 5c0:	41656c62 	cmnmi	r5, r2, ror #24
 5c4:	486f7475 	stmdami	pc!, {r0, r2, r4, r5, r6, sl, ip, sp, lr}^	; <UNPREDICTABLE>
 5c8:	77647261 	strbvc	r7, [r4, -r1, ror #4]!
 5cc:	50657261 	rsbpl	r7, r5, r1, ror #4
 5d0:	7265776f 	rsbvc	r7, r5, #29097984	; 0x1bc0000
 5d4:	6e776f64 	cdpvs	15, 7, cr6, cr7, cr4, {3}
 5d8:	0036ac00 	eorseq	sl, r6, r0, lsl #24
 5dc:	776f5000 	strbvc	r5, [pc, -r0]!
 5e0:	65537265 	ldrbvs	r7, [r3, #-613]	; 0xfffffd9b
 5e4:	61684374 	smcvs	33844	; 0x8434
 5e8:	72656772 	rsbvc	r6, r5, #29884416	; 0x1c80000
 5ec:	0036d600 	eorseq	sp, r6, r0, lsl #12
 5f0:	776f5000 	strbvc	r5, [pc, -r0]!
 5f4:	74537265 	ldrbvc	r7, [r3], #-613	; 0xfffffd9b
 5f8:	6843706f 	stmdavs	r3, {r0, r1, r2, r3, r5, r6, ip, sp, lr}^
 5fc:	65677261 	strbvs	r7, [r7, #-609]!	; 0xfffffd9f
 600:	36eb0072 	uxtabcc	r0, fp, r2
 604:	414f0000 	mrsmi	r0, SPSR
 608:	6174534c 	cmnvs	r4, ip, asr #6
 60c:	33006c6c 	movwcc	r6, #3180	; 0xc6c
 610:	54000037 	strpl	r0, [r0], #-55	; 0xffffffc9
 614:	4f6e7275 	svcmi	0x006e7275
 618:	4c4c506e 	mcrrmi	0, 6, r5, ip, cr14
 61c:	636f6c43 	cmnvs	pc, #17152	; 0x4300
 620:	37dc006b 	ldrbcc	r0, [ip, fp, rrx]
 624:	54700000 	ldrbtpl	r0, [r0], #-0
 628:	fa00434f 	blx	1136c <__bss_end__+0xb22c>
 62c:	62000037 	andvs	r0, r0, #55	; 0x37
 630:	7065654b 	rsbvc	r6, r5, fp, asr #10
 634:	506c6c50 	rsbpl	r6, ip, r0, asr ip
 638:	7265776f 	rsbvc	r7, r5, #29097984	; 0x1bc0000
 63c:	00006465 	andeq	r6, r0, r5, ror #8
 640:	40000000 	andmi	r0, r0, r0
 644:	02000000 	andeq	r0, r0, #0
 648:	0039bf00 	eorseq	fp, r9, r0, lsl #30
 64c:	0000c300 	andeq	ip, r0, r0, lsl #6
 650:	00004c00 	andeq	r4, r0, r0, lsl #24
 654:	696e6900 	stmdbvs	lr!, {r8, fp, sp, lr}^
 658:	00610074 	rsbeq	r0, r1, r4, ror r0
 65c:	6f700000 	svcvs	0x00700000
 660:	5f726577 	svcpl	0x00726577
 664:	74696e69 	strbtvc	r6, [r9], #-3689	; 0xfffff197
 668:	00008900 	andeq	r8, r0, r0, lsl #18
 66c:	6e697000 	cdpvs	0, 6, cr7, cr9, cr0, {0}
 670:	696e695f 	stmdbvs	lr!, {r0, r1, r2, r3, r4, r6, r8, fp, sp, lr}^
 674:	009e0074 	addseq	r0, lr, r4, ror r0
 678:	70630000 	rsbvc	r0, r3, r0
 67c:	6e695f75 	mcrvs	15, 3, r5, cr9, cr5, {3}
 680:	00007469 	andeq	r7, r0, r9, ror #8
 684:	30000000 	andcc	r0, r0, r0
 688:	02000000 	andeq	r0, r0, #0
 68c:	003a8200 	eorseq	r8, sl, r0, lsl #4
 690:	0004d100 	andeq	sp, r4, r0, lsl #2
 694:	00044c00 	andeq	r4, r4, r0, lsl #24
 698:	696e6900 	stmdbvs	lr!, {r8, fp, sp, lr}^
 69c:	61745f74 	cmnvs	r4, r4, ror pc
 6a0:	73696c67 	cmnvc	r9, #26368	; 0x6700
 6a4:	04ae0074 	strteq	r0, [lr], #116	; 0x74
 6a8:	6d630000 	stclvs	0, cr0, [r3, #-0]
 6ac:	6e696c64 	cdpvs	12, 6, cr6, cr9, cr4, {3}
 6b0:	0004c000 	andeq	ip, r4, r0
 6b4:	00007000 	andeq	r7, r0, r0
 6b8:	73000000 	movwvc	r0, #0
 6bc:	02000000 	andeq	r0, r0, #0
 6c0:	003f5300 	eorseq	r5, pc, r0, lsl #6
 6c4:	00039200 	andeq	r9, r3, r0, lsl #4
 6c8:	00004100 	andeq	r4, r0, r0, lsl #2
 6cc:	72747300 	rsbsvc	r7, r4, #0, 6
 6d0:	00797063 	rsbseq	r7, r9, r3, rrx
 6d4:	0000009f 	muleq	r0, pc, r0	; <UNPREDICTABLE>
 6d8:	636d656d 	cmnvs	sp, #457179136	; 0x1b400000
 6dc:	0d007970 	stceq	9, cr7, [r0, #-448]	; 0xfffffe40
 6e0:	73000001 	movwvc	r0, #1
 6e4:	6d637274 	sfmvs	f7, 2, [r3, #-464]!	; 0xfffffe30
 6e8:	01450070 	hvceq	20480	; 0x5000
 6ec:	74730000 	ldrbtvc	r0, [r3], #-0
 6f0:	6e656c72 	mcrvs	12, 3, r6, cr5, cr2, {3}
 6f4:	00017b00 	andeq	r7, r1, r0, lsl #22
 6f8:	776f7000 	strbvc	r7, [pc, -r0]!
 6fc:	cb00775f 	blgt	1e480 <__bss_end__+0x18340>
 700:	61000001 	tstvs	r0, r1
 704:	00696f74 	rsbeq	r6, r9, r4, ror pc
 708:	0000021f 	andeq	r0, r0, pc, lsl r2
 70c:	786f7461 	stmdavc	pc!, {r0, r5, r6, sl, ip, sp, lr}^	; <UNPREDICTABLE>
 710:	00027300 	andeq	r7, r2, r0, lsl #6
 714:	6f746100 	svcvs	0x00746100
 718:	00785f69 	rsbseq	r5, r8, r9, ror #30
 71c:	0000029f 	muleq	r0, pc, r2	; <UNPREDICTABLE>
 720:	786f7469 	stmdavc	pc!, {r0, r3, r5, r6, sl, ip, sp, lr}^	; <UNPREDICTABLE>
 724:	00032900 	andeq	r2, r3, r0, lsl #18
 728:	6f746900 	svcvs	0x00746900
 72c:	00000061 	andeq	r0, r0, r1, rrx
 730:	00450000 	subeq	r0, r5, r0
 734:	00020000 	andeq	r0, r2, r0
 738:	000042e5 	andeq	r4, r0, r5, ror #5
 73c:	000001fd 	strdeq	r0, [r0], -sp
 740:	00000078 	andeq	r0, r0, r8, ror r0
 744:	6c646d63 	stclvs	13, cr6, [r4], #-396	; 0xfffffe74
 748:	00656e69 	rsbeq	r6, r5, r9, ror #28
 74c:	000000b9 	strheq	r0, [r0], -r9
 750:	00646d63 	rsbeq	r6, r4, r3, ror #26
 754:	00000101 	andeq	r0, r0, r1, lsl #2
 758:	5f646d63 	svcpl	0x00646d63
 75c:	00746567 	rsbseq	r6, r4, r7, ror #10
 760:	00000161 	andeq	r0, r0, r1, ror #2
 764:	5f646d63 	svcpl	0x00646d63
 768:	ea006f67 	b	1c50c <__bss_end__+0x163cc>
 76c:	63000001 	movwvs	r0, #1
 770:	7562646d 	strbvc	r6, [r2, #-1133]!	; 0xfffffb93
 774:	00006666 	andeq	r6, r0, r6, ror #12
 778:	24000000 	strcs	r0, [r0], #-0
 77c:	02000000 	andeq	r0, r0, #0
 780:	0044e200 	subeq	lr, r4, r0, lsl #4
 784:	0000f500 	andeq	pc, r0, r0, lsl #10
 788:	00009a00 	andeq	r9, r0, r0, lsl #20
 78c:	65647500 	strbvs	r7, [r4, #-1280]!	; 0xfffffb00
 790:	0079616c 	rsbseq	r6, r9, ip, ror #2
 794:	000000d0 	ldrdeq	r0, [r0], -r0	; <UNPREDICTABLE>
 798:	6c65646d 	cfstrdvs	mvd6, [r5], #-436	; 0xfffffe4c
 79c:	00007961 	andeq	r7, r0, r1, ror #18
 7a0:	5a000000 	bpl	7a8 <irq_handler+0x724>
 7a4:	02000000 	andeq	r0, r0, #0
 7a8:	00462d00 	subeq	r2, r6, r0, lsl #26
 7ac:	0004c900 	andeq	ip, r4, r0, lsl #18
 7b0:	0003a500 	andeq	sl, r3, r0, lsl #10
 7b4:	396d6400 	stmdbcc	sp!, {sl, sp, lr}^
 7b8:	5f303030 	svcpl	0x00303030
 7bc:	65646e69 	strbvs	r6, [r4, #-3689]!	; 0xfffff197
 7c0:	03e60078 	mvneq	r0, #120	; 0x78
 7c4:	6d640000 	stclvs	0, cr0, [r4, #-0]
 7c8:	30303039 	eorscc	r3, r0, r9, lsr r0
 7cc:	6165725f 	cmnvs	r5, pc, asr r2
 7d0:	04200064 	strteq	r0, [r0], #-100	; 0xffffff9c
 7d4:	6d640000 	stclvs	0, cr0, [r4, #-0]
 7d8:	30303039 	eorscc	r3, r0, r9, lsr r0
 7dc:	6972775f 	ldmdbvs	r2!, {r0, r1, r2, r3, r4, r6, r8, r9, sl, ip, sp, lr}^
 7e0:	5a006574 	bpl	19db8 <__bss_end__+0x13c78>
 7e4:	64000004 	strvs	r0, [r0], #-4
 7e8:	735f616d 	cmpvc	pc, #1073741851	; 0x4000001b
 7ec:	74726174 	ldrbtvc	r6, [r2], #-372	; 0xfffffe8c
 7f0:	0004b600 	andeq	fp, r4, r0, lsl #12
 7f4:	62706100 	rsbsvs	r6, r0, #0, 2
 7f8:	68635f68 	stmdavs	r3!, {r3, r5, r6, r8, r9, sl, fp, ip, lr}^
 7fc:	00000000 	andeq	r0, r0, r0
 800:	00004200 	andeq	r4, r0, r0, lsl #4
 804:	f6000200 			; <UNDEFINED> instruction: 0xf6000200
 808:	4f00004a 	svcmi	0x0000004a
 80c:	ef000003 	svc	0x00000003
 810:	67000001 	strvs	r0, [r0, -r1]
 814:	68637465 	stmdavs	r3!, {r0, r2, r5, r6, sl, ip, sp, lr}^
 818:	021a0072 	andseq	r0, sl, #114	; 0x72
 81c:	75700000 	ldrbvc	r0, [r0, #-0]!
 820:	72686374 	rsbvc	r6, r8, #116, 6	; 0xd0000001
 824:	00024200 	andeq	r4, r2, r0, lsl #4
 828:	74757000 	ldrbtvc	r7, [r5], #-0
 82c:	028a0073 	addeq	r0, sl, #115	; 0x73
 830:	65670000 	strbvs	r0, [r7, #-0]!
 834:	c6007374 			; <UNDEFINED> instruction: 0xc6007374
 838:	67000002 	strvs	r0, [r0, -r2]
 83c:	69667465 	stmdbvs	r6!, {r0, r2, r5, r6, sl, ip, sp, lr}^
 840:	0000656c 	andeq	r6, r0, ip, ror #10
 844:	Address 0x00000844 is out of bounds.


Disassembly of section .debug_info:

00000000 <.debug_info>:
       0:	000001ae 	andeq	r0, r0, lr, lsr #3
       4:	00000002 	andeq	r0, r0, r2
       8:	01040000 	mrseq	r0, (UNDEF: 4)
       c:	0000000e 	andeq	r0, r0, lr
      10:	00002101 	andeq	r2, r0, r1, lsl #2
      14:	00008000 	andeq	r8, r0, r0
      18:	00100000 	andseq	r0, r0, r0
      1c:	00125800 	andseq	r5, r2, r0, lsl #16
      20:	00000000 	andeq	r0, r0, r0
      24:	07040200 	streq	r0, [r4, -r0, lsl #4]
      28:	0000003c 	andeq	r0, r0, ip, lsr r0
      2c:	6d070202 	sfmvs	f0, 4, [r7, #-8]
      30:	02000000 	andeq	r0, r0, #0
      34:	00510801 	subseq	r0, r1, r1, lsl #16
      38:	04030000 	streq	r0, [r3], #-0
      3c:	746e6905 	strbtvc	r6, [lr], #-2309	; 0xfffff6fb
      40:	06010200 	streq	r0, [r1], -r0, lsl #4
      44:	00000053 	andeq	r0, r0, r3, asr r0
      48:	a5050202 	strge	r0, [r5, #-514]	; 0xfffffdfe
      4c:	02000000 	andeq	r0, r0, #0
      50:	00000508 	andeq	r0, r0, r8, lsl #10
      54:	08020000 	stmdaeq	r2, {}	; <UNPREDICTABLE>
      58:	00003207 	andeq	r3, r0, r7, lsl #4
      5c:	07040200 	streq	r0, [r4, -r0, lsl #4]
      60:	00000037 	andeq	r0, r0, r7, lsr r0
      64:	05050402 	streq	r0, [r5, #-1026]	; 0xfffffbfe
      68:	04000000 	streq	r0, [r0], #-0
      6c:	00007104 	andeq	r7, r0, r4, lsl #2
      70:	08010200 	stmdaeq	r1, {r9}
      74:	0000005a 	andeq	r0, r0, sl, asr r0
      78:	00490105 	subeq	r0, r9, r5, lsl #2
      7c:	0b010000 	bleq	40084 <__bss_end__+0x39f44>
      80:	00003a01 	andeq	r3, r0, r1, lsl #20
      84:	00100000 	andseq	r0, r0, r0
      88:	0010e800 	andseq	lr, r0, r0, lsl #16
      8c:	00000000 	andeq	r0, r0, r0
      90:	0000e500 	andeq	lr, r0, r0, lsl #10
      94:	72730600 	rsbsvc	r0, r3, #0, 12
      98:	0d010063 	stceq	0, cr0, [r1, #-396]	; 0xfffffe74
      9c:	000000e5 	andeq	r0, r0, r5, ror #1
      a0:	06709102 	ldrbteq	r9, [r0], -r2, lsl #2
      a4:	00747364 	rsbseq	r7, r4, r4, ror #6
      a8:	00e50e01 	rsceq	r0, r5, r1, lsl #28
      ac:	91020000 	mrsls	r0, (UNDEF: 2)
      b0:	0028076c 	eoreq	r0, r8, ip, ror #14
      b4:	0f010000 	svceq	0x00010000
      b8:	00000025 	andeq	r0, r0, r5, lsr #32
      bc:	06689102 	strbteq	r9, [r8], -r2, lsl #2
      c0:	10010069 	andne	r0, r1, r9, rrx
      c4:	00000025 	andeq	r0, r0, r5, lsr #32
      c8:	08749102 	ldmdaeq	r4!, {r1, r8, ip, pc}^
      cc:	00001098 	muleq	r0, r8, r0
      d0:	000010b0 	strheq	r1, [r0], -r0
      d4:	00640109 	rsbeq	r0, r4, r9, lsl #2
      d8:	24010000 	strcs	r0, [r1], #-0
      dc:	0000003a 	andeq	r0, r0, sl, lsr r0
      e0:	00000a01 	andeq	r0, r0, r1, lsl #20
      e4:	eb040400 	bl	1010ec <__bss_end__+0xfafac>
      e8:	0b000000 	bleq	f0 <irq_handler+0x6c>
      ec:	00000025 	andeq	r0, r0, r5, lsr #32
      f0:	002d0105 	eoreq	r0, sp, r5, lsl #2
      f4:	37010000 	strcc	r0, [r1, -r0]
      f8:	00003a01 	andeq	r3, r0, r1, lsl #20
      fc:	0010e800 	andseq	lr, r0, r0, lsl #16
     100:	00125800 	andseq	r5, r2, r0, lsl #16
     104:	00002c00 	andeq	r2, r0, r0, lsl #24
     108:	00016200 	andeq	r6, r1, r0, lsl #4
     10c:	6d630600 	stclvs	6, cr0, [r3, #-0]
     110:	39010064 	stmdbcc	r1, {r2, r5, r6}
     114:	00000162 	andeq	r0, r0, r2, ror #2
     118:	07509102 	ldrbeq	r9, [r0, -r2, lsl #2]
     11c:	0000001a 	andeq	r0, r0, sl, lsl r0
     120:	003a3a01 	eorseq	r3, sl, r1, lsl #20
     124:	91020000 	mrsls	r0, (UNDEF: 2)
     128:	1f440770 	svcne	0x00440770
     12c:	3b010000 	blcc	40134 <__bss_end__+0x39ff4>
     130:	00000172 	andeq	r0, r0, r2, ror r1
     134:	7fb09103 	svcvc	0x00b09103
     138:	1f79010c 	svcne	0x0079010c
     13c:	3e010000 	cdpcc	0, 0, cr0, cr1, cr0, {0}
     140:	0000003a 	andeq	r0, r0, sl, lsr r0
     144:	00014b01 	andeq	r4, r1, r1, lsl #22
     148:	08000a00 	stmdaeq	r0, {r9, fp}
     14c:	00001154 	andeq	r1, r0, r4, asr r1
     150:	00001194 	muleq	r0, r4, r1
     154:	01006906 	tsteq	r0, r6, lsl #18
     158:	00003a47 	andeq	r3, r0, r7, asr #20
     15c:	74910200 	ldrvc	r0, [r1], #512	; 0x200
     160:	6b0d0000 	blvs	340168 <__bss_end__+0x33a028>
     164:	72000000 	andvc	r0, r0, #0
     168:	0e000001 	cdpeq	0, 0, cr0, cr0, cr1, {0}
     16c:	00000025 	andeq	r0, r0, r5, lsr #32
     170:	710d0007 	tstvc	sp, r7
     174:	82000000 	andhi	r0, r0, #0
     178:	0e000001 	cdpeq	0, 0, cr0, cr0, cr1, {0}
     17c:	00000025 	andeq	r0, r0, r5, lsr #32
     180:	6b0d001f 	blvs	340204 <__bss_end__+0x33a0c4>
     184:	92000000 	andls	r0, r0, #0
     188:	0e000001 	cdpeq	0, 0, cr0, cr0, cr1, {0}
     18c:	00000025 	andeq	r0, r0, r5, lsr #32
     190:	5f0f0002 	svcpl	0x000f0002
     194:	01000000 	mrseq	r0, (UNDEF: 0)
     198:	00018230 	andeq	r8, r1, r0, lsr r2
     19c:	10010100 	andne	r0, r1, r0, lsl #2
     1a0:	0000005f 	andeq	r0, r0, pc, asr r0
     1a4:	01823001 	orreq	r3, r2, r1
     1a8:	05010000 	streq	r0, [r1, #-0]
     1ac:	00600003 	rsbeq	r0, r0, r3
     1b0:	38090000 	stmdacc	r9, {}	; <UNPREDICTABLE>
     1b4:	00020000 	andeq	r0, r2, r0
     1b8:	000000d7 	ldrdeq	r0, [r0], -r7
     1bc:	000e0104 	andeq	r0, lr, r4, lsl #2
     1c0:	b9010000 	stmdblt	r1, {}	; <UNPREDICTABLE>
     1c4:	80000004 	andhi	r0, r0, r4
     1c8:	58000000 	stmdapl	r0, {}	; <UNPREDICTABLE>
     1cc:	c4000012 	strgt	r0, [r0], #-18	; 0xffffffee
     1d0:	aa000047 	bge	2f4 <irq_handler+0x270>
     1d4:	02000000 	andeq	r0, r0, #0
     1d8:	0000085a 	andeq	r0, r0, sl, asr r8
     1dc:	00301202 	eorseq	r1, r0, r2, lsl #4
     1e0:	04030000 	streq	r0, [r3], #-0
     1e4:	00003c07 	andeq	r3, r0, r7, lsl #24
     1e8:	036b0200 	cmneq	fp, #0, 4
     1ec:	13020000 	movwne	r0, #8192	; 0x2000
     1f0:	00000042 	andeq	r0, r0, r2, asr #32
     1f4:	6d070203 	sfmvs	f0, 4, [r7, #-12]
     1f8:	02000000 	andeq	r0, r0, #0
     1fc:	000009ba 			; <UNDEFINED> instruction: 0x000009ba
     200:	00541402 	subseq	r1, r4, r2, lsl #8
     204:	01030000 	mrseq	r0, (UNDEF: 3)
     208:	00005108 	andeq	r5, r0, r8, lsl #2
     20c:	03040400 	movweq	r0, #17408	; 0x4400
     210:	00740420 	rsbseq	r0, r4, r0, lsr #8
     214:	e9050000 	stmdb	r5, {}	; <UNPREDICTABLE>
     218:	03000005 	movweq	r0, #5
     21c:	00250422 	eoreq	r0, r5, r2, lsr #8
     220:	23020000 	movwcs	r0, #8192	; 0x2000
     224:	04060000 	streq	r0, [r6], #-0
     228:	92041d03 	andls	r1, r4, #3, 26	; 0xc0
     22c:	07000000 	streq	r0, [r0, -r0]
     230:	1f030055 	svcne	0x00030055
     234:	00002504 	andeq	r2, r0, r4, lsl #10
     238:	00420700 	subeq	r0, r2, r0, lsl #14
     23c:	5b042303 	blpl	108e50 <__bss_end__+0x102d10>
     240:	00000000 	andeq	r0, r0, r0
     244:	00032b08 	andeq	r2, r3, r8, lsl #22
     248:	04240300 	strteq	r0, [r4], #-768	; 0xfffffd00
     24c:	00000074 	andeq	r0, r0, r4, ror r0
     250:	37040409 	strcc	r0, [r4, -r9, lsl #8]
     254:	000001ea 	andeq	r0, r0, sl, ror #3
     258:	0000ec0a 	andeq	lr, r0, sl, lsl #24
     25c:	30390400 	eorscc	r0, r9, r0, lsl #8
     260:	04000000 	streq	r0, [r0], #-0
     264:	23021c04 	movwcs	r1, #11268	; 0x2c04
     268:	023f0a00 	eorseq	r0, pc, #0, 20
     26c:	3a040000 	bcc	100274 <__bss_end__+0xfa134>
     270:	00000030 	andeq	r0, r0, r0, lsr r0
     274:	021b0104 	andseq	r0, fp, #4, 2
     278:	d00a0023 	andle	r0, sl, r3, lsr #32
     27c:	04000009 	streq	r0, [r0], #-9
     280:	0000303b 	andeq	r3, r0, fp, lsr r0
     284:	1a010400 	bne	4128c <__bss_end__+0x3b14c>
     288:	0a002302 	beq	8e98 <__bss_end__+0x2d58>
     28c:	00000ba6 	andeq	r0, r0, r6, lsr #23
     290:	00303c04 	eorseq	r3, r0, r4, lsl #24
     294:	01040000 	mrseq	r0, (UNDEF: 4)
     298:	00230219 	eoreq	r0, r3, r9, lsl r2
     29c:	000a8c0a 	andeq	r8, sl, sl, lsl #24
     2a0:	303d0400 	eorscc	r0, sp, r0, lsl #8
     2a4:	04000000 	streq	r0, [r0], #-0
     2a8:	23021801 	movwcs	r1, #10241	; 0x2801
     2ac:	092f0a00 	stmdbeq	pc!, {r9, fp}	; <UNPREDICTABLE>
     2b0:	3e040000 	cdpcc	0, 0, cr0, cr4, cr0, {0}
     2b4:	00000030 	andeq	r0, r0, r0, lsr r0
     2b8:	02150304 	andseq	r0, r5, #4, 6	; 0x10000000
     2bc:	920a0023 	andls	r0, sl, #35	; 0x23
     2c0:	0400000a 	streq	r0, [r0], #-10
     2c4:	0000303f 	andeq	r3, r0, pc, lsr r0
     2c8:	14010400 	strne	r0, [r1], #-1024	; 0xfffffc00
     2cc:	0a002302 	beq	8edc <__bss_end__+0x2d9c>
     2d0:	000012df 	ldrdeq	r1, [r0], -pc	; <UNPREDICTABLE>
     2d4:	00304004 	eorseq	r4, r0, r4
     2d8:	03040000 	movweq	r0, #16384	; 0x4000
     2dc:	00230211 	eoreq	r0, r3, r1, lsl r2
     2e0:	000a980a 	andeq	r9, sl, sl, lsl #16
     2e4:	30410400 	subcc	r0, r1, r0, lsl #8
     2e8:	04000000 	streq	r0, [r0], #-0
     2ec:	23021001 	movwcs	r1, #8193	; 0x2001
     2f0:	18450a00 	stmdane	r5, {r9, fp}^
     2f4:	42040000 	andmi	r0, r4, #0
     2f8:	00000030 	andeq	r0, r0, r0, lsr r0
     2fc:	020b0504 	andeq	r0, fp, #4, 10	; 0x1000000
     300:	9e0a0023 	cdpls	0, 0, cr0, cr10, cr3, {1}
     304:	0400000a 	streq	r0, [r0], #-10
     308:	00003043 	andeq	r3, r0, r3, asr #32
     30c:	0a010400 	beq	41314 <__bss_end__+0x3b1d4>
     310:	0a002302 	beq	8f20 <__bss_end__+0x2de0>
     314:	0000165e 	andeq	r1, r0, lr, asr r6
     318:	00304404 	eorseq	r4, r0, r4, lsl #8
     31c:	02040000 	andeq	r0, r4, #0
     320:	00230208 	eoreq	r0, r3, r8, lsl #4
     324:	000c630a 	andeq	r6, ip, sl, lsl #6
     328:	30450400 	subcc	r0, r5, r0, lsl #8
     32c:	04000000 	streq	r0, [r0], #-0
     330:	23020701 	movwcs	r0, #9985	; 0x2701
     334:	0b270a00 	bleq	9c2b3c <__bss_end__+0x9bc9fc>
     338:	46040000 	strmi	r0, [r4], -r0
     33c:	00000030 	andeq	r0, r0, r0, lsr r0
     340:	02060104 	andeq	r0, r6, #4, 2
     344:	be0a0023 	cdplt	0, 0, cr0, cr10, cr3, {1}
     348:	04000011 	streq	r0, [r0], #-17	; 0xffffffef
     34c:	00003047 	andeq	r3, r0, r7, asr #32
     350:	04020400 	streq	r0, [r2], #-1024	; 0xfffffc00
     354:	0a002302 	beq	8f64 <__bss_end__+0x2e24>
     358:	00000eac 	andeq	r0, r0, ip, lsr #29
     35c:	00304804 	eorseq	r4, r0, r4, lsl #16
     360:	01040000 	mrseq	r0, (UNDEF: 4)
     364:	00230203 	eoreq	r0, r3, r3, lsl #4
     368:	00147f0a 	andseq	r7, r4, sl, lsl #30
     36c:	30490400 	subcc	r0, r9, r0, lsl #8
     370:	04000000 	streq	r0, [r0], #-0
     374:	23020201 	movwcs	r0, #8705	; 0x2201
     378:	03440a00 	movteq	r0, #18944	; 0x4a00
     37c:	4a040000 	bmi	100384 <__bss_end__+0xfa244>
     380:	00000030 	andeq	r0, r0, r0, lsr r0
     384:	02010104 	andeq	r0, r1, #4, 2
     388:	5f0a0023 	svcpl	0x000a0023
     38c:	04000002 	streq	r0, [r0], #-2
     390:	0000304b 	andeq	r3, r0, fp, asr #32
     394:	00010400 	andeq	r0, r1, r0, lsl #8
     398:	00002302 	andeq	r2, r0, r2, lsl #6
     39c:	3404040b 	strcc	r0, [r4], #-1035	; 0xfffffbf5
     3a0:	00000205 	andeq	r0, r0, r5, lsl #4
     3a4:	0400550c 	streq	r5, [r0], #-1292	; 0xfffffaf4
     3a8:	00002536 	andeq	r2, r0, r6, lsr r5
     3ac:	00420c00 	subeq	r0, r2, r0, lsl #24
     3b0:	009e4c04 	addseq	r4, lr, r4, lsl #24
     3b4:	02000000 	andeq	r0, r0, #0
     3b8:	0000044d 	andeq	r0, r0, sp, asr #8
     3bc:	01ea4d04 	mvneq	r4, r4, lsl #26
     3c0:	04040000 	streq	r0, [r4], #-0
     3c4:	86014204 	strhi	r4, [r1], -r4, lsl #4
     3c8:	0d000002 	stceq	0, cr0, [r0, #-8]
     3cc:	000018dc 	ldrdeq	r1, [r0], -ip
     3d0:	30014404 	andcc	r4, r1, r4, lsl #8
     3d4:	04000000 	streq	r0, [r0], #-0
     3d8:	23021f01 	movwcs	r1, #12033	; 0x2f01
     3dc:	0f800d00 	svceq	0x00800d00
     3e0:	45040000 	strmi	r0, [r4, #-0]
     3e4:	00003001 	andeq	r3, r0, r1
     3e8:	1e010400 	cfcpysne	mvf0, mvf1
     3ec:	0d002302 	stceq	3, cr2, [r0, #-8]
     3f0:	00000a8c 	andeq	r0, r0, ip, lsl #21
     3f4:	30014604 	andcc	r4, r1, r4, lsl #12
     3f8:	04000000 	streq	r0, [r0], #-0
     3fc:	2302031b 	movwcs	r0, #8987	; 0x231b
     400:	1bb70d00 	blne	fedc3808 <__bss_end__+0xfedbd6c8>
     404:	47040000 	strmi	r0, [r4, -r0]
     408:	00003001 	andeq	r3, r0, r1
     40c:	02010400 	andeq	r0, r1, #0, 8
     410:	0d002302 	stceq	3, cr2, [r0, #-8]
     414:	00001c7a 	andeq	r1, r0, sl, ror ip
     418:	30014804 	andcc	r4, r1, r4, lsl #16
     41c:	04000000 	streq	r0, [r0], #-0
     420:	23020101 	movwcs	r0, #8449	; 0x2101
     424:	15bf0d00 	ldrne	r0, [pc, #3328]!	; 112c <Main+0x44>
     428:	49040000 	stmdbmi	r4, {}	; <UNPREDICTABLE>
     42c:	00003001 	andeq	r3, r0, r1
     430:	00010400 	andeq	r0, r1, r0, lsl #8
     434:	00002302 	andeq	r2, r0, r2, lsl #6
     438:	3f040406 	svccc	0x00040406
     43c:	0002a401 	andeq	sl, r2, r1, lsl #8
     440:	00550700 	subseq	r0, r5, r0, lsl #14
     444:	25014104 	strcs	r4, [r1, #-260]	; 0xfffffefc
     448:	07000000 	streq	r0, [r0, -r0]
     44c:	4a040042 	bmi	10055c <__bss_end__+0xfa41c>
     450:	00021001 	andeq	r1, r2, r1
     454:	7c080000 	stcvc	0, cr0, [r8], {-0}
     458:	04000011 	streq	r0, [r0], #-17	; 0xffffffef
     45c:	0286014b 	addeq	r0, r6, #-1073741806	; 0xc0000012
     460:	04090000 	streq	r0, [r9], #-0
     464:	03418c05 	movteq	r8, #7173	; 0x1c05
     468:	e30a0000 	movw	r0, #40960	; 0xa000
     46c:	05000002 	streq	r0, [r0, #-2]
     470:	0000308e 	andeq	r3, r0, lr, lsl #1
     474:	1f010400 	svcne	0x00010400
     478:	0a002302 	beq	9088 <__bss_end__+0x2f48>
     47c:	00000a92 	muleq	r0, r2, sl
     480:	00308f05 	eorseq	r8, r0, r5, lsl #30
     484:	07040000 	streq	r0, [r4, -r0]
     488:	00230218 	eoreq	r0, r3, r8, lsl r2
     48c:	0012b50a 	andseq	fp, r2, sl, lsl #10
     490:	30900500 	addscc	r0, r0, r0, lsl #10
     494:	04000000 	streq	r0, [r0], #-0
     498:	23021701 	movwcs	r1, #9985	; 0x2701
     49c:	0a980a00 	beq	fe602ca4 <__bss_end__+0xfe5fcb64>
     4a0:	91050000 	mrsls	r0, (UNDEF: 5)
     4a4:	00000030 	andeq	r0, r0, r0, lsr r0
     4a8:	02100704 	andseq	r0, r0, #4, 14	; 0x100000
     4ac:	c10a0023 	tstgt	sl, r3, lsr #32
     4b0:	0500000d 	streq	r0, [r0, #-13]
     4b4:	00003092 	muleq	r0, r2, r0
     4b8:	0f010400 	svceq	0x00010400
     4bc:	0a002302 	beq	90cc <__bss_end__+0x2f8c>
     4c0:	00000a9e 	muleq	r0, lr, sl
     4c4:	00309305 	eorseq	r9, r0, r5, lsl #6
     4c8:	07040000 	streq	r0, [r4, -r0]
     4cc:	00230208 	eoreq	r0, r3, r8, lsl #4
     4d0:	0007670a 	andeq	r6, r7, sl, lsl #14
     4d4:	30940500 	addscc	r0, r4, r0, lsl #10
     4d8:	04000000 	streq	r0, [r0], #-0
     4dc:	23020701 	movwcs	r0, #9985	; 0x2701
     4e0:	0aa40a00 	beq	fe902ce8 <__bss_end__+0xfe8fcba8>
     4e4:	95050000 	strls	r0, [r5, #-0]
     4e8:	00000030 	andeq	r0, r0, r0, lsr r0
     4ec:	02000704 	andeq	r0, r0, #4, 14	; 0x100000
     4f0:	0b000023 	bleq	584 <irq_handler+0x500>
     4f4:	5c890504 	cfstr32pl	mvfx0, [r9], {4}
     4f8:	0c000003 	stceq	0, cr0, [r0], {3}
     4fc:	8b050055 	blhi	140658 <__bss_end__+0x13a518>
     500:	00000025 	andeq	r0, r0, r5, lsr #32
     504:	0500420c 	streq	r4, [r0, #-524]	; 0xfffffdf4
     508:	0002b096 	muleq	r2, r6, r0
     50c:	18020000 	stmdane	r2, {}	; <UNPREDICTABLE>
     510:	05000013 	streq	r0, [r0, #-19]	; 0xffffffed
     514:	00034197 	muleq	r3, r7, r1
     518:	05040900 	streq	r0, [r4, #-2304]	; 0xfffff700
     51c:	0003f8e4 	andeq	pc, r3, r4, ror #17
     520:	17530a00 	ldrbne	r0, [r3, -r0, lsl #20]
     524:	e6050000 	str	r0, [r5], -r0
     528:	00000030 	andeq	r0, r0, r0, lsr r0
     52c:	021f0104 	andseq	r0, pc, #4, 2
     530:	920a0023 	andls	r0, sl, #35	; 0x23
     534:	0500000a 	streq	r0, [r0, #-10]
     538:	000030e7 	andeq	r3, r0, r7, ror #1
     53c:	18070400 	stmdane	r7, {sl}
     540:	0a002302 	beq	9150 <__bss_end__+0x3010>
     544:	00000ffe 	strdeq	r0, [r0], -lr
     548:	0030e805 	eorseq	lr, r0, r5, lsl #16
     54c:	01040000 	mrseq	r0, (UNDEF: 4)
     550:	00230217 	eoreq	r0, r3, r7, lsl r2
     554:	000a980a 	andeq	r9, sl, sl, lsl #16
     558:	30e90500 	rsccc	r0, r9, r0, lsl #10
     55c:	04000000 	streq	r0, [r0], #-0
     560:	23021007 	movwcs	r1, #8199	; 0x2007
     564:	16670a00 	strbtne	r0, [r7], -r0, lsl #20
     568:	ea050000 	b	140570 <__bss_end__+0x13a430>
     56c:	00000030 	andeq	r0, r0, r0, lsr r0
     570:	020f0104 	andeq	r0, pc, #4, 2
     574:	9e0a0023 	cdpls	0, 0, cr0, cr10, cr3, {1}
     578:	0500000a 	streq	r0, [r0, #-10]
     57c:	000030eb 	andeq	r3, r0, fp, ror #1
     580:	08070400 	stmdaeq	r7, {sl}
     584:	0a002302 	beq	9194 <__bss_end__+0x3054>
     588:	00000695 	muleq	r0, r5, r6
     58c:	0030ec05 	eorseq	lr, r0, r5, lsl #24
     590:	01040000 	mrseq	r0, (UNDEF: 4)
     594:	00230207 	eoreq	r0, r3, r7, lsl #4
     598:	000aa40a 	andeq	sl, sl, sl, lsl #8
     59c:	30ed0500 	rsccc	r0, sp, r0, lsl #10
     5a0:	04000000 	streq	r0, [r0], #-0
     5a4:	23020007 	movwcs	r0, #8199	; 0x2007
     5a8:	040b0000 	streq	r0, [fp], #-0
     5ac:	0413e105 	ldreq	lr, [r3], #-261	; 0xfffffefb
     5b0:	550c0000 	strpl	r0, [ip, #-0]
     5b4:	25e30500 	strbcs	r0, [r3, #1280]!	; 0x500
     5b8:	0c000000 	stceq	0, cr0, [r0], {-0}
     5bc:	ee050042 	cdp	0, 0, cr0, cr5, cr2, {2}
     5c0:	00000367 	andeq	r0, r0, r7, ror #6
     5c4:	197b0200 	ldmdbne	fp!, {r9}^
     5c8:	ef050000 	svc	0x00050000
     5cc:	000003f8 	strdeq	r0, [r0], -r8
     5d0:	94050404 	strls	r0, [r5], #-1028	; 0xfffffbfc
     5d4:	0004b801 	andeq	fp, r4, r1, lsl #16
     5d8:	167a0d00 	ldrbtne	r0, [sl], -r0, lsl #26
     5dc:	96050000 	strls	r0, [r5], -r0
     5e0:	00003001 	andeq	r3, r0, r1
     5e4:	1f010400 	svcne	0x00010400
     5e8:	0d002302 	stceq	3, cr2, [r0, #-8]
     5ec:	00000a92 	muleq	r0, r2, sl
     5f0:	30019705 	andcc	r9, r1, r5, lsl #14
     5f4:	04000000 	streq	r0, [r0], #-0
     5f8:	23021807 	movwcs	r1, #10247	; 0x2807
     5fc:	12f30d00 	rscsne	r0, r3, #0, 26
     600:	98050000 	stmdals	r5, {}	; <UNPREDICTABLE>
     604:	00003001 	andeq	r3, r0, r1
     608:	17010400 	strne	r0, [r1, -r0, lsl #8]
     60c:	0d002302 	stceq	3, cr2, [r0, #-8]
     610:	00000a98 	muleq	r0, r8, sl
     614:	30019905 	andcc	r9, r1, r5, lsl #18
     618:	04000000 	streq	r0, [r0], #-0
     61c:	23021007 	movwcs	r1, #8199	; 0x2007
     620:	08260d00 	stmdaeq	r6!, {r8, sl, fp}
     624:	9a050000 	bls	14062c <__bss_end__+0x13a4ec>
     628:	00003001 	andeq	r3, r0, r1
     62c:	0f010400 	svceq	0x00010400
     630:	0d002302 	stceq	3, cr2, [r0, #-8]
     634:	00000a9e 	muleq	r0, lr, sl
     638:	30019b05 	andcc	r9, r1, r5, lsl #22
     63c:	04000000 	streq	r0, [r0], #-0
     640:	23020807 	movwcs	r0, #10247	; 0x2807
     644:	1a100d00 	bne	403a4c <__bss_end__+0x3fd90c>
     648:	9c050000 	stcls	0, cr0, [r5], {-0}
     64c:	00003001 	andeq	r3, r0, r1
     650:	07010400 	streq	r0, [r1, -r0, lsl #8]
     654:	0d002302 	stceq	3, cr2, [r0, #-8]
     658:	00000aa4 	andeq	r0, r0, r4, lsr #21
     65c:	30019d05 	andcc	r9, r1, r5, lsl #26
     660:	04000000 	streq	r0, [r0], #-0
     664:	23020007 	movwcs	r0, #8199	; 0x2007
     668:	04060000 	streq	r0, [r6], #-0
     66c:	d6019105 	strle	r9, [r1], -r5, lsl #2
     670:	07000004 	streq	r0, [r0, -r4]
     674:	93050055 	movwls	r0, #20565	; 0x5055
     678:	00002501 	andeq	r2, r0, r1, lsl #10
     67c:	00420700 	subeq	r0, r2, r0, lsl #14
     680:	1e019e05 	cdpne	14, 0, cr9, cr1, cr5, {0}
     684:	00000004 	andeq	r0, r0, r4
     688:	0007b908 	andeq	fp, r7, r8, lsl #18
     68c:	019f0500 	orrseq	r0, pc, r0, lsl #10
     690:	000004b8 			; <UNDEFINED> instruction: 0x000004b8
     694:	e8050404 	stmda	r5, {r2, sl}
     698:	00057c01 	andeq	r7, r5, r1, lsl #24
     69c:	0ace0d00 	beq	ff383aa4 <__bss_end__+0xff37d964>
     6a0:	ea050000 	b	1406a8 <__bss_end__+0x13a568>
     6a4:	00003001 	andeq	r3, r0, r1
     6a8:	1f010400 	svcne	0x00010400
     6ac:	0d002302 	stceq	3, cr2, [r0, #-8]
     6b0:	00000a92 	muleq	r0, r2, sl
     6b4:	3001eb05 	andcc	lr, r1, r5, lsl #22
     6b8:	04000000 	streq	r0, [r0], #-0
     6bc:	23021807 	movwcs	r1, #10247	; 0x2807
     6c0:	07120d00 	ldreq	r0, [r2, -r0, lsl #26]
     6c4:	ec050000 	stc	0, cr0, [r5], {-0}
     6c8:	00003001 	andeq	r3, r0, r1
     6cc:	17010400 	strne	r0, [r1, -r0, lsl #8]
     6d0:	0d002302 	stceq	3, cr2, [r0, #-8]
     6d4:	00000a98 	muleq	r0, r8, sl
     6d8:	3001ed05 	andcc	lr, r1, r5, lsl #26
     6dc:	04000000 	streq	r0, [r0], #-0
     6e0:	23021007 	movwcs	r1, #8199	; 0x2007
     6e4:	14b90d00 	ldrtne	r0, [r9], #3328	; 0xd00
     6e8:	ee050000 	cdp	0, 0, cr0, cr5, cr0, {0}
     6ec:	00003001 	andeq	r3, r0, r1
     6f0:	0f010400 	svceq	0x00010400
     6f4:	0d002302 	stceq	3, cr2, [r0, #-8]
     6f8:	00000a9e 	muleq	r0, lr, sl
     6fc:	3001ef05 	andcc	lr, r1, r5, lsl #30
     700:	04000000 	streq	r0, [r0], #-0
     704:	23020807 	movwcs	r0, #10247	; 0x2807
     708:	16d20d00 	ldrbne	r0, [r2], r0, lsl #26
     70c:	f0050000 			; <UNDEFINED> instruction: 0xf0050000
     710:	00003001 	andeq	r3, r0, r1
     714:	07010400 	streq	r0, [r1, -r0, lsl #8]
     718:	0d002302 	stceq	3, cr2, [r0, #-8]
     71c:	00000aa4 	andeq	r0, r0, r4, lsr #21
     720:	3001f105 	andcc	pc, r1, r5, lsl #2
     724:	04000000 	streq	r0, [r0], #-0
     728:	23020007 	movwcs	r0, #8199	; 0x2007
     72c:	04060000 	streq	r0, [r6], #-0
     730:	9a01e505 	bls	79b4c <__bss_end__+0x73a0c>
     734:	07000005 	streq	r0, [r0, -r5]
     738:	e7050055 	smlsd	r5, r5, r0, r0
     73c:	00002501 	andeq	r2, r0, r1, lsl #10
     740:	00420700 	subeq	r0, r2, r0, lsl #14
     744:	e201f205 	and	pc, r1, #1342177280	; 0x50000000
     748:	00000004 	andeq	r0, r0, r4
     74c:	000dfe08 	andeq	pc, sp, r8, lsl #28
     750:	01f30500 	mvnseq	r0, r0, lsl #10
     754:	0000057c 	andeq	r0, r0, ip, ror r5
     758:	40050404 	andmi	r0, r5, r4, lsl #8
     75c:	00064002 	andeq	r4, r6, r2
     760:	16400d00 	strbne	r0, [r0], -r0, lsl #26
     764:	42050000 	andmi	r0, r5, #0
     768:	00003002 	andeq	r3, r0, r2
     76c:	1f010400 	svcne	0x00010400
     770:	0d002302 	stceq	3, cr2, [r0, #-8]
     774:	00000a92 	muleq	r0, r2, sl
     778:	30024305 	andcc	r4, r2, r5, lsl #6
     77c:	04000000 	streq	r0, [r0], #-0
     780:	23021807 	movwcs	r1, #10247	; 0x2807
     784:	0fca0d00 	svceq	0x00ca0d00
     788:	44050000 	strmi	r0, [r5], #-0
     78c:	00003002 	andeq	r3, r0, r2
     790:	17010400 	strne	r0, [r1, -r0, lsl #8]
     794:	0d002302 	stceq	3, cr2, [r0, #-8]
     798:	00000a98 	muleq	r0, r8, sl
     79c:	30024505 	andcc	r4, r2, r5, lsl #10
     7a0:	04000000 	streq	r0, [r0], #-0
     7a4:	23021007 	movwcs	r1, #8199	; 0x2007
     7a8:	09430d00 	stmdbeq	r3, {r8, sl, fp}^
     7ac:	46050000 	strmi	r0, [r5], -r0
     7b0:	00003002 	andeq	r3, r0, r2
     7b4:	0f010400 	svceq	0x00010400
     7b8:	0d002302 	stceq	3, cr2, [r0, #-8]
     7bc:	00000a9e 	muleq	r0, lr, sl
     7c0:	30024705 	andcc	r4, r2, r5, lsl #14
     7c4:	04000000 	streq	r0, [r0], #-0
     7c8:	23020807 	movwcs	r0, #10247	; 0x2807
     7cc:	14a90d00 	strtne	r0, [r9], #3328	; 0xd00
     7d0:	48050000 	stmdami	r5, {}	; <UNPREDICTABLE>
     7d4:	00003002 	andeq	r3, r0, r2
     7d8:	07010400 	streq	r0, [r1, -r0, lsl #8]
     7dc:	0d002302 	stceq	3, cr2, [r0, #-8]
     7e0:	00000aa4 	andeq	r0, r0, r4, lsr #21
     7e4:	30024905 	andcc	r4, r2, r5, lsl #18
     7e8:	04000000 	streq	r0, [r0], #-0
     7ec:	23020007 	movwcs	r0, #8199	; 0x2007
     7f0:	04060000 	streq	r0, [r6], #-0
     7f4:	5e023d05 	cdppl	13, 0, cr3, cr2, cr5, {0}
     7f8:	07000006 	streq	r0, [r0, -r6]
     7fc:	3f050055 	svccc	0x00050055
     800:	00002502 	andeq	r2, r0, r2, lsl #10
     804:	00420700 	subeq	r0, r2, r0, lsl #14
     808:	a6024a05 	strge	r4, [r2], -r5, lsl #20
     80c:	00000005 	andeq	r0, r0, r5
     810:	00135608 	andseq	r5, r3, r8, lsl #12
     814:	024b0500 	subeq	r0, fp, #0, 10
     818:	00000640 	andeq	r0, r0, r0, asr #12
     81c:	98050404 	stmdals	r5, {r2, sl}
     820:	00070402 	andeq	r0, r7, r2, lsl #8
     824:	049e0d00 	ldreq	r0, [lr], #3328	; 0xd00
     828:	9a050000 	bls	140830 <__bss_end__+0x13a6f0>
     82c:	00003002 	andeq	r3, r0, r2
     830:	1f010400 	svcne	0x00010400
     834:	0d002302 	stceq	3, cr2, [r0, #-8]
     838:	00000a92 	muleq	r0, r2, sl
     83c:	30029b05 	andcc	r9, r2, r5, lsl #22
     840:	04000000 	streq	r0, [r0], #-0
     844:	23021807 	movwcs	r1, #10247	; 0x2807
     848:	1b860d00 	blne	fe183c50 <__bss_end__+0xfe17db10>
     84c:	9c050000 	stcls	0, cr0, [r5], {-0}
     850:	00003002 	andeq	r3, r0, r2
     854:	17010400 	strne	r0, [r1, -r0, lsl #8]
     858:	0d002302 	stceq	3, cr2, [r0, #-8]
     85c:	00000a98 	muleq	r0, r8, sl
     860:	30029d05 	andcc	r9, r2, r5, lsl #26
     864:	04000000 	streq	r0, [r0], #-0
     868:	23021007 	movwcs	r1, #8199	; 0x2007
     86c:	00c10d00 	sbceq	r0, r1, r0, lsl #26
     870:	9e050000 	cdpls	0, 0, cr0, cr5, cr0, {0}
     874:	00003002 	andeq	r3, r0, r2
     878:	0f010400 	svceq	0x00010400
     87c:	0d002302 	stceq	3, cr2, [r0, #-8]
     880:	00000a9e 	muleq	r0, lr, sl
     884:	30029f05 	andcc	r9, r2, r5, lsl #30
     888:	04000000 	streq	r0, [r0], #-0
     88c:	23020807 	movwcs	r0, #10247	; 0x2807
     890:	034c0d00 	movteq	r0, #52480	; 0xcd00
     894:	a0050000 	andge	r0, r5, r0
     898:	00003002 	andeq	r3, r0, r2
     89c:	07010400 	streq	r0, [r1, -r0, lsl #8]
     8a0:	0d002302 	stceq	3, cr2, [r0, #-8]
     8a4:	00000aa4 	andeq	r0, r0, r4, lsr #21
     8a8:	3002a105 	andcc	sl, r2, r5, lsl #2
     8ac:	04000000 	streq	r0, [r0], #-0
     8b0:	23020007 	movwcs	r0, #8199	; 0x2007
     8b4:	04060000 	streq	r0, [r6], #-0
     8b8:	22029505 	andcs	r9, r2, #20971520	; 0x1400000
     8bc:	07000007 	streq	r0, [r0, -r7]
     8c0:	97050055 	smlsdls	r5, r5, r0, r0
     8c4:	00002502 	andeq	r2, r0, r2, lsl #10
     8c8:	00420700 	subeq	r0, r2, r0, lsl #14
     8cc:	6a02a205 	bvs	a90e8 <__bss_end__+0xa2fa8>
     8d0:	00000006 	andeq	r0, r0, r6
     8d4:	0019bf08 	andseq	fp, r9, r8, lsl #30
     8d8:	02a30500 	adceq	r0, r3, #0, 10
     8dc:	00000704 	andeq	r0, r0, r4, lsl #14
     8e0:	f0050404 			; <UNDEFINED> instruction: 0xf0050404
     8e4:	0007c802 	andeq	ip, r7, r2, lsl #16
     8e8:	09260d00 	stmdbeq	r6!, {r8, sl, fp}
     8ec:	f2050000 	vhadd.s8	d0, d5, d0
     8f0:	00003002 	andeq	r3, r0, r2
     8f4:	1f010400 	svcne	0x00010400
     8f8:	0d002302 	stceq	3, cr2, [r0, #-8]
     8fc:	00000a92 	muleq	r0, r2, sl
     900:	3002f305 	andcc	pc, r2, r5, lsl #6
     904:	04000000 	streq	r0, [r0], #-0
     908:	23021807 	movwcs	r1, #10247	; 0x2807
     90c:	1b1a0d00 	blne	683d14 <__bss_end__+0x67dbd4>
     910:	f4050000 	vst4.8	{d0-d3}, [r5], r0
     914:	00003002 	andeq	r3, r0, r2
     918:	17010400 	strne	r0, [r1, -r0, lsl #8]
     91c:	0d002302 	stceq	3, cr2, [r0, #-8]
     920:	00000a98 	muleq	r0, r8, sl
     924:	3002f505 	andcc	pc, r2, r5, lsl #10
     928:	04000000 	streq	r0, [r0], #-0
     92c:	23021007 	movwcs	r1, #8199	; 0x2007
     930:	1bed0d00 	blne	ffb43d38 <__bss_end__+0xffb3dbf8>
     934:	f6050000 			; <UNDEFINED> instruction: 0xf6050000
     938:	00003002 	andeq	r3, r0, r2
     93c:	0f010400 	svceq	0x00010400
     940:	0d002302 	stceq	3, cr2, [r0, #-8]
     944:	00000a9e 	muleq	r0, lr, sl
     948:	3002f705 	andcc	pc, r2, r5, lsl #14
     94c:	04000000 	streq	r0, [r0], #-0
     950:	23020807 	movwcs	r0, #10247	; 0x2807
     954:	05280d00 	streq	r0, [r8, #-3328]!	; 0xfffff300
     958:	f8050000 			; <UNDEFINED> instruction: 0xf8050000
     95c:	00003002 	andeq	r3, r0, r2
     960:	07010400 	streq	r0, [r1, -r0, lsl #8]
     964:	0d002302 	stceq	3, cr2, [r0, #-8]
     968:	00000aa4 	andeq	r0, r0, r4, lsr #21
     96c:	3002f905 	andcc	pc, r2, r5, lsl #18
     970:	04000000 	streq	r0, [r0], #-0
     974:	23020007 	movwcs	r0, #8199	; 0x2007
     978:	04060000 	streq	r0, [r6], #-0
     97c:	e602ed05 	str	lr, [r2], -r5, lsl #26
     980:	07000007 	streq	r0, [r0, -r7]
     984:	ef050055 	svc	0x00050055
     988:	00002502 	andeq	r2, r0, r2, lsl #10
     98c:	00420700 	subeq	r0, r2, r0, lsl #14
     990:	2e02fa05 	vmlacs.f32	s30, s4, s10
     994:	00000007 	andeq	r0, r0, r7
     998:	00031608 	andeq	r1, r3, r8, lsl #12
     99c:	02fb0500 	rscseq	r0, fp, #0, 10
     9a0:	000007c8 	andeq	r0, r0, r8, asr #15
     9a4:	98050404 	stmdals	r5, {r2, sl}
     9a8:	00088c03 	andeq	r8, r8, r3, lsl #24
     9ac:	06de0d00 	ldrbeq	r0, [lr], r0, lsl #26
     9b0:	9a050000 	bls	1409b8 <__bss_end__+0x13a878>
     9b4:	00003003 	andeq	r3, r0, r3
     9b8:	1e020400 	cfcpysne	mvf0, mvf2
     9bc:	0d002302 	stceq	3, cr2, [r0, #-8]
     9c0:	00000a92 	muleq	r0, r2, sl
     9c4:	30039b05 	andcc	r9, r3, r5, lsl #22
     9c8:	04000000 	streq	r0, [r0], #-0
     9cc:	23021806 	movwcs	r1, #10246	; 0x2806
     9d0:	120f0d00 	andne	r0, pc, #0, 26
     9d4:	9c050000 	stcls	0, cr0, [r5], {-0}
     9d8:	00003003 	andeq	r3, r0, r3
     9dc:	16020400 	strne	r0, [r2], -r0, lsl #8
     9e0:	0d002302 	stceq	3, cr2, [r0, #-8]
     9e4:	00000a98 	muleq	r0, r8, sl
     9e8:	30039d05 	andcc	r9, r3, r5, lsl #26
     9ec:	04000000 	streq	r0, [r0], #-0
     9f0:	23021006 	movwcs	r1, #8198	; 0x2006
     9f4:	0e0e0d00 	cdpeq	13, 0, cr0, cr14, cr0, {0}
     9f8:	9e050000 	cdpls	0, 0, cr0, cr5, cr0, {0}
     9fc:	00003003 	andeq	r3, r0, r3
     a00:	0d030400 	cfstrseq	mvf0, [r3, #-0]
     a04:	0d002302 	stceq	3, cr2, [r0, #-8]
     a08:	00000a9e 	muleq	r0, lr, sl
     a0c:	30039f05 	andcc	r9, r3, r5, lsl #30
     a10:	04000000 	streq	r0, [r0], #-0
     a14:	23020805 	movwcs	r0, #10245	; 0x2805
     a18:	1a4e0d00 	bne	1383e20 <__bss_end__+0x137dce0>
     a1c:	a0050000 	andge	r0, r5, r0
     a20:	00003003 	andeq	r3, r0, r3
     a24:	05030400 	streq	r0, [r3, #-1024]	; 0xfffffc00
     a28:	0d002302 	stceq	3, cr2, [r0, #-8]
     a2c:	00000aa4 	andeq	r0, r0, r4, lsr #21
     a30:	3003a105 	andcc	sl, r3, r5, lsl #2
     a34:	04000000 	streq	r0, [r0], #-0
     a38:	23020005 	movwcs	r0, #8197	; 0x2005
     a3c:	04060000 	streq	r0, [r6], #-0
     a40:	aa039505 	bge	e5e5c <__bss_end__+0xdfd1c>
     a44:	07000008 	streq	r0, [r0, -r8]
     a48:	97050055 	smlsdls	r5, r5, r0, r0
     a4c:	00002503 	andeq	r2, r0, r3, lsl #10
     a50:	00420700 	subeq	r0, r2, r0, lsl #14
     a54:	f203a205 	vhsub.s8	d10, d3, d5
     a58:	00000007 	andeq	r0, r0, r7
     a5c:	001c3408 	andseq	r3, ip, r8, lsl #8
     a60:	03a30500 			; <UNDEFINED> instruction: 0x03a30500
     a64:	0000088c 	andeq	r0, r0, ip, lsl #17
     a68:	f0050404 			; <UNDEFINED> instruction: 0xf0050404
     a6c:	00095003 	andeq	r5, r9, r3
     a70:	02580d00 	subseq	r0, r8, #0, 26
     a74:	f2050000 	vhadd.s8	d0, d5, d0
     a78:	00003003 	andeq	r3, r0, r3
     a7c:	1d030400 	cfstrsne	mvf0, [r3, #-0]
     a80:	0d002302 	stceq	3, cr2, [r0, #-8]
     a84:	00000a92 	muleq	r0, r2, sl
     a88:	3003f305 	andcc	pc, r3, r5, lsl #6
     a8c:	04000000 	streq	r0, [r0], #-0
     a90:	23021805 	movwcs	r1, #10245	; 0x2805
     a94:	0cdb0d00 	ldcleq	13, cr0, [fp], {0}
     a98:	f4050000 	vst4.8	{d0-d3}, [r5], r0
     a9c:	00003003 	andeq	r3, r0, r3
     aa0:	15030400 	strne	r0, [r3, #-1024]	; 0xfffffc00
     aa4:	0d002302 	stceq	3, cr2, [r0, #-8]
     aa8:	00000a98 	muleq	r0, r8, sl
     aac:	3003f505 	andcc	pc, r3, r5, lsl #10
     ab0:	04000000 	streq	r0, [r0], #-0
     ab4:	23021005 	movwcs	r1, #8197	; 0x2005
     ab8:	1a460d00 	bne	1183ec0 <__bss_end__+0x117dd80>
     abc:	f6050000 			; <UNDEFINED> instruction: 0xf6050000
     ac0:	00003003 	andeq	r3, r0, r3
     ac4:	0d030400 	cfstrseq	mvf0, [r3, #-0]
     ac8:	0d002302 	stceq	3, cr2, [r0, #-8]
     acc:	00000a9e 	muleq	r0, lr, sl
     ad0:	3003f705 	andcc	pc, r3, r5, lsl #14
     ad4:	04000000 	streq	r0, [r0], #-0
     ad8:	23020805 	movwcs	r0, #10245	; 0x2805
     adc:	0b8e0d00 	bleq	fe383ee4 <__bss_end__+0xfe37dda4>
     ae0:	f8050000 			; <UNDEFINED> instruction: 0xf8050000
     ae4:	00003003 	andeq	r3, r0, r3
     ae8:	05030400 	streq	r0, [r3, #-1024]	; 0xfffffc00
     aec:	0d002302 	stceq	3, cr2, [r0, #-8]
     af0:	00000aa4 	andeq	r0, r0, r4, lsr #21
     af4:	3003f905 	andcc	pc, r3, r5, lsl #18
     af8:	04000000 	streq	r0, [r0], #-0
     afc:	23020005 	movwcs	r0, #8197	; 0x2005
     b00:	04060000 	streq	r0, [r6], #-0
     b04:	6e03ed05 	cdpvs	13, 0, cr14, cr3, cr5, {0}
     b08:	07000009 	streq	r0, [r0, -r9]
     b0c:	ef050055 	svc	0x00050055
     b10:	00002503 	andeq	r2, r0, r3, lsl #10
     b14:	00420700 	subeq	r0, r2, r0, lsl #14
     b18:	b603fa05 	strlt	pc, [r3], -r5, lsl #20
     b1c:	00000008 	andeq	r0, r0, r8
     b20:	00056608 	andeq	r6, r5, r8, lsl #12
     b24:	03fb0500 	mvnseq	r0, #0, 10
     b28:	00000950 	andeq	r0, r0, r0, asr r9
     b2c:	44050404 	strmi	r0, [r5], #-1028	; 0xfffffbfc
     b30:	0009ff04 	andeq	pc, r9, r4, lsl #30
     b34:	0e340d00 	cdpeq	13, 3, cr0, cr4, cr0, {0}
     b38:	46050000 	strmi	r0, [r5], -r0
     b3c:	00003004 	andeq	r3, r0, r4
     b40:	1d030400 	cfstrsne	mvf0, [r3, #-0]
     b44:	0d002302 	stceq	3, cr2, [r0, #-8]
     b48:	00000a92 	muleq	r0, r2, sl
     b4c:	30044705 	andcc	r4, r4, r5, lsl #14
     b50:	04000000 	streq	r0, [r0], #-0
     b54:	23021805 	movwcs	r1, #10245	; 0x2805
     b58:	16880500 	strne	r0, [r8], r0, lsl #10
     b5c:	48050000 	stmdami	r5, {}	; <UNPREDICTABLE>
     b60:	00004904 	andeq	r4, r0, r4, lsl #18
     b64:	01230200 	teqeq	r3, r0, lsl #4
     b68:	00150a0d 	andseq	r0, r5, sp, lsl #20
     b6c:	04490500 	strbeq	r0, [r9], #-1280	; 0xfffffb00
     b70:	00000030 	andeq	r0, r0, r0, lsr r0
     b74:	020d0304 	andeq	r0, sp, #4, 6	; 0x10000000
     b78:	980d0023 	stmdals	sp, {r0, r1, r5}
     b7c:	0500000a 	streq	r0, [r0, #-10]
     b80:	0030044a 	eorseq	r0, r0, sl, asr #8
     b84:	05040000 	streq	r0, [r4, #-0]
     b88:	00230208 	eoreq	r0, r3, r8, lsl #4
     b8c:	000db90d 	andeq	fp, sp, sp, lsl #18
     b90:	044b0500 	strbeq	r0, [fp], #-1280	; 0xfffffb00
     b94:	00000030 	andeq	r0, r0, r0, lsr r0
     b98:	02050304 	andeq	r0, r5, #4, 6	; 0x10000000
     b9c:	9e0d0023 	cdpls	0, 0, cr0, cr13, cr3, {1}
     ba0:	0500000a 	streq	r0, [r0, #-10]
     ba4:	0030044c 	eorseq	r0, r0, ip, asr #8
     ba8:	05040000 	streq	r0, [r4, #-0]
     bac:	00230200 	eoreq	r0, r3, r0, lsl #4
     bb0:	05040600 	streq	r0, [r4, #-1536]	; 0xfffffa00
     bb4:	0a1d0441 	beq	741cc0 <__bss_end__+0x73bb80>
     bb8:	55070000 	strpl	r0, [r7, #-0]
     bbc:	04430500 	strbeq	r0, [r3], #-1280	; 0xfffffb00
     bc0:	00000025 	andeq	r0, r0, r5, lsr #32
     bc4:	05004207 	streq	r4, [r0, #-519]	; 0xfffffdf9
     bc8:	097a044d 	ldmdbeq	sl!, {r0, r2, r3, r6, sl}^
     bcc:	08000000 	stmdaeq	r0, {}	; <UNPREDICTABLE>
     bd0:	00000aed 	andeq	r0, r0, sp, ror #21
     bd4:	ff044e05 			; <UNDEFINED> instruction: 0xff044e05
     bd8:	04000009 	streq	r0, [r0], #-9
     bdc:	04900504 	ldreq	r0, [r0], #1284	; 0x504
     be0:	00000ac3 	andeq	r0, r0, r3, asr #21
     be4:	0017e10d 	andseq	lr, r7, sp, lsl #2
     be8:	04920500 	ldreq	r0, [r2], #1280	; 0x500
     bec:	00000030 	andeq	r0, r0, r0, lsr r0
     bf0:	021d0304 	andseq	r0, sp, #4, 6	; 0x10000000
     bf4:	920d0023 	andls	r0, sp, #35	; 0x23
     bf8:	0500000a 	streq	r0, [r0, #-10]
     bfc:	00300493 	mlaseq	r0, r3, r4, r0
     c00:	05040000 	streq	r0, [r4, #-0]
     c04:	00230218 	eoreq	r0, r3, r8, lsl r2
     c08:	000ec50d 	andeq	ip, lr, sp, lsl #10
     c0c:	04940500 	ldreq	r0, [r4], #1280	; 0x500
     c10:	00000030 	andeq	r0, r0, r0, lsr r0
     c14:	02140404 	andseq	r0, r4, #4, 8	; 0x4000000
     c18:	980d0023 	stmdals	sp, {r0, r1, r5}
     c1c:	0500000a 	streq	r0, [r0, #-10]
     c20:	00300495 	mlaseq	r0, r5, r4, r0
     c24:	04040000 	streq	r0, [r4], #-0
     c28:	00230210 	eoreq	r0, r3, r0, lsl r2
     c2c:	001bf90d 	andseq	pc, fp, sp, lsl #18
     c30:	04960500 	ldreq	r0, [r6], #1280	; 0x500
     c34:	00000030 	andeq	r0, r0, r0, lsr r0
     c38:	020c0404 	andeq	r0, ip, #4, 8	; 0x4000000
     c3c:	9e0d0023 	cdpls	0, 0, cr0, cr13, cr3, {1}
     c40:	0500000a 	streq	r0, [r0, #-10]
     c44:	00300497 	mlaseq	r0, r7, r4, r0
     c48:	04040000 	streq	r0, [r4], #-0
     c4c:	00230208 	eoreq	r0, r3, r8, lsl #4
     c50:	0018f60d 	andseq	pc, r8, sp, lsl #12
     c54:	04980500 	ldreq	r0, [r8], #1280	; 0x500
     c58:	00000030 	andeq	r0, r0, r0, lsr r0
     c5c:	02040404 	andeq	r0, r4, #4, 8	; 0x4000000
     c60:	a40d0023 	strge	r0, [sp], #-35	; 0xffffffdd
     c64:	0500000a 	streq	r0, [r0, #-10]
     c68:	00300499 	mlaseq	r0, r9, r4, r0
     c6c:	04040000 	streq	r0, [r4], #-0
     c70:	00230200 	eoreq	r0, r3, r0, lsl #4
     c74:	05040600 	streq	r0, [r4, #-1536]	; 0xfffffa00
     c78:	0ae1048d 	beq	ff841eb4 <__bss_end__+0xff83bd74>
     c7c:	55070000 	strpl	r0, [r7, #-0]
     c80:	048f0500 	streq	r0, [pc], #1280	; c88 <irq_handler+0xc04>
     c84:	00000025 	andeq	r0, r0, r5, lsr #32
     c88:	05004207 	streq	r4, [r0, #-519]	; 0xfffffdf9
     c8c:	0a29049a 	beq	a41efc <__bss_end__+0xa3bdbc>
     c90:	08000000 	stmdaeq	r0, {}	; <UNPREDICTABLE>
     c94:	0000100e 	andeq	r1, r0, lr
     c98:	c3049b05 	movwgt	r9, #19205	; 0x4b05
     c9c:	0400000a 	streq	r0, [r0], #-10
     ca0:	04e80504 	strbteq	r0, [r8], #1284	; 0x504
     ca4:	00000b87 	andeq	r0, r0, r7, lsl #23
     ca8:	000ebe0d 	andeq	fp, lr, sp, lsl #28
     cac:	04ea0500 	strbteq	r0, [sl], #1280	; 0x500
     cb0:	00000030 	andeq	r0, r0, r0, lsr r0
     cb4:	021c0404 	andseq	r0, ip, #4, 8	; 0x4000000
     cb8:	920d0023 	andls	r0, sp, #35	; 0x23
     cbc:	0500000a 	streq	r0, [r0, #-10]
     cc0:	003004eb 	eorseq	r0, r0, fp, ror #9
     cc4:	04040000 	streq	r0, [r4], #-0
     cc8:	00230218 	eoreq	r0, r3, r8, lsl r2
     ccc:	0006630d 	andeq	r6, r6, sp, lsl #6
     cd0:	04ec0500 	strbteq	r0, [ip], #1280	; 0x500
     cd4:	00000030 	andeq	r0, r0, r0, lsr r0
     cd8:	02140404 	andseq	r0, r4, #4, 8	; 0x4000000
     cdc:	980d0023 	stmdals	sp, {r0, r1, r5}
     ce0:	0500000a 	streq	r0, [r0, #-10]
     ce4:	003004ed 	eorseq	r0, r0, sp, ror #9
     ce8:	04040000 	streq	r0, [r4], #-0
     cec:	00230210 	eoreq	r0, r3, r0, lsl r2
     cf0:	0015610d 	andseq	r6, r5, sp, lsl #2
     cf4:	04ee0500 	strbteq	r0, [lr], #1280	; 0x500
     cf8:	00000030 	andeq	r0, r0, r0, lsr r0
     cfc:	020c0404 	andeq	r0, ip, #4, 8	; 0x4000000
     d00:	9e0d0023 	cdpls	0, 0, cr0, cr13, cr3, {1}
     d04:	0500000a 	streq	r0, [r0, #-10]
     d08:	003004ef 	eorseq	r0, r0, pc, ror #9
     d0c:	04040000 	streq	r0, [r4], #-0
     d10:	00230208 	eoreq	r0, r3, r8, lsl #4
     d14:	0012150d 	andseq	r1, r2, sp, lsl #10
     d18:	04f00500 	ldrbteq	r0, [r0], #1280	; 0x500
     d1c:	00000030 	andeq	r0, r0, r0, lsr r0
     d20:	02040404 	andeq	r0, r4, #4, 8	; 0x4000000
     d24:	a40d0023 	strge	r0, [sp], #-35	; 0xffffffdd
     d28:	0500000a 	streq	r0, [r0, #-10]
     d2c:	003004f1 	ldrshteq	r0, [r0], -r1
     d30:	04040000 	streq	r0, [r4], #-0
     d34:	00230200 	eoreq	r0, r3, r0, lsl #4
     d38:	05040600 	streq	r0, [r4, #-1536]	; 0xfffffa00
     d3c:	0ba504e5 	bleq	fe9420d8 <__bss_end__+0xfe93bf98>
     d40:	55070000 	strpl	r0, [r7, #-0]
     d44:	04e70500 	strbteq	r0, [r7], #1280	; 0x500
     d48:	00000025 	andeq	r0, r0, r5, lsr #32
     d4c:	05004207 	streq	r4, [r0, #-519]	; 0xfffffdf9
     d50:	0aed04f2 	beq	ffb42120 <__bss_end__+0xffb3bfe0>
     d54:	08000000 	stmdaeq	r0, {}	; <UNPREDICTABLE>
     d58:	000016aa 	andeq	r1, r0, sl, lsr #13
     d5c:	8704f305 	strhi	pc, [r4, -r5, lsl #6]
     d60:	0400000b 	streq	r0, [r0], #-11
     d64:	053c0504 	ldreq	r0, [ip, #-1284]!	; 0xfffffafc
     d68:	00000c4b 	andeq	r0, r0, fp, asr #24
     d6c:	0001120d 	andeq	r1, r1, sp, lsl #4
     d70:	053e0500 	ldreq	r0, [lr, #-1280]!	; 0xfffffb00
     d74:	00000030 	andeq	r0, r0, r0, lsr r0
     d78:	021c0404 	andseq	r0, ip, #4, 8	; 0x4000000
     d7c:	920d0023 	andls	r0, sp, #35	; 0x23
     d80:	0500000a 	streq	r0, [r0, #-10]
     d84:	0030053f 	eorseq	r0, r0, pc, lsr r5
     d88:	04040000 	streq	r0, [r4], #-0
     d8c:	00230218 	eoreq	r0, r3, r8, lsl r2
     d90:	0019f20d 	andseq	pc, r9, sp, lsl #4
     d94:	05400500 	strbeq	r0, [r0, #-1280]	; 0xfffffb00
     d98:	00000030 	andeq	r0, r0, r0, lsr r0
     d9c:	02140404 	andseq	r0, r4, #4, 8	; 0x4000000
     da0:	980d0023 	stmdals	sp, {r0, r1, r5}
     da4:	0500000a 	streq	r0, [r0, #-10]
     da8:	00300541 	eorseq	r0, r0, r1, asr #10
     dac:	04040000 	streq	r0, [r4], #-0
     db0:	00230210 	eoreq	r0, r3, r0, lsl r2
     db4:	000a2b0d 	andeq	r2, sl, sp, lsl #22
     db8:	05420500 	strbeq	r0, [r2, #-1280]	; 0xfffffb00
     dbc:	00000030 	andeq	r0, r0, r0, lsr r0
     dc0:	020c0404 	andeq	r0, ip, #4, 8	; 0x4000000
     dc4:	9e0d0023 	cdpls	0, 0, cr0, cr13, cr3, {1}
     dc8:	0500000a 	streq	r0, [r0, #-10]
     dcc:	00300543 	eorseq	r0, r0, r3, asr #10
     dd0:	04040000 	streq	r0, [r4], #-0
     dd4:	00230208 	eoreq	r0, r3, r8, lsl #4
     dd8:	5052540e 	subspl	r5, r2, lr, lsl #8
     ddc:	05440500 	strbeq	r0, [r4, #-1280]	; 0xfffffb00
     de0:	00000030 	andeq	r0, r0, r0, lsr r0
     de4:	02040404 	andeq	r0, r4, #4, 8	; 0x4000000
     de8:	a40d0023 	strge	r0, [sp], #-35	; 0xffffffdd
     dec:	0500000a 	streq	r0, [r0, #-10]
     df0:	00300545 	eorseq	r0, r0, r5, asr #10
     df4:	04040000 	streq	r0, [r4], #-0
     df8:	00230200 	eoreq	r0, r3, r0, lsl #4
     dfc:	05040600 	streq	r0, [r4, #-1536]	; 0xfffffa00
     e00:	0c690539 	cfstr64eq	mvdx0, [r9], #-228	; 0xffffff1c
     e04:	55070000 	strpl	r0, [r7, #-0]
     e08:	053b0500 	ldreq	r0, [fp, #-1280]!	; 0xfffffb00
     e0c:	00000025 	andeq	r0, r0, r5, lsr #32
     e10:	05004207 	streq	r4, [r0, #-519]	; 0xfffffdf9
     e14:	0bb10546 	bleq	fec42334 <__bss_end__+0xfec3c1f4>
     e18:	08000000 	stmdaeq	r0, {}	; <UNPREDICTABLE>
     e1c:	00001c86 	andeq	r1, r0, r6, lsl #25
     e20:	4b054705 	blmi	152a3c <__bss_end__+0x14c8fc>
     e24:	0400000c 	streq	r0, [r0], #-12
     e28:	058c0504 	streq	r0, [ip, #1284]	; 0x504
     e2c:	00000d0f 	andeq	r0, r0, pc, lsl #26
     e30:	0003e80d 	andeq	lr, r3, sp, lsl #16
     e34:	058e0500 	streq	r0, [lr, #1280]	; 0x500
     e38:	00000030 	andeq	r0, r0, r0, lsr r0
     e3c:	021c0404 	andseq	r0, ip, #4, 8	; 0x4000000
     e40:	920d0023 	andls	r0, sp, #35	; 0x23
     e44:	0500000a 	streq	r0, [r0, #-10]
     e48:	0030058f 	eorseq	r0, r0, pc, lsl #11
     e4c:	04040000 	streq	r0, [r4], #-0
     e50:	00230218 	eoreq	r0, r3, r8, lsl r2
     e54:	00071d0d 	andeq	r1, r7, sp, lsl #26
     e58:	05900500 	ldreq	r0, [r0, #1280]	; 0x500
     e5c:	00000030 	andeq	r0, r0, r0, lsr r0
     e60:	02130504 	andseq	r0, r3, #4, 10	; 0x1000000
     e64:	980d0023 	stmdals	sp, {r0, r1, r5}
     e68:	0500000a 	streq	r0, [r0, #-10]
     e6c:	00300591 	mlaseq	r0, r1, r5, r0
     e70:	03040000 	movweq	r0, #16384	; 0x4000
     e74:	00230210 	eoreq	r0, r3, r0, lsl r2
     e78:	0005ef0d 	andeq	lr, r5, sp, lsl #30
     e7c:	05920500 	ldreq	r0, [r2, #1280]	; 0x500
     e80:	00000030 	andeq	r0, r0, r0, lsr r0
     e84:	020b0504 	andeq	r0, fp, #4, 10	; 0x1000000
     e88:	9e0d0023 	cdpls	0, 0, cr0, cr13, cr3, {1}
     e8c:	0500000a 	streq	r0, [r0, #-10]
     e90:	00300593 	mlaseq	r0, r3, r5, r0
     e94:	03040000 	movweq	r0, #16384	; 0x4000
     e98:	00230208 	eoreq	r0, r3, r8, lsl #4
     e9c:	0014b40d 	andseq	fp, r4, sp, lsl #8
     ea0:	05940500 	ldreq	r0, [r4, #1280]	; 0x500
     ea4:	00000030 	andeq	r0, r0, r0, lsr r0
     ea8:	02030504 	andeq	r0, r3, #4, 10	; 0x1000000
     eac:	a40d0023 	strge	r0, [sp], #-35	; 0xffffffdd
     eb0:	0500000a 	streq	r0, [r0, #-10]
     eb4:	00300595 	mlaseq	r0, r5, r5, r0
     eb8:	03040000 	movweq	r0, #16384	; 0x4000
     ebc:	00230200 	eoreq	r0, r3, r0, lsl #4
     ec0:	05040600 	streq	r0, [r4, #-1536]	; 0xfffffa00
     ec4:	0d2d0589 	cfstr32eq	mvfx0, [sp, #-548]!	; 0xfffffddc
     ec8:	55070000 	strpl	r0, [r7, #-0]
     ecc:	058b0500 	streq	r0, [fp, #1280]	; 0x500
     ed0:	00000025 	andeq	r0, r0, r5, lsr #32
     ed4:	05004207 	streq	r4, [r0, #-519]	; 0xfffffdf9
     ed8:	0c750596 	cfldr64eq	mvdx0, [r5], #-600	; 0xfffffda8
     edc:	08000000 	stmdaeq	r0, {}	; <UNPREDICTABLE>
     ee0:	0000058d 	andeq	r0, r0, sp, lsl #11
     ee4:	0f059705 	svceq	0x00059705
     ee8:	0400000d 	streq	r0, [r0], #-13
     eec:	05e40504 	strbeq	r0, [r4, #1284]!	; 0x504
     ef0:	00000d94 	muleq	r0, r4, sp
     ef4:	4352540e 	cmpmi	r2, #234881024	; 0xe000000
     ef8:	05e60500 	strbeq	r0, [r6, #1280]!	; 0x500
     efc:	00000030 	andeq	r0, r0, r0, lsr r0
     f00:	021b0504 	andseq	r0, fp, #4, 10	; 0x1000000
     f04:	920d0023 	andls	r0, sp, #35	; 0x23
     f08:	0500000a 	streq	r0, [r0, #-10]
     f0c:	003005e7 	eorseq	r0, r0, r7, ror #11
     f10:	03040000 	movweq	r0, #16384	; 0x4000
     f14:	00230218 	eoreq	r0, r3, r8, lsl r2
     f18:	00120105 	andseq	r0, r2, r5, lsl #2
     f1c:	05e80500 	strbeq	r0, [r8, #1280]!	; 0x500
     f20:	00000049 	andeq	r0, r0, r9, asr #32
     f24:	05012302 	streq	r2, [r1, #-770]	; 0xfffffcfe
     f28:	00001c59 	andeq	r1, r0, r9, asr ip
     f2c:	4905e905 	stmdbmi	r5, {r0, r2, r8, fp, sp, lr, pc}
     f30:	02000000 	andeq	r0, r0, #0
     f34:	ec050223 	sfm	f0, 4, [r5], {35}	; 0x23
     f38:	05000014 	streq	r0, [r0, #-20]	; 0xffffffec
     f3c:	004905ea 	subeq	r0, r9, sl, ror #11
     f40:	23020000 	movwcs	r0, #8192	; 0x2000
     f44:	04060003 	streq	r0, [r6], #-3
     f48:	b205e105 	andlt	lr, r5, #1073741825	; 0x40000001
     f4c:	0700000d 	streq	r0, [r0, -sp]
     f50:	e3050055 	movw	r0, #20565	; 0x5055
     f54:	00002505 	andeq	r2, r0, r5, lsl #10
     f58:	00420700 	subeq	r0, r2, r0, lsl #14
     f5c:	3905eb05 	stmdbcc	r5, {r0, r2, r8, r9, fp, sp, lr, pc}
     f60:	0000000d 	andeq	r0, r0, sp
     f64:	000b3708 	andeq	r3, fp, r8, lsl #14
     f68:	05ec0500 	strbeq	r0, [ip, #1280]!	; 0x500
     f6c:	00000d94 	muleq	r0, r4, sp
     f70:	39050404 	stmdbcc	r5, {r2, sl}
     f74:	000e5806 	andeq	r5, lr, r6, lsl #16
     f78:	0a610d00 	beq	1844380 <__bss_end__+0x183e240>
     f7c:	3b050000 	blcc	140f84 <__bss_end__+0x13ae44>
     f80:	00003006 	andeq	r3, r0, r6
     f84:	1b050400 	blne	141f8c <__bss_end__+0x13be4c>
     f88:	0d002302 	stceq	3, cr2, [r0, #-8]
     f8c:	00000a92 	muleq	r0, r2, sl
     f90:	30063c05 	andcc	r3, r6, r5, lsl #24
     f94:	04000000 	streq	r0, [r0], #-0
     f98:	23021803 	movwcs	r1, #10243	; 0x2803
     f9c:	0f420d00 	svceq	0x00420d00
     fa0:	3d050000 	stccc	0, cr0, [r5, #-0]
     fa4:	00003006 	andeq	r3, r0, r6
     fa8:	13050400 	movwne	r0, #21504	; 0x5400
     fac:	0d002302 	stceq	3, cr2, [r0, #-8]
     fb0:	00000a98 	muleq	r0, r8, sl
     fb4:	30063e05 	andcc	r3, r6, r5, lsl #28
     fb8:	04000000 	streq	r0, [r0], #-0
     fbc:	23021003 	movwcs	r1, #8195	; 0x2003
     fc0:	0d140d00 	ldceq	13, cr0, [r4, #-0]
     fc4:	3f050000 	svccc	0x00050000
     fc8:	00003006 	andeq	r3, r0, r6
     fcc:	09070400 	stmdbeq	r7, {sl}
     fd0:	0d002302 	stceq	3, cr2, [r0, #-8]
     fd4:	00000a9e 	muleq	r0, lr, sl
     fd8:	30064005 	andcc	r4, r6, r5
     fdc:	04000000 	streq	r0, [r0], #-0
     fe0:	23020801 	movwcs	r0, #10241	; 0x2801
     fe4:	0d240d00 	stceq	13, cr0, [r4, #-0]
     fe8:	41050000 	mrsmi	r0, (UNDEF: 5)
     fec:	00003006 	andeq	r3, r0, r6
     ff0:	01070400 	tsteq	r7, r0, lsl #8
     ff4:	0d002302 	stceq	3, cr2, [r0, #-8]
     ff8:	00000aa4 	andeq	r0, r0, r4, lsr #21
     ffc:	30064205 	andcc	r4, r6, r5, lsl #4
    1000:	04000000 	streq	r0, [r0], #-0
    1004:	23020001 	movwcs	r0, #8193	; 0x2001
    1008:	04060000 	streq	r0, [r6], #-0
    100c:	76063605 	strvc	r3, [r6], -r5, lsl #12
    1010:	0700000e 	streq	r0, [r0, -lr]
    1014:	38050055 	stmdacc	r5, {r0, r2, r4, r6}
    1018:	00002506 	andeq	r2, r0, r6, lsl #10
    101c:	00420700 	subeq	r0, r2, r0, lsl #14
    1020:	be064305 	cdplt	3, 0, cr4, cr6, cr5, {0}
    1024:	0000000d 	andeq	r0, r0, sp
    1028:	00104108 	andseq	r4, r0, r8, lsl #2
    102c:	06440500 	strbeq	r0, [r4], -r0, lsl #10
    1030:	00000e58 	andeq	r0, r0, r8, asr lr
    1034:	8d050404 	cfstrshi	mvf0, [r5, #-16]
    1038:	000edd06 	andeq	sp, lr, r6, lsl #26
    103c:	01700500 	cmneq	r0, r0, lsl #10
    1040:	8f050000 	svchi	0x00050000
    1044:	00004906 	andeq	r4, r0, r6, lsl #18
    1048:	00230200 	eoreq	r0, r3, r0, lsl #4
    104c:	00018705 	andeq	r8, r1, r5, lsl #14
    1050:	06900500 	ldreq	r0, [r0], r0, lsl #10
    1054:	00000049 	andeq	r0, r0, r9, asr #32
    1058:	0d012302 	stceq	3, cr2, [r1, #-8]
    105c:	00000bda 	ldrdeq	r0, [r0], -sl
    1060:	30069105 	andcc	r9, r6, r5, lsl #2
    1064:	04000000 	streq	r0, [r0], #-0
    1068:	23020907 	movwcs	r0, #10503	; 0x2907
    106c:	0a920d00 	beq	fe484474 <__bss_end__+0xfe47e334>
    1070:	92050000 	andls	r0, r5, #0
    1074:	00003006 	andeq	r3, r0, r6
    1078:	08010400 	stmdaeq	r1, {sl}
    107c:	05002302 	streq	r2, [r0, #-770]	; 0xfffffcfe
    1080:	00000c7b 	andeq	r0, r0, fp, ror ip
    1084:	49069305 	stmdbmi	r6, {r0, r2, r8, r9, ip, pc}
    1088:	02000000 	andeq	r0, r0, #0
    108c:	06000323 	streq	r0, [r0], -r3, lsr #6
    1090:	068a0504 	streq	r0, [sl], r4, lsl #10
    1094:	00000efb 	strdeq	r0, [r0], -fp
    1098:	05005507 	streq	r5, [r0, #-1287]	; 0xfffffaf9
    109c:	0025068c 	eoreq	r0, r5, ip, lsl #13
    10a0:	42070000 	andmi	r0, r7, #0
    10a4:	06940500 	ldreq	r0, [r4], r0, lsl #10
    10a8:	00000e82 	andeq	r0, r0, r2, lsl #29
    10ac:	16de0800 	ldrbne	r0, [lr], r0, lsl #16
    10b0:	95050000 	strls	r0, [r5, #-0]
    10b4:	000edd06 	andeq	sp, lr, r6, lsl #26
    10b8:	05040400 	streq	r0, [r4, #-1024]	; 0xfffffc00
    10bc:	0f6206e6 	svceq	0x006206e6
    10c0:	ad0d0000 	stcge	0, cr0, [sp, #-0]
    10c4:	05000009 	streq	r0, [r0, #-9]
    10c8:	003006e8 	eorseq	r0, r0, r8, ror #13
    10cc:	07040000 	streq	r0, [r4, -r0]
    10d0:	00230219 	eoreq	r0, r3, r9, lsl r2
    10d4:	000a920d 	andeq	r9, sl, sp, lsl #4
    10d8:	06e90500 	strbteq	r0, [r9], r0, lsl #10
    10dc:	00000030 	andeq	r0, r0, r0, lsr r0
    10e0:	02180104 	andseq	r0, r8, #4, 2
    10e4:	80050023 	andhi	r0, r5, r3, lsr #32
    10e8:	05000004 	streq	r0, [r0, #-4]
    10ec:	004906ea 	subeq	r0, r9, sl, ror #13
    10f0:	23020000 	movwcs	r0, #8192	; 0x2000
    10f4:	112f0501 	teqne	pc, r1, lsl #10
    10f8:	eb050000 	bl	141100 <__bss_end__+0x13afc0>
    10fc:	00004906 	andeq	r4, r0, r6, lsl #18
    1100:	02230200 	eoreq	r0, r3, #0, 4
    1104:	000ede05 	andeq	sp, lr, r5, lsl #28
    1108:	06ec0500 	strbteq	r0, [ip], r0, lsl #10
    110c:	00000049 	andeq	r0, r0, r9, asr #32
    1110:	00032302 	andeq	r2, r3, r2, lsl #6
    1114:	e3050406 	movw	r0, #21510	; 0x5406
    1118:	000f8006 	andeq	r8, pc, r6
    111c:	00550700 	subseq	r0, r5, r0, lsl #14
    1120:	2506e505 	strcs	lr, [r6, #-1285]	; 0xfffffafb
    1124:	07000000 	streq	r0, [r0, -r0]
    1128:	ed050042 	stc	0, cr0, [r5, #-264]	; 0xfffffef8
    112c:	000f0706 	andeq	r0, pc, r6, lsl #14
    1130:	24080000 	strcs	r0, [r8], #-0
    1134:	0500000e 	streq	r0, [r0, #-14]
    1138:	0f6206ee 	svceq	0x006206ee
    113c:	04040000 	streq	r0, [r4], #-0
    1140:	d8073f05 	stmdale	r7, {r0, r2, r8, r9, sl, fp, ip, sp}
    1144:	0500000f 	streq	r0, [r0, #-15]
    1148:	00000f98 	muleq	r0, r8, pc	; <UNPREDICTABLE>
    114c:	49074105 	stmdbmi	r7, {r0, r2, r8, lr}
    1150:	02000000 	andeq	r0, r0, #0
    1154:	ab0d0023 	blge	3411e8 <__bss_end__+0x33b0a8>
    1158:	05000010 	streq	r0, [r0, #-16]
    115c:	00300742 	eorseq	r0, r0, r2, asr #14
    1160:	0a040000 	beq	101168 <__bss_end__+0xfb028>
    1164:	0023020e 	eoreq	r0, r3, lr, lsl #4
    1168:	000a920d 	andeq	r9, sl, sp, lsl #4
    116c:	07430500 	strbeq	r0, [r3, -r0, lsl #10]
    1170:	00000030 	andeq	r0, r0, r0, lsr r0
    1174:	02080604 	andeq	r0, r8, #4, 12	; 0x400000
    1178:	88050023 	stmdahi	r5, {r0, r1, r5}
    117c:	05000016 	streq	r0, [r0, #-22]	; 0xffffffea
    1180:	00490744 	subeq	r0, r9, r4, asr #14
    1184:	23020000 	movwcs	r0, #8192	; 0x2000
    1188:	04060003 	streq	r0, [r6], #-3
    118c:	f6073c05 			; <UNDEFINED> instruction: 0xf6073c05
    1190:	0700000f 	streq	r0, [r0, -pc]
    1194:	3e050055 	mcrcc	0, 0, r0, cr5, cr5, {2}
    1198:	00002507 	andeq	r2, r0, r7, lsl #10
    119c:	00420700 	subeq	r0, r2, r0, lsl #14
    11a0:	8c074505 	cfstr32hi	mvfx4, [r7], {5}
    11a4:	0000000f 	andeq	r0, r0, pc
    11a8:	00136608 	andseq	r6, r3, r8, lsl #12
    11ac:	07460500 	strbeq	r0, [r6, -r0, lsl #10]
    11b0:	00000fd8 	ldrdeq	r0, [r0], -r8
    11b4:	71050404 	tstvc	r5, r4, lsl #8
    11b8:	00103f08 	andseq	r3, r0, r8, lsl #30
    11bc:	08820d00 	stmeq	r2, {r8, sl, fp}
    11c0:	73050000 	movwvc	r0, #20480	; 0x5000
    11c4:	00003008 	andeq	r3, r0, r8
    11c8:	140c0400 	strne	r0, [ip], #-1024	; 0xfffffc00
    11cc:	0d002302 	stceq	3, cr2, [r0, #-8]
    11d0:	00000a92 	muleq	r0, r2, sl
    11d4:	30087405 	andcc	r7, r8, r5, lsl #8
    11d8:	04000000 	streq	r0, [r0], #-0
    11dc:	23021004 	movwcs	r1, #8196	; 0x2004
    11e0:	16880500 	strne	r0, [r8], r0, lsl #10
    11e4:	75050000 	strvc	r0, [r5, #-0]
    11e8:	00003708 	andeq	r3, r0, r8, lsl #14
    11ec:	02230200 	eoreq	r0, r3, #0, 4
    11f0:	05040600 	streq	r0, [r4, #-1536]	; 0xfffffa00
    11f4:	105d086e 	subsne	r0, sp, lr, ror #16
    11f8:	55070000 	strpl	r0, [r7, #-0]
    11fc:	08700500 	ldmdaeq	r0!, {r8, sl}^
    1200:	00000025 	andeq	r0, r0, r5, lsr #32
    1204:	05004207 	streq	r4, [r0, #-519]	; 0xfffffdf9
    1208:	10020876 	andne	r0, r2, r6, ror r8
    120c:	08000000 	stmdaeq	r0, {}	; <UNPREDICTABLE>
    1210:	000013a6 	andeq	r1, r0, r6, lsr #7
    1214:	3f087705 	svccc	0x00087705
    1218:	04000010 	streq	r0, [r0], #-16
    121c:	08e50504 	stmiaeq	r5!, {r2, r8, sl}^
    1220:	00001091 	muleq	r0, r1, r0
    1224:	00045b05 	andeq	r5, r4, r5, lsl #22
    1228:	08e70500 	stmiaeq	r7!, {r8, sl}^
    122c:	00000037 	andeq	r0, r0, r7, lsr r0
    1230:	05002302 	streq	r2, [r0, #-770]	; 0xfffffcfe
    1234:	000015f4 	strdeq	r1, [r0], -r4
    1238:	3708e805 	strcc	lr, [r8, -r5, lsl #16]
    123c:	02000000 	andeq	r0, r0, #0
    1240:	06000223 	streq	r0, [r0], -r3, lsr #4
    1244:	08e20504 	stmiaeq	r2!, {r2, r8, sl}^
    1248:	000010af 	andeq	r1, r0, pc, lsr #1
    124c:	05005507 	streq	r5, [r0, #-1287]	; 0xfffffaf9
    1250:	002508e4 	eoreq	r0, r5, r4, ror #17
    1254:	42070000 	andmi	r0, r7, #0
    1258:	08e90500 	stmiaeq	r9!, {r8, sl}^
    125c:	00001069 	andeq	r1, r0, r9, rrx
    1260:	08310800 	ldmdaeq	r1!, {fp}
    1264:	ea050000 	b	14126c <__bss_end__+0x13b12c>
    1268:	00109108 	andseq	r9, r0, r8, lsl #2
    126c:	05040400 	streq	r0, [r4, #-1024]	; 0xfffffc00
    1270:	10e30925 	rscne	r0, r3, r5, lsr #18
    1274:	29050000 	stmdbcs	r5, {}	; <UNPREDICTABLE>
    1278:	05000014 	streq	r0, [r0, #-20]	; 0xffffffec
    127c:	00370927 	eorseq	r0, r7, r7, lsr #18
    1280:	23020000 	movwcs	r0, #8192	; 0x2000
    1284:	12820500 	addne	r0, r2, #0, 10
    1288:	28050000 	stmdacs	r5, {}	; <UNPREDICTABLE>
    128c:	00003709 	andeq	r3, r0, r9, lsl #14
    1290:	02230200 	eoreq	r0, r3, #0, 4
    1294:	05040600 	streq	r0, [r4, #-1536]	; 0xfffffa00
    1298:	11010922 	tstne	r1, r2, lsr #18
    129c:	55070000 	strpl	r0, [r7, #-0]
    12a0:	09240500 	stmdbeq	r4!, {r8, sl}
    12a4:	00000025 	andeq	r0, r0, r5, lsr #32
    12a8:	05004207 	streq	r4, [r0, #-519]	; 0xfffffdf9
    12ac:	10bb0929 	adcsne	r0, fp, r9, lsr #18
    12b0:	08000000 	stmdaeq	r0, {}	; <UNPREDICTABLE>
    12b4:	00001ca1 	andeq	r1, r0, r1, lsr #25
    12b8:	e3092a05 	movw	r2, #39429	; 0x9a05
    12bc:	04000010 	streq	r0, [r0], #-16
    12c0:	09a50504 	stmibeq	r5!, {r2, r8, sl}
    12c4:	00001135 	andeq	r1, r0, r5, lsr r1
    12c8:	000a2205 	andeq	r2, sl, r5, lsl #4
    12cc:	09a70500 	stmibeq	r7!, {r8, sl}
    12d0:	00000037 	andeq	r0, r0, r7, lsr r0
    12d4:	05002302 	streq	r2, [r0, #-770]	; 0xfffffcfe
    12d8:	00000950 	andeq	r0, r0, r0, asr r9
    12dc:	3709a805 	strcc	sl, [r9, -r5, lsl #16]
    12e0:	02000000 	andeq	r0, r0, #0
    12e4:	06000223 	streq	r0, [r0], -r3, lsr #4
    12e8:	09a20504 	stmibeq	r2!, {r2, r8, sl}
    12ec:	00001153 	andeq	r1, r0, r3, asr r1
    12f0:	05005507 	streq	r5, [r0, #-1287]	; 0xfffffaf9
    12f4:	002509a4 	eoreq	r0, r5, r4, lsr #19
    12f8:	42070000 	andmi	r0, r7, #0
    12fc:	09a90500 	stmibeq	r9!, {r8, sl}
    1300:	0000110d 	andeq	r1, r0, sp, lsl #2
    1304:	0b560800 	bleq	158330c <__bss_end__+0x157d1cc>
    1308:	aa050000 	bge	141310 <__bss_end__+0x13b1d0>
    130c:	00113509 	andseq	r3, r1, r9, lsl #10
    1310:	05040400 	streq	r0, [r4, #-1024]	; 0xfffffc00
    1314:	118709e5 	orrne	r0, r7, r5, ror #19
    1318:	50050000 	andpl	r0, r5, r0
    131c:	05000019 	streq	r0, [r0, #-25]	; 0xffffffe7
    1320:	003709e7 	eorseq	r0, r7, r7, ror #19
    1324:	23020000 	movwcs	r0, #8192	; 0x2000
    1328:	18330500 	ldmdane	r3!, {r8, sl}
    132c:	e8050000 	stmda	r5, {}	; <UNPREDICTABLE>
    1330:	00003709 	andeq	r3, r0, r9, lsl #14
    1334:	02230200 	eoreq	r0, r3, #0, 4
    1338:	05040600 	streq	r0, [r4, #-1536]	; 0xfffffa00
    133c:	11a509e2 			; <UNDEFINED> instruction: 0x11a509e2
    1340:	55070000 	strpl	r0, [r7, #-0]
    1344:	09e40500 	stmibeq	r4!, {r8, sl}^
    1348:	00000025 	andeq	r0, r0, r5, lsr #32
    134c:	05004207 	streq	r4, [r0, #-519]	; 0xfffffdf9
    1350:	115f09e9 	cmpne	pc, r9, ror #19
    1354:	08000000 	stmdaeq	r0, {}	; <UNPREDICTABLE>
    1358:	00001067 	andeq	r1, r0, r7, rrx
    135c:	8709ea05 	strhi	lr, [r9, -r5, lsl #20]
    1360:	04000011 	streq	r0, [r0], #-17	; 0xffffffef
    1364:	0a210504 	beq	84277c <__bss_end__+0x83c63c>
    1368:	000011dc 	ldrdeq	r1, [r0], -ip
    136c:	0001d90d 	andeq	sp, r1, sp, lsl #18
    1370:	0a230500 	beq	8c2778 <__bss_end__+0x8bc638>
    1374:	00000030 	andeq	r0, r0, r0, lsr r0
    1378:	02081804 	andeq	r1, r8, #4, 16	; 0x40000
    137c:	92050023 	andls	r0, r5, #35	; 0x23
    1380:	0500000a 	streq	r0, [r0, #-10]
    1384:	00490a24 	subeq	r0, r9, r4, lsr #20
    1388:	23020000 	movwcs	r0, #8192	; 0x2000
    138c:	04060003 	streq	r0, [r6], #-3
    1390:	fa0a1e05 	blx	288bac <__bss_end__+0x282a6c>
    1394:	07000011 	smladeq	r0, r1, r0, r0
    1398:	20050055 	andcs	r0, r5, r5, asr r0
    139c:	0000250a 	andeq	r2, r0, sl, lsl #10
    13a0:	00420700 	subeq	r0, r2, r0, lsl #14
    13a4:	b10a2505 	tstlt	sl, r5, lsl #10
    13a8:	00000011 	andeq	r0, r0, r1, lsl r0
    13ac:	00172308 	andseq	r2, r7, r8, lsl #6
    13b0:	0a260500 	beq	9827b8 <__bss_end__+0x97c678>
    13b4:	000011dc 	ldrdeq	r1, [r0], -ip
    13b8:	8e050404 	cdphi	4, 0, cr0, cr5, cr4, {0}
    13bc:	0012430b 	andseq	r4, r2, fp, lsl #6
    13c0:	013a0d00 	teqeq	sl, r0, lsl #26
    13c4:	90050000 	andls	r0, r5, r0
    13c8:	0000300b 	andeq	r3, r0, fp
    13cc:	130d0400 	movwne	r0, #54272	; 0xd400
    13d0:	0d002302 	stceq	3, cr2, [r0, #-8]
    13d4:	00000a92 	muleq	r0, r2, sl
    13d8:	300b9105 	andcc	r9, fp, r5, lsl #2
    13dc:	04000000 	streq	r0, [r0], #-0
    13e0:	23021003 	movwcs	r1, #8195	; 0x2003
    13e4:	1bf30500 	blne	ffcc27ec <__bss_end__+0xffcbc6ac>
    13e8:	92050000 	andls	r0, r5, #0
    13ec:	0000370b 	andeq	r3, r0, fp, lsl #14
    13f0:	02230200 	eoreq	r0, r3, #0, 4
    13f4:	05040600 	streq	r0, [r4, #-1536]	; 0xfffffa00
    13f8:	12610b8b 	rsbne	r0, r1, #142336	; 0x22c00
    13fc:	55070000 	strpl	r0, [r7, #-0]
    1400:	0b8d0500 	bleq	fe342808 <__bss_end__+0xfe33c6c8>
    1404:	00000025 	andeq	r0, r0, r5, lsr #32
    1408:	05004207 	streq	r4, [r0, #-519]	; 0xfffffdf9
    140c:	12060b93 	andne	r0, r6, #150528	; 0x24c00
    1410:	08000000 	stmdaeq	r0, {}	; <UNPREDICTABLE>
    1414:	00000e54 	andeq	r0, r0, r4, asr lr
    1418:	430b9405 	movwmi	r9, #46085	; 0xb405
    141c:	09000012 	stmdbeq	r0, {r1, r4}
    1420:	42f10604 	rscsmi	r0, r1, #4, 12	; 0x400000
    1424:	0a000013 	beq	1478 <hw_clkctrl_SetClkBypass+0x6c>
    1428:	000012d7 	ldrdeq	r1, [r0], -r7
    142c:	0030f306 	eorseq	pc, r0, r6, lsl #6
    1430:	06040000 	streq	r0, [r4], -r0
    1434:	0023021a 	eoreq	r0, r3, sl, lsl r2
    1438:	0014480a 	andseq	r4, r4, sl, lsl #16
    143c:	30f40600 	rscscc	r0, r4, r0, lsl #12
    1440:	04000000 	streq	r0, [r0], #-0
    1444:	23021604 	movwcs	r1, #9732	; 0x2604
    1448:	150f0a00 	strne	r0, [pc, #-2560]	; a50 <irq_handler+0x9cc>
    144c:	f5060000 			; <UNDEFINED> instruction: 0xf5060000
    1450:	00000030 	andeq	r0, r0, r0, lsr r0
    1454:	02150104 	andseq	r0, r5, #4, 2
    1458:	4f0a0023 	svcmi	0x000a0023
    145c:	06000014 			; <UNDEFINED> instruction: 0x06000014
    1460:	000030f6 	strdeq	r3, [r0], -r6
    1464:	14010400 	strne	r0, [r1], #-1024	; 0xfffffc00
    1468:	0a002302 	beq	a078 <__bss_end__+0x3f38>
    146c:	000004aa 	andeq	r0, r0, sl, lsr #9
    1470:	0030f706 	eorseq	pc, r0, r6, lsl #14
    1474:	01040000 	mrseq	r0, (UNDEF: 4)
    1478:	00230213 	eoreq	r0, r3, r3, lsl r2
    147c:	0014560a 	andseq	r5, r4, sl, lsl #12
    1480:	30f80600 	rscscc	r0, r8, r0, lsl #12
    1484:	04000000 	streq	r0, [r0], #-0
    1488:	23021003 	movwcs	r1, #8195	; 0x2003
    148c:	1bd40a00 	blne	ff503c94 <__bss_end__+0xff4fdb54>
    1490:	f9060000 			; <UNDEFINED> instruction: 0xf9060000
    1494:	00000030 	andeq	r0, r0, r0, lsr r0
    1498:	02060a04 	andeq	r0, r6, #4, 20	; 0x4000
    149c:	1e0a0023 	cdpne	0, 0, cr0, cr10, cr3, {1}
    14a0:	06000011 			; <UNDEFINED> instruction: 0x06000011
    14a4:	000030fa 	strdeq	r3, [r0], -sl
    14a8:	05010400 	streq	r0, [r1, #-1024]	; 0xfffffc00
    14ac:	0a002302 	beq	a0bc <__bss_end__+0x3f7c>
    14b0:	0000145d 	andeq	r1, r0, sp, asr r4
    14b4:	0030fb06 	eorseq	pc, r0, r6, lsl #22
    14b8:	01040000 	mrseq	r0, (UNDEF: 4)
    14bc:	00230204 	eoreq	r0, r3, r4, lsl #4
    14c0:	0011110a 	andseq	r1, r1, sl, lsl #2
    14c4:	30fc0600 	rscscc	r0, ip, r0, lsl #12
    14c8:	04000000 	streq	r0, [r0], #-0
    14cc:	23020301 	movwcs	r0, #8961	; 0x2301
    14d0:	1a8a0a00 	bne	fe283cd8 <__bss_end__+0xfe27db98>
    14d4:	fd060000 	stc2	0, cr0, [r6, #-0]
    14d8:	00000030 	andeq	r0, r0, r0, lsr r0
    14dc:	02020104 	andeq	r0, r2, #4, 2
    14e0:	640a0023 	strvs	r0, [sl], #-35	; 0xffffffdd
    14e4:	06000014 			; <UNDEFINED> instruction: 0x06000014
    14e8:	000030fe 	strdeq	r3, [r0], -lr
    14ec:	00020400 	andeq	r0, r2, r0, lsl #8
    14f0:	00002302 	andeq	r2, r0, r2, lsl #6
    14f4:	ee06040b 	cdp	4, 0, cr0, cr6, cr11, {0}
    14f8:	0000135d 	andeq	r1, r0, sp, asr r3
    14fc:	0600550c 	streq	r5, [r0], -ip, lsl #10
    1500:	000025f0 	strdeq	r2, [r0], -r0
    1504:	00420c00 	subeq	r0, r2, r0, lsl #24
    1508:	126dff06 	rsbne	pc, sp, #6, 30
    150c:	08000000 	stmdaeq	r0, {}	; <UNPREDICTABLE>
    1510:	000000f6 	strdeq	r0, [r0], -r6
    1514:	42010006 	andmi	r0, r1, #6
    1518:	04000013 	streq	r0, [r0], #-19	; 0xffffffed
    151c:	01690604 	cmneq	r9, r4, lsl #12
    1520:	00001493 	muleq	r0, r3, r4
    1524:	5649440e 	strbpl	r4, [r9], -lr, lsl #8
    1528:	016b0600 	cmneq	fp, r0, lsl #12
    152c:	00000030 	andeq	r0, r0, r0, lsr r0
    1530:	021b0504 	andseq	r0, fp, #4, 10	; 0x1000000
    1534:	cb0d0023 	blgt	3415c8 <__bss_end__+0x33b488>
    1538:	06000004 	streq	r0, [r0], -r4
    153c:	0030016c 	eorseq	r0, r0, ip, ror #2
    1540:	01040000 	mrseq	r0, (UNDEF: 4)
    1544:	0023021a 	eoreq	r0, r3, sl, lsl r2
    1548:	0014480d 	andseq	r4, r4, sp, lsl #16
    154c:	016d0600 	cmneq	sp, r0, lsl #12
    1550:	00000030 	andeq	r0, r0, r0, lsr r0
    1554:	02100a04 	andseq	r0, r0, #4, 20	; 0x4000
    1558:	d70d0023 	strle	r0, [sp, -r3, lsr #32]
    155c:	06000004 	streq	r0, [r0], -r4
    1560:	0030016e 	eorseq	r0, r0, lr, ror #2
    1564:	03040000 	movweq	r0, #16384	; 0x4000
    1568:	0023020d 	eoreq	r0, r3, sp, lsl #4
    156c:	00144f0d 	andseq	r4, r4, sp, lsl #30
    1570:	016f0600 	cmneq	pc, r0, lsl #12
    1574:	00000030 	andeq	r0, r0, r0, lsr r0
    1578:	020c0104 	andeq	r0, ip, #4, 2
    157c:	710d0023 	tstvc	sp, r3, lsr #32
    1580:	06000004 	streq	r0, [r0], -r4
    1584:	00300170 	eorseq	r0, r0, r0, ror r1
    1588:	01040000 	mrseq	r0, (UNDEF: 4)
    158c:	0023020b 	eoreq	r0, r3, fp, lsl #4
    1590:	0008460d 	andeq	r4, r8, sp, lsl #12
    1594:	01710600 	cmneq	r1, r0, lsl #12
    1598:	00000030 	andeq	r0, r0, r0, lsr r0
    159c:	020a0104 	andeq	r0, sl, #4, 2
    15a0:	e60d0023 	str	r0, [sp], -r3, lsr #32
    15a4:	06000017 			; <UNDEFINED> instruction: 0x06000017
    15a8:	00300172 	eorseq	r0, r0, r2, ror r1
    15ac:	01040000 	mrseq	r0, (UNDEF: 4)
    15b0:	00230209 	eoreq	r0, r3, r9, lsl #4
    15b4:	001ba50d 	andseq	sl, fp, sp, lsl #10
    15b8:	01730600 	cmneq	r3, r0, lsl #12
    15bc:	00000030 	andeq	r0, r0, r0, lsr r0
    15c0:	02080104 	andeq	r0, r8, #4, 2
    15c4:	0e0d0023 	cdpeq	0, 0, cr0, cr13, cr3, {1}
    15c8:	06000004 	streq	r0, [r0], -r4
    15cc:	00300174 	eorseq	r0, r0, r4, ror r1
    15d0:	01040000 	mrseq	r0, (UNDEF: 4)
    15d4:	00230207 	eoreq	r0, r3, r7, lsl #4
    15d8:	0002770d 	andeq	r7, r2, sp, lsl #14
    15dc:	01750600 	cmneq	r5, r0, lsl #12
    15e0:	00000030 	andeq	r0, r0, r0, lsr r0
    15e4:	02060104 	andeq	r0, r6, #4, 2
    15e8:	440d0023 	strmi	r0, [sp], #-35	; 0xffffffdd
    15ec:	06000013 			; <UNDEFINED> instruction: 0x06000013
    15f0:	00300176 	eorseq	r0, r0, r6, ror r1
    15f4:	01040000 	mrseq	r0, (UNDEF: 4)
    15f8:	00230205 	eoreq	r0, r3, r5, lsl #4
    15fc:	00059d0d 	andeq	r9, r5, sp, lsl #26
    1600:	01770600 	cmneq	r7, r0, lsl #12
    1604:	00000030 	andeq	r0, r0, r0, lsr r0
    1608:	02040104 	andeq	r0, r4, #4, 2
    160c:	b10d0023 	tstlt	sp, r3, lsr #32
    1610:	0600001c 			; <UNDEFINED> instruction: 0x0600001c
    1614:	00300178 	eorseq	r0, r0, r8, ror r1
    1618:	01040000 	mrseq	r0, (UNDEF: 4)
    161c:	00230203 	eoreq	r0, r3, r3, lsl #4
    1620:	0018e00d 	andseq	lr, r8, sp
    1624:	01790600 	cmneq	r9, r0, lsl #12
    1628:	00000030 	andeq	r0, r0, r0, lsr r0
    162c:	02020104 	andeq	r0, r2, #4, 2
    1630:	5d0d0023 	stcpl	0, cr0, [sp, #-140]	; 0xffffff74
    1634:	06000014 			; <UNDEFINED> instruction: 0x06000014
    1638:	0030017a 	eorseq	r0, r0, sl, ror r1
    163c:	02040000 	andeq	r0, r4, #0
    1640:	00230200 	eoreq	r0, r3, r0, lsl #4
    1644:	06040600 	streq	r0, [r4], -r0, lsl #12
    1648:	14b10166 	ldrtne	r0, [r1], #358	; 0x166
    164c:	55070000 	strpl	r0, [r7, #-0]
    1650:	01680600 	cmneq	r8, r0, lsl #12
    1654:	00000025 	andeq	r0, r0, r5, lsr #32
    1658:	06004207 	streq	r4, [r0], -r7, lsl #4
    165c:	1369017b 	cmnne	r9, #-1073741794	; 0xc000001e
    1660:	08000000 	stmdaeq	r0, {}	; <UNPREDICTABLE>
    1664:	000012c5 	andeq	r1, r0, r5, asr #5
    1668:	93017c06 	movwls	r7, #7174	; 0x1c06
    166c:	04000014 	streq	r0, [r0], #-20	; 0xffffffec
    1670:	04320604 	ldrteq	r0, [r2], #-1540	; 0xfffff9fc
    1674:	000015b1 			; <UNDEFINED> instruction: 0x000015b1
    1678:	001be50d 	andseq	lr, fp, sp, lsl #10
    167c:	04340600 	ldrteq	r0, [r4], #-1536	; 0xfffffa00
    1680:	00000030 	andeq	r0, r0, r0, lsr r0
    1684:	021a0604 	andseq	r0, sl, #4, 12	; 0x400000
    1688:	480d0023 	stmdami	sp, {r0, r1, r5}
    168c:	06000014 			; <UNDEFINED> instruction: 0x06000014
    1690:	00300435 	eorseq	r0, r0, r5, lsr r4
    1694:	02040000 	andeq	r0, r4, #0
    1698:	00230218 	eoreq	r0, r3, r8, lsl r2
    169c:	001bd40d 	andseq	sp, fp, sp, lsl #8
    16a0:	04360600 	ldrteq	r0, [r6], #-1536	; 0xfffffa00
    16a4:	00000030 	andeq	r0, r0, r0, lsr r0
    16a8:	02140404 	andseq	r0, r4, #4, 8	; 0x4000000
    16ac:	4f0d0023 	svcmi	0x000d0023
    16b0:	06000014 			; <UNDEFINED> instruction: 0x06000014
    16b4:	00300437 	eorseq	r0, r0, r7, lsr r4
    16b8:	04040000 	streq	r0, [r4], #-0
    16bc:	00230210 	eoreq	r0, r3, r0, lsl r2
    16c0:	0017330d 	andseq	r3, r7, sp, lsl #6
    16c4:	04380600 	ldrteq	r0, [r8], #-1536	; 0xfffffa00
    16c8:	00000030 	andeq	r0, r0, r0, lsr r0
    16cc:	020f0104 	andeq	r0, pc, #4, 2
    16d0:	6a0d0023 	bvs	341764 <__bss_end__+0x33b624>
    16d4:	0600001c 			; <UNDEFINED> instruction: 0x0600001c
    16d8:	00300439 	eorseq	r0, r0, r9, lsr r4
    16dc:	01040000 	mrseq	r0, (UNDEF: 4)
    16e0:	0023020e 	eoreq	r0, r3, lr, lsl #4
    16e4:	0014560d 	andseq	r5, r4, sp, lsl #12
    16e8:	043a0600 	ldrteq	r0, [sl], #-1536	; 0xfffffa00
    16ec:	00000030 	andeq	r0, r0, r0, lsr r0
    16f0:	02060804 	andeq	r0, r6, #4, 16	; 0x40000
    16f4:	240d0023 	strcs	r0, [sp], #-35	; 0xffffffdd
    16f8:	06000010 			; <UNDEFINED> instruction: 0x06000010
    16fc:	0030043b 	eorseq	r0, r0, fp, lsr r4
    1700:	01040000 	mrseq	r0, (UNDEF: 4)
    1704:	00230205 	eoreq	r0, r3, r5, lsl #4
    1708:	0011110d 	andseq	r1, r1, sp, lsl #2
    170c:	043c0600 	ldrteq	r0, [ip], #-1536	; 0xfffffa00
    1710:	00000030 	andeq	r0, r0, r0, lsr r0
    1714:	02040104 	andeq	r0, r4, #4, 2
    1718:	980d0023 	stmdals	sp, {r0, r1, r5}
    171c:	0600001a 			; <UNDEFINED> instruction: 0x0600001a
    1720:	0030043d 	eorseq	r0, r0, sp, lsr r4
    1724:	01040000 	mrseq	r0, (UNDEF: 4)
    1728:	00230203 	eoreq	r0, r3, r3, lsl #4
    172c:	001a8a0d 	andseq	r8, sl, sp, lsl #20
    1730:	043e0600 	ldrteq	r0, [lr], #-1536	; 0xfffffa00
    1734:	00000030 	andeq	r0, r0, r0, lsr r0
    1738:	02020104 	andeq	r0, r2, #4, 2
    173c:	cd0d0023 	stcgt	0, cr0, [sp, #-140]	; 0xffffff74
    1740:	06000010 			; <UNDEFINED> instruction: 0x06000010
    1744:	0030043f 	eorseq	r0, r0, pc, lsr r4
    1748:	01040000 	mrseq	r0, (UNDEF: 4)
    174c:	00230201 	eoreq	r0, r3, r1, lsl #4
    1750:	0003440d 	andeq	r4, r3, sp, lsl #8
    1754:	04400600 	strbeq	r0, [r0], #-1536	; 0xfffffa00
    1758:	00000030 	andeq	r0, r0, r0, lsr r0
    175c:	02000104 	andeq	r0, r0, #4, 2
    1760:	06000023 	streq	r0, [r0], -r3, lsr #32
    1764:	042f0604 	strteq	r0, [pc], #-1540	; 176c <hw_emi_EnterMemoryClockGateMode+0xc>
    1768:	000015cf 	andeq	r1, r0, pc, asr #11
    176c:	06005507 	streq	r5, [r0], -r7, lsl #10
    1770:	00250431 	eoreq	r0, r5, r1, lsr r4
    1774:	42070000 	andmi	r0, r7, #0
    1778:	04410600 	strbeq	r0, [r1], #-1536	; 0xfffffa00
    177c:	000014bd 			; <UNDEFINED> instruction: 0x000014bd
    1780:	15e30800 	strbne	r0, [r3, #2048]!	; 0x800
    1784:	42060000 	andmi	r0, r6, #0
    1788:	0015b104 	andseq	fp, r5, r4, lsl #2
    178c:	06040400 	streq	r0, [r4], -r0, lsl #8
    1790:	16bd0619 	ssatne	r0, #30, r9, lsl #12
    1794:	740d0000 	strvc	r0, [sp], #-0
    1798:	06000011 			; <UNDEFINED> instruction: 0x06000011
    179c:	0030061b 	eorseq	r0, r0, fp, lsl r6
    17a0:	06040000 	streq	r0, [r4], -r0
    17a4:	0023021a 	eoreq	r0, r3, sl, lsl r2
    17a8:	00169a0d 	andseq	r9, r6, sp, lsl #20
    17ac:	061c0600 	ldreq	r0, [ip], -r0, lsl #12
    17b0:	00000030 	andeq	r0, r0, r0, lsr r0
    17b4:	02190104 	andseq	r0, r9, #4, 2
    17b8:	1e0d0023 	cdpne	0, 0, cr0, cr13, cr3, {1}
    17bc:	06000001 	streq	r0, [r0], -r1
    17c0:	0030061d 	eorseq	r0, r0, sp, lsl r6
    17c4:	01040000 	mrseq	r0, (UNDEF: 4)
    17c8:	00230218 	eoreq	r0, r3, r8, lsl r2
    17cc:	000bb00d 	andeq	fp, fp, sp
    17d0:	061e0600 	ldreq	r0, [lr], -r0, lsl #12
    17d4:	00000030 	andeq	r0, r0, r0, lsr r0
    17d8:	02120604 	andseq	r0, r2, #4, 12	; 0x400000
    17dc:	c00d0023 	andgt	r0, sp, r3, lsr #32
    17e0:	06000004 	streq	r0, [r0], -r4
    17e4:	0030061f 	eorseq	r0, r0, pc, lsl r6
    17e8:	01040000 	mrseq	r0, (UNDEF: 4)
    17ec:	00230211 	eoreq	r0, r3, r1, lsl r2
    17f0:	00091b0d 	andeq	r1, r9, sp, lsl #22
    17f4:	06200600 	strteq	r0, [r0], -r0, lsl #12
    17f8:	00000030 	andeq	r0, r0, r0, lsr r0
    17fc:	02100104 	andseq	r0, r0, #4, 2
    1800:	200d0023 	andcs	r0, sp, r3, lsr #32
    1804:	06000005 	streq	r0, [r0], -r5
    1808:	00300621 	eorseq	r0, r0, r1, lsr #12
    180c:	06040000 	streq	r0, [r4], -r0
    1810:	0023020a 	eoreq	r0, r3, sl, lsl #4
    1814:	0005150d 	andeq	r1, r5, sp, lsl #10
    1818:	06220600 	strteq	r0, [r2], -r0, lsl #12
    181c:	00000030 	andeq	r0, r0, r0, lsr r0
    1820:	02090104 	andeq	r0, r9, #4, 2
    1824:	f20d0023 	vhadd.s8	d0, d13, d19
    1828:	0600000b 	streq	r0, [r0], -fp
    182c:	00300623 	eorseq	r0, r0, r3, lsr #12
    1830:	01040000 	mrseq	r0, (UNDEF: 4)
    1834:	00230208 	eoreq	r0, r3, r8, lsl #4
    1838:	0019320d 	andseq	r3, r9, sp, lsl #4
    183c:	06240600 	strteq	r0, [r4], -r0, lsl #12
    1840:	00000030 	andeq	r0, r0, r0, lsr r0
    1844:	02020604 	andeq	r0, r2, #4, 12	; 0x400000
    1848:	1b0d0023 	blne	3418dc <__bss_end__+0x33b79c>
    184c:	06000018 			; <UNDEFINED> instruction: 0x06000018
    1850:	00300625 	eorseq	r0, r0, r5, lsr #12
    1854:	01040000 	mrseq	r0, (UNDEF: 4)
    1858:	00230201 	eoreq	r0, r3, r1, lsl #4
    185c:	0008cd0d 	andeq	ip, r8, sp, lsl #26
    1860:	06260600 	strteq	r0, [r6], -r0, lsl #12
    1864:	00000030 	andeq	r0, r0, r0, lsr r0
    1868:	02000104 	andeq	r0, r0, #4, 2
    186c:	06000023 	streq	r0, [r0], -r3, lsr #32
    1870:	06160604 	ldreq	r0, [r6], -r4, lsl #12
    1874:	000016db 	ldrdeq	r1, [r0], -fp
    1878:	06005507 	streq	r5, [r0], -r7, lsl #10
    187c:	00250618 	eoreq	r0, r5, r8, lsl r6
    1880:	42070000 	andmi	r0, r7, #0
    1884:	06270600 	strteq	r0, [r7], -r0, lsl #12
    1888:	000015db 	ldrdeq	r1, [r0], -fp
    188c:	118a0800 	orrne	r0, sl, r0, lsl #16
    1890:	28060000 	stmdacs	r6, {}	; <UNPREDICTABLE>
    1894:	0016bd06 	andseq	fp, r6, r6, lsl #26
    1898:	06040400 	streq	r0, [r4], -r0, lsl #8
    189c:	17a50704 	strne	r0, [r5, r4, lsl #14]!
    18a0:	500d0000 	andpl	r0, sp, r0
    18a4:	06000001 	streq	r0, [r0], -r1
    18a8:	00300706 	eorseq	r0, r0, r6, lsl #14
    18ac:	01040000 	mrseq	r0, (UNDEF: 4)
    18b0:	0023021f 	eoreq	r0, r3, pc, lsl r2
    18b4:	0013000d 	andseq	r0, r3, sp
    18b8:	07070600 	streq	r0, [r7, -r0, lsl #12]
    18bc:	00000030 	andeq	r0, r0, r0, lsr r0
    18c0:	021e0104 	andseq	r0, lr, #4, 2
    18c4:	410d0023 	tstmi	sp, r3, lsr #32
    18c8:	06000014 			; <UNDEFINED> instruction: 0x06000014
    18cc:	00300708 	eorseq	r0, r0, r8, lsl #14
    18d0:	01040000 	mrseq	r0, (UNDEF: 4)
    18d4:	0023021d 	eoreq	r0, r3, sp, lsl r2
    18d8:	00196c0d 	andseq	r6, r9, sp, lsl #24
    18dc:	07090600 	streq	r0, [r9, -r0, lsl #12]
    18e0:	00000030 	andeq	r0, r0, r0, lsr r0
    18e4:	021c0104 	andseq	r0, ip, #4, 2
    18e8:	180d0023 	stmdane	sp, {r0, r1, r5}
    18ec:	0600000e 	streq	r0, [r0], -lr
    18f0:	0030070a 	eorseq	r0, r0, sl, lsl #14
    18f4:	01040000 	mrseq	r0, (UNDEF: 4)
    18f8:	0023021b 	eoreq	r0, r3, fp, lsl r2
    18fc:	0011df0d 	andseq	sp, r1, sp, lsl #30
    1900:	070b0600 	streq	r0, [fp, -r0, lsl #12]
    1904:	00000030 	andeq	r0, r0, r0, lsr r0
    1908:	021a0104 	andseq	r0, sl, #4, 2
    190c:	e50d0023 	str	r0, [sp, #-35]	; 0xffffffdd
    1910:	0600000f 	streq	r0, [r0], -pc
    1914:	0030070c 	eorseq	r0, r0, ip, lsl #14
    1918:	01040000 	mrseq	r0, (UNDEF: 4)
    191c:	00230219 	eoreq	r0, r3, r9, lsl r2
    1920:	0007ae0d 	andeq	sl, r7, sp, lsl #28
    1924:	070d0600 	streq	r0, [sp, -r0, lsl #12]
    1928:	00000030 	andeq	r0, r0, r0, lsr r0
    192c:	02180104 	andseq	r0, r8, #4, 2
    1930:	830d0023 	movwhi	r0, #53283	; 0xd023
    1934:	06000017 			; <UNDEFINED> instruction: 0x06000017
    1938:	0030070e 	eorseq	r0, r0, lr, lsl #14
    193c:	01040000 	mrseq	r0, (UNDEF: 4)
    1940:	00230217 	eoreq	r0, r3, r7, lsl r2
    1944:	0014480d 	andseq	r4, r4, sp, lsl #16
    1948:	070f0600 	streq	r0, [pc, -r0, lsl #12]
    194c:	00000030 	andeq	r0, r0, r0, lsr r0
    1950:	02001704 	andeq	r1, r0, #4, 14	; 0x100000
    1954:	06000023 	streq	r0, [r0], -r3, lsr #32
    1958:	07010604 	streq	r0, [r1, -r4, lsl #12]
    195c:	000017c3 	andeq	r1, r0, r3, asr #15
    1960:	06005507 	streq	r5, [r0], -r7, lsl #10
    1964:	00250703 	eoreq	r0, r5, r3, lsl #14
    1968:	42070000 	andmi	r0, r7, #0
    196c:	07100600 	ldreq	r0, [r0, -r0, lsl #12]
    1970:	000016e7 	andeq	r1, r0, r7, ror #13
    1974:	0c400800 	mcrreq	8, 0, r0, r0, cr0
    1978:	11060000 	mrsne	r0, (UNDEF: 6)
    197c:	0017a507 	andseq	sl, r7, r7, lsl #10
    1980:	07040400 	streq	r0, [r4, -r0, lsl #8]
    1984:	191d01a2 	ldmdbne	sp, {r1, r5, r7, r8}
    1988:	f00d0000 			; <UNDEFINED> instruction: 0xf00d0000
    198c:	07000009 	streq	r0, [r0, -r9]
    1990:	003001a4 	eorseq	r0, r0, r4, lsr #3
    1994:	01040000 	mrseq	r0, (UNDEF: 4)
    1998:	0023021f 	eoreq	r0, r3, pc, lsl r2
    199c:	0002180d 	andeq	r1, r2, sp, lsl #16
    19a0:	01a50700 			; <UNDEFINED> instruction: 0x01a50700
    19a4:	00000030 	andeq	r0, r0, r0, lsr r0
    19a8:	021e0104 	andseq	r0, lr, #4, 2
    19ac:	c10d0023 	tstgt	sp, r3, lsr #32
    19b0:	07000009 	streq	r0, [r0, -r9]
    19b4:	003001a6 	eorseq	r0, r0, r6, lsr #3
    19b8:	01040000 	mrseq	r0, (UNDEF: 4)
    19bc:	0023021d 	eoreq	r0, r3, sp, lsl r2
    19c0:	0013d80d 	andseq	sp, r3, sp, lsl #16
    19c4:	01a70700 			; <UNDEFINED> instruction: 0x01a70700
    19c8:	00000030 	andeq	r0, r0, r0, lsr r0
    19cc:	021c0104 	andseq	r0, ip, #4, 2
    19d0:	610d0023 	tstvs	sp, r3, lsr #32
    19d4:	07000011 	smladeq	r0, r1, r0, r0
    19d8:	003001a8 	eorseq	r0, r0, r8, lsr #3
    19dc:	01040000 	mrseq	r0, (UNDEF: 4)
    19e0:	0023021b 	eoreq	r0, r3, fp, lsl r2
    19e4:	00079c0d 	andeq	r9, r7, sp, lsl #24
    19e8:	01a90700 			; <UNDEFINED> instruction: 0x01a90700
    19ec:	00000030 	andeq	r0, r0, r0, lsr r0
    19f0:	021a0104 	andseq	r0, sl, #4, 2
    19f4:	ac0d0023 	stcge	0, cr0, [sp], {35}	; 0x23
    19f8:	0700001a 	smladeq	r0, sl, r0, r0
    19fc:	003001aa 	eorseq	r0, r0, sl, lsr #3
    1a00:	01040000 	mrseq	r0, (UNDEF: 4)
    1a04:	00230219 	eoreq	r0, r3, r9, lsl r2
    1a08:	000e640d 	andeq	r6, lr, sp, lsl #8
    1a0c:	01ab0700 			; <UNDEFINED> instruction: 0x01ab0700
    1a10:	00000030 	andeq	r0, r0, r0, lsr r0
    1a14:	02180104 	andseq	r0, r8, #4, 2
    1a18:	580d0023 	stmdapl	sp, {r0, r1, r5}
    1a1c:	0700001a 	smladeq	r0, sl, r0, r0
    1a20:	003001ac 	eorseq	r0, r0, ip, lsr #3
    1a24:	03040000 	movweq	r0, #16384	; 0x4000
    1a28:	00230215 	eoreq	r0, r3, r5, lsl r2
    1a2c:	00144f0d 	andseq	r4, r4, sp, lsl #30
    1a30:	01ad0700 			; <UNDEFINED> instruction: 0x01ad0700
    1a34:	00000030 	andeq	r0, r0, r0, lsr r0
    1a38:	02140104 	andseq	r0, r4, #4, 2
    1a3c:	000d0023 	andeq	r0, sp, r3, lsr #32
    1a40:	0700000f 	streq	r0, [r0, -pc]
    1a44:	003001ae 	eorseq	r0, r0, lr, lsr #3
    1a48:	06040000 	streq	r0, [r4], -r0
    1a4c:	0023020e 	eoreq	r0, r3, lr, lsl #4
    1a50:	0014560d 	andseq	r5, r4, sp, lsl #12
    1a54:	01af0700 			; <UNDEFINED> instruction: 0x01af0700
    1a58:	00000030 	andeq	r0, r0, r0, lsr r0
    1a5c:	020c0204 	andeq	r0, ip, #4, 4	; 0x40000000
    1a60:	4b0d0023 	blmi	341af4 <__bss_end__+0x33b9b4>
    1a64:	07000007 	streq	r0, [r0, -r7]
    1a68:	003001b0 	ldrhteq	r0, [r0], -r0
    1a6c:	01040000 	mrseq	r0, (UNDEF: 4)
    1a70:	0023020b 	eoreq	r0, r3, fp, lsl #4
    1a74:	00145d0d 	andseq	r5, r4, sp, lsl #26
    1a78:	01b10700 			; <UNDEFINED> instruction: 0x01b10700
    1a7c:	00000030 	andeq	r0, r0, r0, lsr r0
    1a80:	02080304 	andeq	r0, r8, #4, 6	; 0x10000000
    1a84:	df0d0023 	svcle	0x000d0023
    1a88:	07000000 	streq	r0, [r0, -r0]
    1a8c:	003001b2 	ldrhteq	r0, [r0], -r2
    1a90:	03040000 	movweq	r0, #16384	; 0x4000
    1a94:	00230205 	eoreq	r0, r3, r5, lsl #4
    1a98:	0014640d 	andseq	r6, r4, sp, lsl #8
    1a9c:	01b30700 			; <UNDEFINED> instruction: 0x01b30700
    1aa0:	00000030 	andeq	r0, r0, r0, lsr r0
    1aa4:	02040104 	andeq	r0, r4, #4, 2
    1aa8:	f90d0023 			; <UNDEFINED> instruction: 0xf90d0023
    1aac:	0700000c 	streq	r0, [r0, -ip]
    1ab0:	003001b4 	ldrhteq	r0, [r0], -r4
    1ab4:	02040000 	andeq	r0, r4, #0
    1ab8:	00230202 	eoreq	r0, r3, r2, lsl #4
    1abc:	00146b0d 	andseq	r6, r4, sp, lsl #22
    1ac0:	01b50700 			; <UNDEFINED> instruction: 0x01b50700
    1ac4:	00000030 	andeq	r0, r0, r0, lsr r0
    1ac8:	02000204 	andeq	r0, r0, #4, 4	; 0x40000000
    1acc:	06000023 	streq	r0, [r0], -r3, lsr #32
    1ad0:	019f0704 	orrseq	r0, pc, r4, lsl #14
    1ad4:	0000193b 	andeq	r1, r0, fp, lsr r9
    1ad8:	07005507 	streq	r5, [r0, -r7, lsl #10]
    1adc:	002501a1 	eoreq	r0, r5, r1, lsr #3
    1ae0:	42070000 	andmi	r0, r7, #0
    1ae4:	01b60700 			; <UNDEFINED> instruction: 0x01b60700
    1ae8:	000017cf 	andeq	r1, r0, pc, asr #15
    1aec:	13f00800 	mvnsne	r0, #0, 16
    1af0:	b7070000 	strlt	r0, [r7, -r0]
    1af4:	00191d01 	andseq	r1, r9, r1, lsl #26
    1af8:	07040400 	streq	r0, [r4, -r0, lsl #8]
    1afc:	1a2903e9 	bne	a42aa8 <__bss_end__+0xa3c968>
    1b00:	540e0000 	strpl	r0, [lr], #-0
    1b04:	07004752 	smlsdeq	r0, r2, r7, r4
    1b08:	003003eb 	eorseq	r0, r0, fp, ror #7
    1b0c:	05040000 	streq	r0, [r4, #-0]
    1b10:	0023021b 	eoreq	r0, r3, fp, lsl r2
    1b14:	0014480d 	andseq	r4, r4, sp, lsl #16
    1b18:	03ec0700 	mvneq	r0, #0, 14
    1b1c:	00000030 	andeq	r0, r0, r0, lsr r0
    1b20:	02180304 	andseq	r0, r8, #4, 6	; 0x10000000
    1b24:	660d0023 	strvs	r0, [sp], -r3, lsr #32
    1b28:	0700000b 	streq	r0, [r0, -fp]
    1b2c:	003003ed 	eorseq	r0, r0, sp, ror #7
    1b30:	03040000 	movweq	r0, #16384	; 0x4000
    1b34:	00230215 	eoreq	r0, r3, r5, lsl r2
    1b38:	00144f0d 	andseq	r4, r4, sp, lsl #30
    1b3c:	03ee0700 	mvneq	r0, #0, 14
    1b40:	00000030 	andeq	r0, r0, r0, lsr r0
    1b44:	02100504 	andseq	r0, r0, #4, 10	; 0x1000000
    1b48:	a70d0023 	strge	r0, [sp, -r3, lsr #32]
    1b4c:	07000012 	smladeq	r0, r2, r0, r0
    1b50:	003003ef 	eorseq	r0, r0, pc, ror #7
    1b54:	02040000 	andeq	r0, r4, #0
    1b58:	0023020e 	eoreq	r0, r3, lr, lsl #4
    1b5c:	0014560d 	andseq	r5, r4, sp, lsl #12
    1b60:	03f00700 	mvnseq	r0, #0, 14
    1b64:	00000030 	andeq	r0, r0, r0, lsr r0
    1b68:	020c0204 	andeq	r0, ip, #4, 4	; 0x40000000
    1b6c:	1b0d0023 	blne	341c00 <__bss_end__+0x33bac0>
    1b70:	0700000b 	streq	r0, [r0, -fp]
    1b74:	003003f1 	ldrshteq	r0, [r0], -r1
    1b78:	01040000 	mrseq	r0, (UNDEF: 4)
    1b7c:	0023020b 	eoreq	r0, r3, fp, lsl #4
    1b80:	000ff00d 	andeq	pc, pc, sp
    1b84:	03f20700 	mvnseq	r0, #0, 14
    1b88:	00000030 	andeq	r0, r0, r0, lsr r0
    1b8c:	020a0104 	andeq	r0, sl, #4, 2
    1b90:	e50d0023 	str	r0, [sp, #-35]	; 0xffffffdd
    1b94:	07000018 	smladeq	r0, r8, r0, r0
    1b98:	003003f3 	ldrshteq	r0, [r0], -r3
    1b9c:	01040000 	mrseq	r0, (UNDEF: 4)
    1ba0:	00230209 	eoreq	r0, r3, r9, lsl #4
    1ba4:	0006d20d 	andeq	sp, r6, sp, lsl #4
    1ba8:	03f40700 	mvnseq	r0, #0, 14
    1bac:	00000030 	andeq	r0, r0, r0, lsr r0
    1bb0:	02080104 	andeq	r0, r8, #4, 2
    1bb4:	5d0d0023 	stcpl	0, cr0, [sp, #-140]	; 0xffffff74
    1bb8:	07000014 	smladeq	r0, r4, r0, r0
    1bbc:	003003f5 	ldrshteq	r0, [r0], -r5
    1bc0:	04040000 	streq	r0, [r4], #-0
    1bc4:	00230204 	eoreq	r0, r3, r4, lsl #4
    1bc8:	000f3c0d 	andeq	r3, pc, sp, lsl #24
    1bcc:	03f60700 	mvnseq	r0, #0, 14
    1bd0:	00000030 	andeq	r0, r0, r0, lsr r0
    1bd4:	02000404 	andeq	r0, r0, #4, 8	; 0x4000000
    1bd8:	06000023 	streq	r0, [r0], -r3, lsr #32
    1bdc:	03e60704 	mvneq	r0, #4, 14	; 0x100000
    1be0:	00001a47 	andeq	r1, r0, r7, asr #20
    1be4:	07005507 	streq	r5, [r0, -r7, lsl #10]
    1be8:	002503e8 	eoreq	r0, r5, r8, ror #7
    1bec:	42070000 	andmi	r0, r7, #0
    1bf0:	03f70700 	mvnseq	r0, #0, 14
    1bf4:	00001947 	andeq	r1, r0, r7, asr #18
    1bf8:	0c2c0800 	stceq	8, cr0, [ip], #-0
    1bfc:	f8070000 			; <UNDEFINED> instruction: 0xf8070000
    1c00:	001a2903 	andseq	r2, sl, r3, lsl #18
    1c04:	07040400 	streq	r0, [r4, -r0, lsl #8]
    1c08:	1b230475 	blne	8c2de4 <__bss_end__+0x8bcca4>
    1c0c:	540e0000 	strpl	r0, [lr], #-0
    1c10:	07004752 	smlsdeq	r0, r2, r7, r4
    1c14:	00300477 	eorseq	r0, r0, r7, ror r4
    1c18:	05040000 	streq	r0, [r4, #-0]
    1c1c:	0023021b 	eoreq	r0, r3, fp, lsl r2
    1c20:	0014480d 	andseq	r4, r4, sp, lsl #16
    1c24:	04780700 	ldrbteq	r0, [r8], #-1792	; 0xfffff900
    1c28:	00000030 	andeq	r0, r0, r0, lsr r0
    1c2c:	02180304 	andseq	r0, r8, #4, 6	; 0x10000000
    1c30:	660d0023 	strvs	r0, [sp], -r3, lsr #32
    1c34:	0700000b 	streq	r0, [r0, -fp]
    1c38:	00300479 	eorseq	r0, r0, r9, ror r4
    1c3c:	03040000 	movweq	r0, #16384	; 0x4000
    1c40:	00230215 	eoreq	r0, r3, r5, lsl r2
    1c44:	00144f0d 	andseq	r4, r4, sp, lsl #30
    1c48:	047a0700 	ldrbteq	r0, [sl], #-1792	; 0xfffff900
    1c4c:	00000030 	andeq	r0, r0, r0, lsr r0
    1c50:	02140104 	andseq	r0, r4, #4, 2
    1c54:	a70d0023 	strge	r0, [sp, -r3, lsr #32]
    1c58:	07000012 	smladeq	r0, r2, r0, r0
    1c5c:	0030047b 	eorseq	r0, r0, fp, ror r4
    1c60:	02040000 	andeq	r0, r4, #0
    1c64:	00230212 	eoreq	r0, r3, r2, lsl r2
    1c68:	0014560d 	andseq	r5, r4, sp, lsl #12
    1c6c:	047c0700 	ldrbteq	r0, [ip], #-1792	; 0xfffff900
    1c70:	00000030 	andeq	r0, r0, r0, lsr r0
    1c74:	02100204 	andseq	r0, r0, #4, 4	; 0x40000000
    1c78:	1b0d0023 	blne	341d0c <__bss_end__+0x33bbcc>
    1c7c:	0700000b 	streq	r0, [r0, -fp]
    1c80:	0030047d 	eorseq	r0, r0, sp, ror r4
    1c84:	01040000 	mrseq	r0, (UNDEF: 4)
    1c88:	0023020f 	eoreq	r0, r3, pc, lsl #4
    1c8c:	000ff00d 	andeq	pc, pc, sp
    1c90:	047e0700 	ldrbteq	r0, [lr], #-1792	; 0xfffff900
    1c94:	00000030 	andeq	r0, r0, r0, lsr r0
    1c98:	020e0104 	andeq	r0, lr, #4, 2
    1c9c:	e50d0023 	str	r0, [sp, #-35]	; 0xffffffdd
    1ca0:	07000018 	smladeq	r0, r8, r0, r0
    1ca4:	0030047f 	eorseq	r0, r0, pc, ror r4
    1ca8:	01040000 	mrseq	r0, (UNDEF: 4)
    1cac:	0023020d 	eoreq	r0, r3, sp, lsl #4
    1cb0:	0006d20d 	andeq	sp, r6, sp, lsl #4
    1cb4:	04800700 	streq	r0, [r0], #1792	; 0x700
    1cb8:	00000030 	andeq	r0, r0, r0, lsr r0
    1cbc:	020c0104 	andeq	r0, ip, #4, 2
    1cc0:	5d0d0023 	stcpl	0, cr0, [sp, #-140]	; 0xffffff74
    1cc4:	07000014 	smladeq	r0, r4, r0, r0
    1cc8:	00300481 	eorseq	r0, r0, r1, lsl #9
    1ccc:	0c040000 	stceq	0, cr0, [r4], {-0}
    1cd0:	00230200 	eoreq	r0, r3, r0, lsl #4
    1cd4:	07040600 	streq	r0, [r4, -r0, lsl #12]
    1cd8:	1b410472 	blne	1042ea8 <__bss_end__+0x103cd68>
    1cdc:	55070000 	strpl	r0, [r7, #-0]
    1ce0:	04740700 	ldrbteq	r0, [r4], #-1792	; 0xfffff900
    1ce4:	00000025 	andeq	r0, r0, r5, lsr #32
    1ce8:	07004207 	streq	r4, [r0, -r7, lsl #4]
    1cec:	1a530482 	bne	14c2efc <__bss_end__+0x14bcdbc>
    1cf0:	08000000 	stmdaeq	r0, {}	; <UNPREDICTABLE>
    1cf4:	00000788 	andeq	r0, r0, r8, lsl #15
    1cf8:	23048307 	movwcs	r8, #17159	; 0x4307
    1cfc:	0400001b 	streq	r0, [r0], #-27	; 0xffffffe5
    1d00:	04f10704 	ldrbteq	r0, [r1], #1796	; 0x704
    1d04:	00001c2c 	andeq	r1, r0, ip, lsr #24
    1d08:	4752540e 	ldrbmi	r5, [r2, -lr, lsl #8]
    1d0c:	04f30700 	ldrbteq	r0, [r3], #1792	; 0x700
    1d10:	00000030 	andeq	r0, r0, r0, lsr r0
    1d14:	021b0504 	andseq	r0, fp, #4, 10	; 0x1000000
    1d18:	480d0023 	stmdami	sp, {r0, r1, r5}
    1d1c:	07000014 	smladeq	r0, r4, r0, r0
    1d20:	003004f4 	ldrshteq	r0, [r0], -r4
    1d24:	03040000 	movweq	r0, #16384	; 0x4000
    1d28:	00230218 	eoreq	r0, r3, r8, lsl r2
    1d2c:	000b660d 	andeq	r6, fp, sp, lsl #12
    1d30:	04f50700 	ldrbteq	r0, [r5], #1792	; 0x700
    1d34:	00000030 	andeq	r0, r0, r0, lsr r0
    1d38:	02150304 	andseq	r0, r5, #4, 6	; 0x10000000
    1d3c:	4f0d0023 	svcmi	0x000d0023
    1d40:	07000014 	smladeq	r0, r4, r0, r0
    1d44:	003004f6 	ldrshteq	r0, [r0], -r6
    1d48:	01040000 	mrseq	r0, (UNDEF: 4)
    1d4c:	00230214 	eoreq	r0, r3, r4, lsl r2
    1d50:	0012a70d 	andseq	sl, r2, sp, lsl #14
    1d54:	04f70700 	ldrbteq	r0, [r7], #1792	; 0x700
    1d58:	00000030 	andeq	r0, r0, r0, lsr r0
    1d5c:	02120204 	andseq	r0, r2, #4, 4	; 0x40000000
    1d60:	560d0023 	strpl	r0, [sp], -r3, lsr #32
    1d64:	07000014 	smladeq	r0, r4, r0, r0
    1d68:	003004f8 	ldrshteq	r0, [r0], -r8
    1d6c:	02040000 	andeq	r0, r4, #0
    1d70:	00230210 	eoreq	r0, r3, r0, lsl r2
    1d74:	000b1b0d 	andeq	r1, fp, sp, lsl #22
    1d78:	04f90700 	ldrbteq	r0, [r9], #1792	; 0x700
    1d7c:	00000030 	andeq	r0, r0, r0, lsr r0
    1d80:	020f0104 	andeq	r0, pc, #4, 2
    1d84:	e50d0023 	str	r0, [sp, #-35]	; 0xffffffdd
    1d88:	07000018 	smladeq	r0, r8, r0, r0
    1d8c:	003004fa 	ldrshteq	r0, [r0], -sl
    1d90:	01040000 	mrseq	r0, (UNDEF: 4)
    1d94:	0023020e 	eoreq	r0, r3, lr, lsl #4
    1d98:	0006d20d 	andeq	sp, r6, sp, lsl #4
    1d9c:	04fb0700 	ldrbteq	r0, [fp], #1792	; 0x700
    1da0:	00000030 	andeq	r0, r0, r0, lsr r0
    1da4:	020d0104 	andeq	r0, sp, #4, 2
    1da8:	5d0d0023 	stcpl	0, cr0, [sp, #-140]	; 0xffffff74
    1dac:	07000014 	smladeq	r0, r4, r0, r0
    1db0:	003004fc 	ldrshteq	r0, [r0], -ip
    1db4:	01040000 	mrseq	r0, (UNDEF: 4)
    1db8:	0023020c 	eoreq	r0, r3, ip, lsl #4
    1dbc:	000f3c0d 	andeq	r3, pc, sp, lsl #24
    1dc0:	04fd0700 	ldrbteq	r0, [sp], #1792	; 0x700
    1dc4:	00000030 	andeq	r0, r0, r0, lsr r0
    1dc8:	02080404 	andeq	r0, r8, #4, 8	; 0x4000000
    1dcc:	64050023 	strvs	r0, [r5], #-35	; 0xffffffdd
    1dd0:	07000014 	smladeq	r0, r4, r0, r0
    1dd4:	004904fe 	strdeq	r0, [r9], #-78	; 0xffffffb2
    1dd8:	23020000 	movwcs	r0, #8192	; 0x2000
    1ddc:	04060003 	streq	r0, [r6], #-3
    1de0:	4a04ee07 	bmi	13d604 <__bss_end__+0x1374c4>
    1de4:	0700001c 	smladeq	r0, ip, r0, r0
    1de8:	f0070055 			; <UNDEFINED> instruction: 0xf0070055
    1dec:	00002504 	andeq	r2, r0, r4, lsl #10
    1df0:	00420700 	subeq	r0, r2, r0, lsl #14
    1df4:	4d04ff07 	stcmi	15, cr15, [r4, #-28]	; 0xffffffe4
    1df8:	0000001b 	andeq	r0, r0, fp, lsl r0
    1dfc:	00123508 	andseq	r3, r2, r8, lsl #10
    1e00:	05000700 	streq	r0, [r0, #-1792]	; 0xfffff900
    1e04:	00001c2c 	andeq	r1, r0, ip, lsr #24
    1e08:	6e070404 	cdpvs	4, 0, cr0, cr7, cr4, {0}
    1e0c:	001ccc05 	andseq	ip, ip, r5, lsl #24
    1e10:	52540e00 	subspl	r0, r4, #0, 28
    1e14:	70070047 	andvc	r0, r7, r7, asr #32
    1e18:	00003005 	andeq	r3, r0, r5
    1e1c:	1b050400 	blne	142e24 <__bss_end__+0x13cce4>
    1e20:	0d002302 	stceq	3, cr2, [r0, #-8]
    1e24:	00001448 	andeq	r1, r0, r8, asr #8
    1e28:	30057107 	andcc	r7, r5, r7, lsl #2
    1e2c:	04000000 	streq	r0, [r0], #-0
    1e30:	23021803 	movwcs	r1, #10243	; 0x2803
    1e34:	0ff00d00 	svceq	0x00f00d00
    1e38:	72070000 	andvc	r0, r7, #0
    1e3c:	00003005 	andeq	r3, r0, r5
    1e40:	17010400 	strne	r0, [r1, -r0, lsl #8]
    1e44:	0d002302 	stceq	3, cr2, [r0, #-8]
    1e48:	00000f20 	andeq	r0, r0, r0, lsr #30
    1e4c:	30057307 	andcc	r7, r5, r7, lsl #6
    1e50:	04000000 	streq	r0, [r0], #-0
    1e54:	23021601 	movwcs	r1, #9729	; 0x2601
    1e58:	19a50d00 	stmibne	r5!, {r8, sl, fp}
    1e5c:	74070000 	strvc	r0, [r7], #-0
    1e60:	00003005 	andeq	r3, r0, r5
    1e64:	15010400 	strne	r0, [r1, #-1024]	; 0xfffffc00
    1e68:	0d002302 	stceq	3, cr2, [r0, #-8]
    1e6c:	0000144f 	andeq	r1, r0, pc, asr #8
    1e70:	30057507 	andcc	r7, r5, r7, lsl #10
    1e74:	04000000 	streq	r0, [r0], #-0
    1e78:	23020015 	movwcs	r0, #8213	; 0x2015
    1e7c:	04060000 	streq	r0, [r6], #-0
    1e80:	ea056b07 	b	15caa4 <__bss_end__+0x156964>
    1e84:	0700001c 	smladeq	r0, ip, r0, r0
    1e88:	6d070055 	stcvs	0, cr0, [r7, #-340]	; 0xfffffeac
    1e8c:	00002505 	andeq	r2, r0, r5, lsl #10
    1e90:	00420700 	subeq	r0, r2, r0, lsl #14
    1e94:	56057607 	strpl	r7, [r5], -r7, lsl #12
    1e98:	0000001c 	andeq	r0, r0, ip, lsl r0
    1e9c:	000f5708 	andeq	r5, pc, r8, lsl #14
    1ea0:	05770700 	ldrbeq	r0, [r7, #-1792]!	; 0xfffff900
    1ea4:	00001ccc 	andeq	r1, r0, ip, asr #25
    1ea8:	c4070404 	strgt	r0, [r7], #-1028	; 0xfffffbfc
    1eac:	001de905 	andseq	lr, sp, r5, lsl #18
    1eb0:	0f9d0d00 	svceq	0x009d0d00
    1eb4:	c6070000 	strgt	r0, [r7], -r0
    1eb8:	00003005 	andeq	r3, r0, r5
    1ebc:	1b050400 	blne	142ec4 <__bss_end__+0x13cd84>
    1ec0:	0d002302 	stceq	3, cr2, [r0, #-8]
    1ec4:	00001448 	andeq	r1, r0, r8, asr #8
    1ec8:	3005c707 	andcc	ip, r5, r7, lsl #14
    1ecc:	04000000 	streq	r0, [r0], #-0
    1ed0:	23021803 	movwcs	r1, #10243	; 0x2803
    1ed4:	4f420e00 	svcmi	0x00420e00
    1ed8:	05c80700 	strbeq	r0, [r8, #1792]	; 0x700
    1edc:	00000030 	andeq	r0, r0, r0, lsr r0
    1ee0:	02130504 	andseq	r0, r3, #4, 10	; 0x1000000
    1ee4:	4f0d0023 	svcmi	0x000d0023
    1ee8:	07000014 	smladeq	r0, r4, r0, r0
    1eec:	003005c9 	eorseq	r0, r0, r9, asr #11
    1ef0:	03040000 	movweq	r0, #16384	; 0x4000
    1ef4:	00230210 	eoreq	r0, r3, r0, lsl r2
    1ef8:	4752540e 	ldrbmi	r5, [r2, -lr, lsl #8]
    1efc:	05ca0700 	strbeq	r0, [sl, #1792]	; 0x700
    1f00:	00000030 	andeq	r0, r0, r0, lsr r0
    1f04:	020d0304 	andeq	r0, sp, #4, 6	; 0x10000000
    1f08:	560d0023 	strpl	r0, [sp], -r3, lsr #32
    1f0c:	07000014 	smladeq	r0, r4, r0, r0
    1f10:	003005cb 	eorseq	r0, r0, fp, asr #11
    1f14:	01040000 	mrseq	r0, (UNDEF: 4)
    1f18:	0023020c 	eoreq	r0, r3, ip, lsl #4
    1f1c:	0001e90d 	andeq	lr, r1, sp, lsl #18
    1f20:	05cc0700 	strbeq	r0, [ip, #1792]	; 0x700
    1f24:	00000030 	andeq	r0, r0, r0, lsr r0
    1f28:	020b0104 	andeq	r0, fp, #4, 2
    1f2c:	890d0023 	stmdbhi	sp, {r0, r1, r5}
    1f30:	07000002 	streq	r0, [r0, -r2]
    1f34:	003005cd 	eorseq	r0, r0, sp, asr #11
    1f38:	01040000 	mrseq	r0, (UNDEF: 4)
    1f3c:	0023020a 	eoreq	r0, r3, sl, lsl #4
    1f40:	0009f00d 	andeq	pc, r9, sp
    1f44:	05ce0700 	strbeq	r0, [lr, #1792]	; 0x700
    1f48:	00000030 	andeq	r0, r0, r0, lsr r0
    1f4c:	02090104 	andeq	r0, r9, #4, 2
    1f50:	740d0023 	strvc	r0, [sp], #-35	; 0xffffffdd
    1f54:	07000009 	streq	r0, [r0, -r9]
    1f58:	003005cf 	eorseq	r0, r0, pc, asr #11
    1f5c:	01040000 	mrseq	r0, (UNDEF: 4)
    1f60:	00230208 	eoreq	r0, r3, r8, lsl #4
    1f64:	000a300d 	andeq	r3, sl, sp
    1f68:	05d00700 	ldrbeq	r0, [r0, #1792]	; 0x700
    1f6c:	00000030 	andeq	r0, r0, r0, lsr r0
    1f70:	02060204 	andeq	r0, r6, #4, 4	; 0x40000000
    1f74:	640d0023 	strvs	r0, [sp], #-35	; 0xffffffdd
    1f78:	07000014 	smladeq	r0, r4, r0, r0
    1f7c:	003005d1 	ldrsbteq	r0, [r0], -r1
    1f80:	02040000 	andeq	r0, r4, #0
    1f84:	00230204 	eoreq	r0, r3, r4, lsl #4
    1f88:	00105a0d 	andseq	r5, r0, sp, lsl #20
    1f8c:	05d20700 	ldrbeq	r0, [r2, #1792]	; 0x700
    1f90:	00000030 	andeq	r0, r0, r0, lsr r0
    1f94:	02000404 	andeq	r0, r0, #4, 8	; 0x4000000
    1f98:	06000023 	streq	r0, [r0], -r3, lsr #32
    1f9c:	05c10704 	strbeq	r0, [r1, #1796]	; 0x704
    1fa0:	00001e07 	andeq	r1, r0, r7, lsl #28
    1fa4:	07005507 	streq	r5, [r0, -r7, lsl #10]
    1fa8:	002505c3 	eoreq	r0, r5, r3, asr #11
    1fac:	42070000 	andmi	r0, r7, #0
    1fb0:	05d30700 	ldrbeq	r0, [r3, #1792]	; 0x700
    1fb4:	00001cf6 	strdeq	r1, [r0], -r6
    1fb8:	1a200800 	bne	803fc0 <__bss_end__+0x7fde80>
    1fbc:	d4070000 	strle	r0, [r7], #-0
    1fc0:	001de905 	andseq	lr, sp, r5, lsl #18
    1fc4:	07040400 	streq	r0, [r4, -r0, lsl #8]
    1fc8:	1fbb07aa 	svcne	0x00bb07aa
    1fcc:	c70d0000 	strgt	r0, [sp, -r0]
    1fd0:	07000002 	streq	r0, [r0, -r2]
    1fd4:	003007ac 	eorseq	r0, r0, ip, lsr #15
    1fd8:	01040000 	mrseq	r0, (UNDEF: 4)
    1fdc:	0023021f 	eoreq	r0, r3, pc, lsl r2
    1fe0:	0017190d 	andseq	r1, r7, sp, lsl #18
    1fe4:	07ad0700 	streq	r0, [sp, r0, lsl #14]!
    1fe8:	00000030 	andeq	r0, r0, r0, lsr r0
    1fec:	021e0104 	andseq	r0, lr, #4, 2
    1ff0:	de0d0023 	cdple	0, 0, cr0, cr13, cr3, {1}
    1ff4:	07000009 	streq	r0, [r0, -r9]
    1ff8:	003007ae 	eorseq	r0, r0, lr, lsr #15
    1ffc:	01040000 	mrseq	r0, (UNDEF: 4)
    2000:	0023021d 	eoreq	r0, r3, sp, lsl r2
    2004:	000b9f0d 	andeq	r9, fp, sp, lsl #30
    2008:	07af0700 	streq	r0, [pc, r0, lsl #14]!
    200c:	00000030 	andeq	r0, r0, r0, lsr r0
    2010:	021c0104 	andseq	r0, ip, #4, 2
    2014:	7a0d0023 	bvc	3420a8 <__bss_end__+0x33bf68>
    2018:	0700001b 	smladeq	r0, fp, r0, r0
    201c:	003007b0 	ldrhteq	r0, [r0], -r0
    2020:	01040000 	mrseq	r0, (UNDEF: 4)
    2024:	0023021b 	eoreq	r0, r3, fp, lsl r2
    2028:	00179a0d 	andseq	r9, r7, sp, lsl #20
    202c:	07b10700 	ldreq	r0, [r1, r0, lsl #14]!
    2030:	00000030 	andeq	r0, r0, r0, lsr r0
    2034:	021a0104 	andseq	r0, sl, #4, 2
    2038:	b60d0023 	strlt	r0, [sp], -r3, lsr #32
    203c:	0700000e 	streq	r0, [r0, -lr]
    2040:	003007b2 	ldrhteq	r0, [r0], -r2
    2044:	01040000 	mrseq	r0, (UNDEF: 4)
    2048:	00230219 	eoreq	r0, r3, r9, lsl r2
    204c:	001c620d 	andseq	r6, ip, sp, lsl #4
    2050:	07b30700 	ldreq	r0, [r3, r0, lsl #14]!
    2054:	00000030 	andeq	r0, r0, r0, lsr r0
    2058:	02180104 	andseq	r0, r8, #4, 2
    205c:	3d0d0023 	stccc	0, cr0, [sp, #-140]	; 0xffffff74
    2060:	0700001a 	smladeq	r0, sl, r0, r0
    2064:	003007b4 	ldrhteq	r0, [r0], -r4
    2068:	01040000 	mrseq	r0, (UNDEF: 4)
    206c:	00230217 	eoreq	r0, r3, r7, lsl r2
    2070:	0011f50d 	andseq	pc, r1, sp, lsl #10
    2074:	07b50700 	ldreq	r0, [r5, r0, lsl #14]!
    2078:	00000030 	andeq	r0, r0, r0, lsr r0
    207c:	02160104 	andseq	r0, r6, #4, 2
    2080:	280d0023 	stmdacs	sp, {r0, r1, r5}
    2084:	0700001c 	smladeq	r0, ip, r0, r0
    2088:	003007b6 	ldrhteq	r0, [r0], -r6
    208c:	01040000 	mrseq	r0, (UNDEF: 4)
    2090:	00230215 	eoreq	r0, r3, r5, lsl r2
    2094:	0019060d 	andseq	r0, r9, sp, lsl #12
    2098:	07b70700 	ldreq	r0, [r7, r0, lsl #14]!
    209c:	00000030 	andeq	r0, r0, r0, lsr r0
    20a0:	02140104 	andseq	r0, r4, #4, 2
    20a4:	090d0023 	stmdbeq	sp, {r0, r1, r5}
    20a8:	07000005 	streq	r0, [r0, -r5]
    20ac:	003007b8 	ldrhteq	r0, [r0], -r8
    20b0:	01040000 	mrseq	r0, (UNDEF: 4)
    20b4:	00230213 	eoreq	r0, r3, r3, lsl r2
    20b8:	0010fb0d 	andseq	pc, r0, sp, lsl #22
    20bc:	07b90700 	ldreq	r0, [r9, r0, lsl #14]!
    20c0:	00000030 	andeq	r0, r0, r0, lsr r0
    20c4:	02120104 	andseq	r0, r2, #4, 2
    20c8:	8d0d0023 	stchi	0, cr0, [sp, #-140]	; 0xffffff74
    20cc:	07000009 	streq	r0, [r0, -r9]
    20d0:	003007ba 	ldrhteq	r0, [r0], -sl
    20d4:	01040000 	mrseq	r0, (UNDEF: 4)
    20d8:	00230211 	eoreq	r0, r3, r1, lsl r2
    20dc:	0002920d 	andeq	r9, r2, sp, lsl #4
    20e0:	07bb0700 	ldreq	r0, [fp, r0, lsl #14]!
    20e4:	00000030 	andeq	r0, r0, r0, lsr r0
    20e8:	02100104 	andseq	r0, r0, #4, 2
    20ec:	900d0023 	andls	r0, sp, r3, lsr #32
    20f0:	07000003 	streq	r0, [r0, -r3]
    20f4:	003007bc 	ldrhteq	r0, [r0], -ip
    20f8:	01040000 	mrseq	r0, (UNDEF: 4)
    20fc:	0023020f 	eoreq	r0, r3, pc, lsl #4
    2100:	0010330d 	andseq	r3, r0, sp, lsl #6
    2104:	07bd0700 	ldreq	r0, [sp, r0, lsl #14]!
    2108:	00000030 	andeq	r0, r0, r0, lsr r0
    210c:	020e0104 	andeq	r0, lr, #4, 2
    2110:	480d0023 	stmdami	sp, {r0, r1, r5}
    2114:	07000014 	smladeq	r0, r4, r0, r0
    2118:	003007be 	ldrhteq	r0, [r0], -lr
    211c:	02040000 	andeq	r0, r4, #0
    2120:	0023020c 	eoreq	r0, r3, ip, lsl #4
    2124:	000c900d 	andeq	r9, ip, sp
    2128:	07bf0700 	ldreq	r0, [pc, r0, lsl #14]!
    212c:	00000030 	andeq	r0, r0, r0, lsr r0
    2130:	020a0204 	andeq	r0, sl, #4, 4	; 0x40000000
    2134:	4f0d0023 	svcmi	0x000d0023
    2138:	07000014 	smladeq	r0, r4, r0, r0
    213c:	003007c0 	eorseq	r0, r0, r0, asr #15
    2140:	02040000 	andeq	r0, r4, #0
    2144:	00230208 	eoreq	r0, r3, r8, lsl #4
    2148:	0003b20d 	andeq	fp, r3, sp, lsl #4
    214c:	07c10700 	strbeq	r0, [r1, r0, lsl #14]
    2150:	00000030 	andeq	r0, r0, r0, lsr r0
    2154:	02020604 	andeq	r0, r2, #4, 12	; 0x400000
    2158:	560d0023 	strpl	r0, [sp], -r3, lsr #32
    215c:	07000014 	smladeq	r0, r4, r0, r0
    2160:	003007c2 	eorseq	r0, r0, r2, asr #15
    2164:	02040000 	andeq	r0, r4, #0
    2168:	00230200 	eoreq	r0, r3, r0, lsl #4
    216c:	07040600 	streq	r0, [r4, -r0, lsl #12]
    2170:	1fd907a7 	svcne	0x00d907a7
    2174:	55070000 	strpl	r0, [r7, #-0]
    2178:	07a90700 	streq	r0, [r9, r0, lsl #14]!
    217c:	00000025 	andeq	r0, r0, r5, lsr #32
    2180:	07004207 	streq	r4, [r0, -r7, lsl #4]
    2184:	1e1307c3 	cdpne	7, 1, cr0, cr3, cr3, {6}
    2188:	08000000 	stmdaeq	r0, {}	; <UNPREDICTABLE>
    218c:	00001865 	andeq	r1, r0, r5, ror #16
    2190:	bb07c407 	bllt	1f31b4 <__bss_end__+0x1ed074>
    2194:	0400001f 	streq	r0, [r0], #-31	; 0xffffffe1
    2198:	08be0704 	ldmeq	lr!, {r2, r8, r9, sl}
    219c:	0000207f 	andeq	r2, r0, pc, ror r0
    21a0:	000f8c0d 	andeq	r8, pc, sp, lsl #24
    21a4:	08c00700 	stmiaeq	r0, {r8, r9, sl}^
    21a8:	00000030 	andeq	r0, r0, r0, lsr r0
    21ac:	021b0504 	andseq	r0, fp, #4, 10	; 0x1000000
    21b0:	480d0023 	stmdami	sp, {r0, r1, r5}
    21b4:	07000014 	smladeq	r0, r4, r0, r0
    21b8:	003008c1 	eorseq	r0, r0, r1, asr #17
    21bc:	03040000 	movweq	r0, #16384	; 0x4000
    21c0:	00230218 	eoreq	r0, r3, r8, lsl r2
    21c4:	000b790d 	andeq	r7, fp, sp, lsl #18
    21c8:	08c20700 	stmiaeq	r2, {r8, r9, sl}^
    21cc:	00000030 	andeq	r0, r0, r0, lsr r0
    21d0:	02170104 	andseq	r0, r7, #4, 2
    21d4:	bf0d0023 	svclt	0x000d0023
    21d8:	07000018 	smladeq	r0, r8, r0, r0
    21dc:	003008c3 	eorseq	r0, r0, r3, asr #17
    21e0:	01040000 	mrseq	r0, (UNDEF: 4)
    21e4:	00230216 	eoreq	r0, r3, r6, lsl r2
    21e8:	001c4f0d 	andseq	r4, ip, sp, lsl #30
    21ec:	08c40700 	stmiaeq	r4, {r8, r9, sl}^
    21f0:	00000030 	andeq	r0, r0, r0, lsr r0
    21f4:	02150104 	andseq	r0, r5, #4, 2
    21f8:	4f0d0023 	svcmi	0x000d0023
    21fc:	07000014 	smladeq	r0, r4, r0, r0
    2200:	003008c5 	eorseq	r0, r0, r5, asr #17
    2204:	05040000 	streq	r0, [r4, #-0]
    2208:	00230210 	eoreq	r0, r3, r0, lsl r2
    220c:	0016910d 	andseq	r9, r6, sp, lsl #2
    2210:	08c60700 	stmiaeq	r6, {r8, r9, sl}^
    2214:	00000030 	andeq	r0, r0, r0, lsr r0
    2218:	02060a04 	andeq	r0, r6, #4, 20	; 0x4000
    221c:	560d0023 	strpl	r0, [sp], -r3, lsr #32
    2220:	07000014 	smladeq	r0, r4, r0, r0
    2224:	003008c7 	eorseq	r0, r0, r7, asr #17
    2228:	06040000 	streq	r0, [r4], -r0
    222c:	00230200 	eoreq	r0, r3, r0, lsl #4
    2230:	07040600 	streq	r0, [r4, -r0, lsl #12]
    2234:	209d08bb 			; <UNDEFINED> instruction: 0x209d08bb
    2238:	55070000 	strpl	r0, [r7, #-0]
    223c:	08bd0700 	popeq	{r8, r9, sl}
    2240:	00000025 	andeq	r0, r0, r5, lsr #32
    2244:	07004207 	streq	r4, [r0, -r7, lsl #4]
    2248:	1fe508c8 	svcne	0x00e508c8
    224c:	08000000 	stmdaeq	r0, {}	; <UNPREDICTABLE>
    2250:	00000aaa 	andeq	r0, r0, sl, lsr #21
    2254:	7f08c907 	svcvc	0x0008c907
    2258:	09000020 	stmdbeq	r0, {r5}
    225c:	1f1c0804 	svcne	0x001c0804
    2260:	0f000021 	svceq	0x00000021
    2264:	000003bf 			; <UNDEFINED> instruction: 0x000003bf
    2268:	00491e08 	subeq	r1, r9, r8, lsl #28
    226c:	23020000 	movwcs	r0, #8192	; 0x2000
    2270:	45461000 	strbmi	r1, [r6, #-0]
    2274:	301f0800 	andscc	r0, pc, r0, lsl #16
    2278:	04000000 	streq	r0, [r0], #-0
    227c:	23021701 	movwcs	r1, #9985	; 0x2701
    2280:	45501000 	ldrbmi	r1, [r0, #-0]
    2284:	30200800 	eorcc	r0, r0, r0, lsl #16
    2288:	04000000 	streq	r0, [r0], #-0
    228c:	23021601 	movwcs	r1, #9729	; 0x2601
    2290:	45421000 	strbmi	r1, [r2, #-0]
    2294:	30210800 	eorcc	r0, r1, r0, lsl #16
    2298:	04000000 	streq	r0, [r0], #-0
    229c:	23021501 	movwcs	r1, #9473	; 0x2501
    22a0:	454f1000 	strbmi	r1, [pc, #-0]	; 22a8 <hw_emi_ConfigureEmiPins+0x14c>
    22a4:	30220800 	eorcc	r0, r2, r0, lsl #16
    22a8:	04000000 	streq	r0, [r0], #-0
    22ac:	23021401 	movwcs	r1, #9217	; 0x2401
    22b0:	0a190a00 	beq	644ab8 <__bss_end__+0x63e978>
    22b4:	23080000 	movwcs	r0, #32768	; 0x8000
    22b8:	00000030 	andeq	r0, r0, r0, lsr r0
    22bc:	02100404 	andseq	r0, r0, #4, 8	; 0x4000000
    22c0:	1f0f0023 	svcne	0x000f0023
    22c4:	08000015 	stmdaeq	r0, {r0, r2, r4}
    22c8:	00003724 	andeq	r3, r0, r4, lsr #14
    22cc:	02230200 	eoreq	r0, r3, #0, 4
    22d0:	08040b00 	stmdaeq	r4, {r8, r9, fp}
    22d4:	00213a19 	eoreq	r3, r1, r9, lsl sl
    22d8:	00550c00 	subseq	r0, r5, r0, lsl #24
    22dc:	00251b08 	eoreq	r1, r5, r8, lsl #22
    22e0:	420c0000 	andmi	r0, ip, #0
    22e4:	a9250800 	stmdbge	r5!, {fp}
    22e8:	00000020 	andeq	r0, r0, r0, lsr #32
    22ec:	00019e02 	andeq	r9, r1, r2, lsl #28
    22f0:	1f260800 	svcne	0x00260800
    22f4:	09000021 	stmdbeq	r0, {r0, r5}
    22f8:	af800804 	svcge	0x00800804
    22fc:	10000021 	andne	r0, r0, r1, lsr #32
    2300:	08004546 	stmdaeq	r0, {r1, r2, r6, r8, sl, lr}
    2304:	00003082 	andeq	r3, r0, r2, lsl #1
    2308:	1f010400 	svcne	0x00010400
    230c:	10002302 	andne	r2, r0, r2, lsl #6
    2310:	08004550 	stmdaeq	r0, {r4, r6, r8, sl, lr}
    2314:	00003083 	andeq	r3, r0, r3, lsl #1
    2318:	1e010400 	cfcpysne	mvf0, mvf1
    231c:	10002302 	andne	r2, r0, r2, lsl #6
    2320:	08004542 	stmdaeq	r0, {r1, r6, r8, sl, lr}
    2324:	00003084 	andeq	r3, r0, r4, lsl #1
    2328:	1d010400 	cfstrsne	mvf0, [r1, #-0]
    232c:	10002302 	andne	r2, r0, r2, lsl #6
    2330:	0800454f 	stmdaeq	r0, {r0, r1, r2, r3, r6, r8, sl, lr}
    2334:	00003085 	andeq	r3, r0, r5, lsl #1
    2338:	1c010400 	cfstrsne	mvf0, [r1], {-0}
    233c:	10002302 	andne	r2, r0, r2, lsl #6
    2340:	08004345 	stmdaeq	r0, {r0, r2, r6, r8, r9, lr}
    2344:	00003086 	andeq	r3, r0, r6, lsl #1
    2348:	18040400 	stmdane	r4, {sl}
    234c:	0a002302 	beq	af5c <__bss_end__+0x4e1c>
    2350:	0000151f 	andeq	r1, r0, pc, lsl r5
    2354:	00308708 	eorseq	r8, r0, r8, lsl #14
    2358:	18040000 	stmdane	r4, {}	; <UNPREDICTABLE>
    235c:	00230200 	eoreq	r0, r3, r0, lsl #4
    2360:	08040b00 	stmdaeq	r4, {r8, r9, fp}
    2364:	0021ca7d 	eoreq	ip, r1, sp, ror sl
    2368:	00550c00 	subseq	r0, r5, r0, lsl #24
    236c:	00257f08 	eoreq	r7, r5, r8, lsl #30
    2370:	420c0000 	andmi	r0, ip, #0
    2374:	45880800 	strmi	r0, [r8, #2048]	; 0x800
    2378:	00000021 	andeq	r0, r0, r1, lsr #32
    237c:	001b9102 	andseq	r9, fp, r2, lsl #2
    2380:	af890800 	svcge	0x00890800
    2384:	09000021 	stmdbeq	r0, {r0, r5}
    2388:	95ec0804 	strbls	r0, [ip, #2052]!	; 0x804
    238c:	10000022 	andne	r0, r0, r2, lsr #32
    2390:	00535443 	subseq	r5, r3, r3, asr #8
    2394:	0030ee08 	eorseq	lr, r0, r8, lsl #28
    2398:	01040000 	mrseq	r0, (UNDEF: 4)
    239c:	0023021f 	eoreq	r0, r3, pc, lsl r2
    23a0:	52534410 	subspl	r4, r3, #16, 8	; 0x10000000
    23a4:	30ef0800 	rsccc	r0, pc, r0, lsl #16
    23a8:	04000000 	streq	r0, [r0], #-0
    23ac:	23021e01 	movwcs	r1, #11777	; 0x2e01
    23b0:	43441000 	movtmi	r1, #16384	; 0x4000
    23b4:	f0080044 			; <UNDEFINED> instruction: 0xf0080044
    23b8:	00000030 	andeq	r0, r0, r0, lsr r0
    23bc:	021d0104 	andseq	r0, sp, #4, 2
    23c0:	e00a0023 	and	r0, sl, r3, lsr #32
    23c4:	08000018 	stmdaeq	r0, {r3, r4}
    23c8:	000030f1 	strdeq	r3, [r0], -r1
    23cc:	1c010400 	cfstrsne	mvf0, [r1], {-0}
    23d0:	0a002302 	beq	afe0 <__bss_end__+0x4ea0>
    23d4:	00000ef6 	strdeq	r0, [r0], -r6
    23d8:	0030f208 	eorseq	pc, r0, r8, lsl #4
    23dc:	01040000 	mrseq	r0, (UNDEF: 4)
    23e0:	0023021b 	eoreq	r0, r3, fp, lsl r2
    23e4:	000f520a 	andeq	r5, pc, sl, lsl #4
    23e8:	30f30800 	rscscc	r0, r3, r0, lsl #16
    23ec:	04000000 	streq	r0, [r0], #-0
    23f0:	23021a01 	movwcs	r1, #10753	; 0x2a01
    23f4:	0efb0a00 	vmoveq.f32	s1, #176	; 0xb0
    23f8:	f4080000 	vst4.8	{d0-d3}, [r8], r0
    23fc:	00000030 	andeq	r0, r0, r0, lsr r0
    2400:	02190104 	andseq	r0, r9, #4, 2
    2404:	4d0a0023 	stcmi	0, cr0, [sl, #-140]	; 0xffffff74
    2408:	0800000f 	stmdaeq	r0, {r0, r1, r2, r3}
    240c:	000030f5 	strdeq	r3, [r0], -r5
    2410:	18010400 	stmdane	r1, {sl}
    2414:	10002302 	andne	r2, r0, r2, lsl #6
    2418:	08004952 	stmdaeq	r0, {r1, r4, r6, r8, fp, lr}
    241c:	000030f6 	strdeq	r3, [r0], -r6
    2420:	17010400 	strne	r0, [r1, -r0, lsl #8]
    2424:	0a002302 	beq	b034 <__bss_end__+0x4ef4>
    2428:	00000a19 	andeq	r0, r0, r9, lsl sl
    242c:	0030f708 	eorseq	pc, r0, r8, lsl #14
    2430:	07040000 	streq	r0, [r4, -r0]
    2434:	00230210 	eoreq	r0, r3, r0, lsl r2
    2438:	00151f0f 	andseq	r1, r5, pc, lsl #30
    243c:	37f80800 	ldrbcc	r0, [r8, r0, lsl #16]!
    2440:	02000000 	andeq	r0, r0, #0
    2444:	0b000223 	bleq	2cd8 <hw_dram_Init_ddr_mt46v32m16_6t_96MHz+0x298>
    2448:	b0e90804 	rsclt	r0, r9, r4, lsl #16
    244c:	0c000022 	stceq	0, cr0, [r0], {34}	; 0x22
    2450:	eb080055 	bl	2025ac <__bss_end__+0x1fc46c>
    2454:	00000025 	andeq	r0, r0, r5, lsr #32
    2458:	0800420c 	stmdaeq	r0, {r2, r3, r9, lr}
    245c:	0021d5f9 	strdeq	sp, [r1], -r9	; <UNPREDICTABLE>
    2460:	49020000 	stmdbmi	r2, {}	; <UNPREDICTABLE>
    2464:	08000002 	stmdaeq	r0, {r1}
    2468:	002295fa 	strdeq	r9, [r2], -sl	; <UNPREDICTABLE>
    246c:	08040400 	stmdaeq	r4, {sl}
    2470:	22e301a4 	rsccs	r0, r3, #164, 2	; 0x29
    2474:	5a050000 	bpl	14247c <__bss_end__+0x13c33c>
    2478:	08000005 	stmdaeq	r0, {r0, r2}
    247c:	003701a6 	eorseq	r0, r7, r6, lsr #3
    2480:	23020000 	movwcs	r0, #8192	; 0x2000
    2484:	151f0500 	ldrne	r0, [pc, #-1280]	; 1f8c <ddi_emi_PreOsInit+0x450>
    2488:	a7080000 	strge	r0, [r8, -r0]
    248c:	00003701 	andeq	r3, r0, r1, lsl #14
    2490:	02230200 	eoreq	r0, r3, #0, 4
    2494:	08040600 	stmdaeq	r4, {r9, sl}
    2498:	230101a1 	movwcs	r0, #4513	; 0x11a1
    249c:	55070000 	strpl	r0, [r7, #-0]
    24a0:	01a30800 			; <UNDEFINED> instruction: 0x01a30800
    24a4:	00000025 	andeq	r0, r0, r5, lsr #32
    24a8:	08004207 	stmdaeq	r0, {r0, r1, r2, r9, lr}
    24ac:	22bb01a8 	adcscs	r0, fp, #168, 2	; 0x2a
    24b0:	08000000 	stmdaeq	r0, {}	; <UNPREDICTABLE>
    24b4:	00001b23 	andeq	r1, r0, r3, lsr #22
    24b8:	e301a908 	movw	sl, #6408	; 0x1908
    24bc:	04000022 	streq	r0, [r0], #-34	; 0xffffffde
    24c0:	01e00804 	mvneq	r0, r4, lsl #16
    24c4:	0000234d 	andeq	r2, r0, sp, asr #6
    24c8:	0006e90d 	andeq	lr, r6, sp, lsl #18
    24cc:	01e20800 	mvneq	r0, r0, lsl #16
    24d0:	00000030 	andeq	r0, r0, r0, lsr r0
    24d4:	021a0604 	andseq	r0, sl, #4, 12	; 0x400000
    24d8:	190d0023 	stmdbne	sp, {r0, r1, r5}
    24dc:	0800000a 	stmdaeq	r0, {r1, r3}
    24e0:	003001e3 	eorseq	r0, r0, r3, ror #3
    24e4:	02040000 	andeq	r0, r4, #0
    24e8:	00230218 	eoreq	r0, r3, r8, lsl r2
    24ec:	00151f0d 	andseq	r1, r5, sp, lsl #30
    24f0:	01e40800 	mvneq	r0, r0, lsl #16
    24f4:	00000030 	andeq	r0, r0, r0, lsr r0
    24f8:	02001804 	andeq	r1, r0, #4, 16	; 0x40000
    24fc:	06000023 	streq	r0, [r0], -r3, lsr #32
    2500:	01dd0804 	bicseq	r0, sp, r4, lsl #16
    2504:	0000236b 	andeq	r2, r0, fp, ror #6
    2508:	08005507 	stmdaeq	r0, {r0, r1, r2, r8, sl, ip, lr}
    250c:	002501df 	ldrdeq	r0, [r5], -pc	; <UNPREDICTABLE>
    2510:	42070000 	andmi	r0, r7, #0
    2514:	01e50800 	mvneq	r0, r0, lsl #16
    2518:	0000230d 	andeq	r2, r0, sp, lsl #6
    251c:	0fa50800 	svceq	0x00a50800
    2520:	e6080000 	str	r0, [r8], -r0
    2524:	00234d01 	eoreq	r4, r3, r1, lsl #26
    2528:	08040400 	stmdaeq	r4, {sl}
    252c:	241d0223 	ldrcs	r0, [sp], #-547	; 0xfffffddd
    2530:	420e0000 	andmi	r0, lr, #0
    2534:	08004b52 	stmdaeq	r0, {r1, r4, r6, r8, r9, fp, lr}
    2538:	00300225 	eorseq	r0, r0, r5, lsr #4
    253c:	01040000 	mrseq	r0, (UNDEF: 4)
    2540:	0023021f 	eoreq	r0, r3, pc, lsl r2
    2544:	4e45500e 	cdpmi	0, 4, cr5, cr5, cr14, {0}
    2548:	02260800 	eoreq	r0, r6, #0, 16
    254c:	00000030 	andeq	r0, r0, r0, lsr r0
    2550:	021e0104 	andseq	r0, lr, #4, 2
    2554:	450e0023 	strmi	r0, [lr, #-35]	; 0xffffffdd
    2558:	08005350 	stmdaeq	r0, {r4, r6, r8, r9, ip, lr}
    255c:	00300227 	eorseq	r0, r0, r7, lsr #4
    2560:	01040000 	mrseq	r0, (UNDEF: 4)
    2564:	0023021d 	eoreq	r0, r3, sp, lsl r2
    2568:	000f7b0d 	andeq	r7, pc, sp, lsl #22
    256c:	02280800 	eoreq	r0, r8, #0, 16
    2570:	00000030 	andeq	r0, r0, r0, lsr r0
    2574:	021c0104 	andseq	r0, ip, #4, 2
    2578:	460e0023 	strmi	r0, [lr], -r3, lsr #32
    257c:	08004e45 	stmdaeq	r0, {r0, r2, r6, r9, sl, fp, lr}
    2580:	00300229 	eorseq	r0, r0, r9, lsr #4
    2584:	01040000 	mrseq	r0, (UNDEF: 4)
    2588:	0023021b 	eoreq	r0, r3, fp, lsl r2
    258c:	0011560d 	andseq	r5, r1, sp, lsl #12
    2590:	022a0800 	eoreq	r0, sl, #0, 16
    2594:	00000030 	andeq	r0, r0, r0, lsr r0
    2598:	02190204 	andseq	r0, r9, #4, 4	; 0x40000000
    259c:	530e0023 	movwpl	r0, #57379	; 0xe023
    25a0:	08005350 	stmdaeq	r0, {r4, r6, r8, r9, ip, lr}
    25a4:	0030022b 	eorseq	r0, r0, fp, lsr #4
    25a8:	01040000 	mrseq	r0, (UNDEF: 4)
    25ac:	00230218 	eoreq	r0, r3, r8, lsl r2
    25b0:	000a1905 	andeq	r1, sl, r5, lsl #18
    25b4:	022c0800 	eoreq	r0, ip, #0, 16
    25b8:	00000049 	andeq	r0, r0, r9, asr #32
    25bc:	05012302 	streq	r2, [r1, #-770]	; 0xfffffcfe
    25c0:	0000151f 	andeq	r1, r0, pc, lsl r5
    25c4:	37022d08 	strcc	r2, [r2, -r8, lsl #26]
    25c8:	02000000 	andeq	r0, r0, #0
    25cc:	06000223 	streq	r0, [r0], -r3, lsr #4
    25d0:	02200804 	eoreq	r0, r0, #4, 16	; 0x40000
    25d4:	0000243b 	andeq	r2, r0, fp, lsr r4
    25d8:	08005507 	stmdaeq	r0, {r0, r1, r2, r8, sl, ip, lr}
    25dc:	00250222 	eoreq	r0, r5, r2, lsr #4
    25e0:	42070000 	andmi	r0, r7, #0
    25e4:	022e0800 	eoreq	r0, lr, #0, 16
    25e8:	00002377 	andeq	r2, r0, r7, ror r3
    25ec:	10770800 	rsbsne	r0, r7, r0, lsl #16
    25f0:	2f080000 	svccs	0x00080000
    25f4:	00241d02 	eoreq	r1, r4, r2, lsl #26
    25f8:	08040400 	stmdaeq	r4, {sl}
    25fc:	254a02b5 	strbcs	r0, [sl, #-693]	; 0xfffffd4b
    2600:	110d0000 	mrsne	r0, (UNDEF: 13)
    2604:	08000014 	stmdaeq	r0, {r2, r4}
    2608:	003002b7 	ldrhteq	r0, [r0], -r7
    260c:	01040000 	mrseq	r0, (UNDEF: 4)
    2610:	0023021f 	eoreq	r0, r3, pc, lsl r2
    2614:	000b990d 	andeq	r9, fp, sp, lsl #18
    2618:	02b80800 	adcseq	r0, r8, #0, 16
    261c:	00000030 	andeq	r0, r0, r0, lsr r0
    2620:	021e0104 	andseq	r0, lr, #4, 2
    2624:	d90d0023 	stmdble	sp, {r0, r1, r5}
    2628:	08000011 	stmdaeq	r0, {r0, r4}
    262c:	003002b9 	ldrhteq	r0, [r0], -r9
    2630:	01040000 	mrseq	r0, (UNDEF: 4)
    2634:	0023021d 	eoreq	r0, r3, sp, lsl r2
    2638:	000a190d 	andeq	r1, sl, sp, lsl #18
    263c:	02ba0800 	adcseq	r0, sl, #0, 16
    2640:	00000030 	andeq	r0, r0, r0, lsr r0
    2644:	02190404 	andseq	r0, r9, #4, 8	; 0x4000000
    2648:	4c0e0023 	stcmi	0, cr0, [lr], {35}	; 0x23
    264c:	08004542 	stmdaeq	r0, {r1, r6, r8, sl, lr}
    2650:	003002bb 	ldrhteq	r0, [r0], -fp
    2654:	01040000 	mrseq	r0, (UNDEF: 4)
    2658:	00230218 	eoreq	r0, r3, r8, lsl r2
    265c:	4558540e 	ldrbmi	r5, [r8, #-1038]	; 0xfffffbf2
    2660:	02bc0800 	adcseq	r0, ip, #0, 16
    2664:	00000030 	andeq	r0, r0, r0, lsr r0
    2668:	02170104 	andseq	r0, r7, #4, 2
    266c:	520e0023 	andpl	r0, lr, #35	; 0x23
    2670:	08004558 	stmdaeq	r0, {r3, r4, r6, r8, sl, lr}
    2674:	003002bd 	ldrhteq	r0, [r0], -sp
    2678:	01040000 	mrseq	r0, (UNDEF: 4)
    267c:	00230216 	eoreq	r0, r3, r6, lsl r2
    2680:	5254440e 	subspl	r4, r4, #234881024	; 0xe000000
    2684:	02be0800 	adcseq	r0, lr, #0, 16
    2688:	00000030 	andeq	r0, r0, r0, lsr r0
    268c:	02150104 	andseq	r0, r5, #4, 2
    2690:	520e0023 	andpl	r0, lr, #35	; 0x23
    2694:	08005354 	stmdaeq	r0, {r2, r4, r6, r8, r9, ip, lr}
    2698:	003002bf 	ldrhteq	r0, [r0], -pc
    269c:	01040000 	mrseq	r0, (UNDEF: 4)
    26a0:	00230214 	eoreq	r0, r3, r4, lsl r2
    26a4:	001a670d 	andseq	r6, sl, sp, lsl #14
    26a8:	02c00800 	sbceq	r0, r0, #0, 16
    26ac:	00000030 	andeq	r0, r0, r0, lsr r0
    26b0:	02130104 	andseq	r0, r3, #4, 2
    26b4:	760d0023 	strvc	r0, [sp], -r3, lsr #32
    26b8:	08000019 	stmdaeq	r0, {r0, r3, r4}
    26bc:	003002c1 	eorseq	r0, r0, r1, asr #5
    26c0:	01040000 	mrseq	r0, (UNDEF: 4)
    26c4:	00230212 	eoreq	r0, r3, r2, lsl r2
    26c8:	0008d70d 	andeq	sp, r8, sp, lsl #14
    26cc:	02c20800 	sbceq	r0, r2, #0, 16
    26d0:	00000030 	andeq	r0, r0, r0, lsr r0
    26d4:	02110104 	andseq	r0, r1, #4, 2
    26d8:	ef0d0023 	svc	0x000d0023
    26dc:	08000011 	stmdaeq	r0, {r0, r4}
    26e0:	003002c3 	eorseq	r0, r0, r3, asr #5
    26e4:	01040000 	mrseq	r0, (UNDEF: 4)
    26e8:	00230210 	eoreq	r0, r3, r0, lsl r2
    26ec:	00151f05 	andseq	r1, r5, r5, lsl #30
    26f0:	02c40800 	sbceq	r0, r4, #0, 16
    26f4:	00000037 	andeq	r0, r0, r7, lsr r0
    26f8:	00022302 	andeq	r2, r2, r2, lsl #6
    26fc:	b2080406 	andlt	r0, r8, #100663296	; 0x6000000
    2700:	00256802 	eoreq	r6, r5, r2, lsl #16
    2704:	00550700 	subseq	r0, r5, r0, lsl #14
    2708:	2502b408 	strcs	fp, [r2, #-1032]	; 0xfffffbf8
    270c:	07000000 	streq	r0, [r0, -r0]
    2710:	c5080042 	strgt	r0, [r8, #-66]	; 0xffffffbe
    2714:	00244702 	eoreq	r4, r4, r2, lsl #14
    2718:	e7080000 	str	r0, [r8, -r0]
    271c:	0800000e 	stmdaeq	r0, {r1, r2, r3}
    2720:	254a02c6 	strbcs	r0, [sl, #-710]	; 0xfffffd3a
    2724:	04040000 	streq	r0, [r4], #-0
    2728:	c3037d08 	movwgt	r7, #15624	; 0x3d08
    272c:	0d000025 	stceq	0, cr0, [r0, #-148]	; 0xffffff6c
    2730:	00000862 	andeq	r0, r0, r2, ror #16
    2734:	30037f08 	andcc	r7, r3, r8, lsl #30
    2738:	04000000 	streq	r0, [r0], #-0
    273c:	23021d03 	movwcs	r1, #11523	; 0x2d03
    2740:	13e70d00 	mvnne	r0, #0, 26
    2744:	80080000 	andhi	r0, r8, r0
    2748:	00003003 	andeq	r3, r0, r3
    274c:	1a030400 	bne	c3754 <__bss_end__+0xbd614>
    2750:	0d002302 	stceq	3, cr2, [r0, #-8]
    2754:	00000a19 	andeq	r0, r0, r9, lsl sl
    2758:	30038108 	andcc	r8, r3, r8, lsl #2
    275c:	04000000 	streq	r0, [r0], #-0
    2760:	2302100a 	movwcs	r1, #8202	; 0x200a
    2764:	151f0500 	ldrne	r0, [pc, #-1280]	; 226c <hw_emi_ConfigureEmiPins+0x110>
    2768:	82080000 	andhi	r0, r8, #0
    276c:	00003703 	andeq	r3, r0, r3, lsl #14
    2770:	02230200 	eoreq	r0, r3, #0, 4
    2774:	08040600 	stmdaeq	r4, {r9, sl}
    2778:	25e1037a 	strbcs	r0, [r1, #890]!	; 0x37a
    277c:	55070000 	strpl	r0, [r7, #-0]
    2780:	037c0800 	cmneq	ip, #0, 16
    2784:	00000025 	andeq	r0, r0, r5, lsr #32
    2788:	08004207 	stmdaeq	r0, {r0, r1, r2, r9, lr}
    278c:	25740383 	ldrbcs	r0, [r4, #-899]!	; 0xfffffc7d
    2790:	08000000 	stmdaeq	r0, {}	; <UNPREDICTABLE>
    2794:	000003c4 	andeq	r0, r0, r4, asr #7
    2798:	c3038408 	movwgt	r8, #13320	; 0x3408
    279c:	04000025 	streq	r0, [r0], #-37	; 0xffffffdb
    27a0:	03df0804 	bicseq	r0, pc, #4, 16	; 0x40000
    27a4:	000026de 	ldrdeq	r2, [r0], -lr
    27a8:	0013760d 	andseq	r7, r3, sp, lsl #12
    27ac:	03e10800 	mvneq	r0, #0, 16
    27b0:	00000030 	andeq	r0, r0, r0, lsr r0
    27b4:	021f0104 	andseq	r0, pc, #4, 2
    27b8:	b60d0023 	strlt	r0, [sp], -r3, lsr #32
    27bc:	0800000f 	stmdaeq	r0, {r0, r1, r2, r3}
    27c0:	003003e2 	eorseq	r0, r0, r2, ror #7
    27c4:	01040000 	mrseq	r0, (UNDEF: 4)
    27c8:	0023021e 	eoreq	r0, r3, lr, lsl r2
    27cc:	0006af0d 	andeq	sl, r6, sp, lsl #30
    27d0:	03e30800 	mvneq	r0, #0, 16
    27d4:	00000030 	andeq	r0, r0, r0, lsr r0
    27d8:	021d0104 	andseq	r0, sp, #4, 2
    27dc:	590d0023 	stmdbpl	sp, {r0, r1, r5}
    27e0:	08000018 	stmdaeq	r0, {r3, r4}
    27e4:	003003e4 	eorseq	r0, r0, r4, ror #7
    27e8:	01040000 	mrseq	r0, (UNDEF: 4)
    27ec:	0023021c 	eoreq	r0, r3, ip, lsl r2
    27f0:	0011ea0d 	andseq	lr, r1, sp, lsl #20
    27f4:	03e50800 	mvneq	r0, #0, 16
    27f8:	00000030 	andeq	r0, r0, r0, lsr r0
    27fc:	021b0104 	andseq	r0, fp, #4, 2
    2800:	210d0023 	tstcs	sp, r3, lsr #32
    2804:	08000012 	stmdaeq	r0, {r1, r4}
    2808:	003003e6 	eorseq	r0, r0, r6, ror #7
    280c:	01040000 	mrseq	r0, (UNDEF: 4)
    2810:	0023021a 	eoreq	r0, r3, sl, lsl r2
    2814:	0018600d 	andseq	r6, r8, sp
    2818:	03e70800 	mvneq	r0, #0, 16
    281c:	00000030 	andeq	r0, r0, r0, lsr r0
    2820:	02190104 	andseq	r0, r9, #4, 2
    2824:	5c0d0023 	stcpl	0, cr0, [sp], {35}	; 0x23
    2828:	08000015 	stmdaeq	r0, {r0, r2, r4}
    282c:	003003e8 	eorseq	r0, r0, r8, ror #7
    2830:	01040000 	mrseq	r0, (UNDEF: 4)
    2834:	00230218 	eoreq	r0, r3, r8, lsl r2
    2838:	0017630d 	andseq	r6, r7, sp, lsl #6
    283c:	03e90800 	mvneq	r0, #0, 16
    2840:	00000030 	andeq	r0, r0, r0, lsr r0
    2844:	02170104 	andseq	r0, r7, #4, 2
    2848:	a10d0023 	tstge	sp, r3, lsr #32
    284c:	08000013 	stmdaeq	r0, {r0, r1, r4}
    2850:	003003ea 	eorseq	r0, r0, sl, ror #7
    2854:	01040000 	mrseq	r0, (UNDEF: 4)
    2858:	00230216 	eoreq	r0, r3, r6, lsl r2
    285c:	0008410d 	andeq	r4, r8, sp, lsl #2
    2860:	03eb0800 	mvneq	r0, #0, 16
    2864:	00000030 	andeq	r0, r0, r0, lsr r0
    2868:	02150104 	andseq	r0, r5, #4, 2
    286c:	190d0023 	stmdbne	sp, {r0, r1, r5}
    2870:	0800000a 	stmdaeq	r0, {r1, r3}
    2874:	003003ec 	eorseq	r0, r0, ip, ror #7
    2878:	05040000 	streq	r0, [r4, #-0]
    287c:	00230210 	eoreq	r0, r3, r0, lsl r2
    2880:	00151f05 	andseq	r1, r5, r5, lsl #30
    2884:	03ed0800 	mvneq	r0, #0, 16
    2888:	00000037 	andeq	r0, r0, r7, lsr r0
    288c:	00022302 	andeq	r2, r2, r2, lsl #6
    2890:	dc080406 	cfstrsle	mvf0, [r8], {6}
    2894:	0026fc03 	eoreq	pc, r6, r3, lsl #24
    2898:	00550700 	subseq	r0, r5, r0, lsl #14
    289c:	2503de08 	strcs	sp, [r3, #-3592]	; 0xfffff1f8
    28a0:	07000000 	streq	r0, [r0, -r0]
    28a4:	ee080042 	cdp	0, 0, cr0, cr8, cr2, {2}
    28a8:	0025ed03 	eoreq	lr, r5, r3, lsl #26
    28ac:	9c080000 	stcls	0, cr0, [r8], {-0}
    28b0:	08000009 	stmdaeq	r0, {r0, r3}
    28b4:	26de03ef 	ldrbcs	r0, [lr], pc, ror #7
    28b8:	04040000 	streq	r0, [r4], #-0
    28bc:	6801d409 	stmdavs	r1, {r0, r3, sl, ip, lr, pc}
    28c0:	0d000028 	stceq	0, cr0, [r0, #-160]	; 0xffffff60
    28c4:	00000a8c 	andeq	r0, r0, ip, lsl #21
    28c8:	3001d609 	andcc	sp, r1, r9, lsl #12
    28cc:	04000000 	streq	r0, [r0], #-0
    28d0:	23021f01 	movwcs	r1, #12033	; 0x2f01
    28d4:	126f0d00 	rsbne	r0, pc, #0, 26
    28d8:	d7090000 	strle	r0, [r9, -r0]
    28dc:	00003001 	andeq	r3, r0, r1
    28e0:	1e010400 	cfcpysne	mvf0, mvf1
    28e4:	0d002302 	stceq	3, cr2, [r0, #-8]
    28e8:	000019e2 	andeq	r1, r0, r2, ror #19
    28ec:	3001dd09 	andcc	sp, r1, r9, lsl #26
    28f0:	04000000 	streq	r0, [r0], #-0
    28f4:	23021d01 	movwcs	r1, #11521	; 0x2d01
    28f8:	132f0d00 	teqne	pc, #0, 26
    28fc:	e2090000 	and	r0, r9, #0
    2900:	00003001 	andeq	r3, r0, r1
    2904:	1c010400 	cfstrsne	mvf0, [r1], {-0}
    2908:	0d002302 	stceq	3, cr2, [r0, #-8]
    290c:	00000e72 	andeq	r0, r0, r2, ror lr
    2910:	3001e709 	andcc	lr, r1, r9, lsl #14
    2914:	04000000 	streq	r0, [r0], #-0
    2918:	23021b01 	movwcs	r1, #11009	; 0x2b01
    291c:	03d50d00 	bicseq	r0, r5, #0, 26
    2920:	eb090000 	bl	242928 <__bss_end__+0x23c7e8>
    2924:	00003001 	andeq	r3, r0, r1
    2928:	1a010400 	bne	43930 <__bss_end__+0x3d7f0>
    292c:	0d002302 	stceq	3, cr2, [r0, #-8]
    2930:	00000a92 	muleq	r0, r2, sl
    2934:	3001f009 	andcc	pc, r1, r9
    2938:	04000000 	streq	r0, [r0], #-0
    293c:	23021901 	movwcs	r1, #10497	; 0x2901
    2940:	19390d00 	ldmdbne	r9!, {r8, sl, fp}
    2944:	f1090000 			; <UNDEFINED> instruction: 0xf1090000
    2948:	00003001 	andeq	r3, r0, r1
    294c:	18010400 	stmdane	r1, {sl}
    2950:	0d002302 	stceq	3, cr2, [r0, #-8]
    2954:	00000a98 	muleq	r0, r8, sl
    2958:	3001f409 	andcc	pc, r1, r9, lsl #8
    295c:	04000000 	streq	r0, [r0], #-0
    2960:	23021701 	movwcs	r1, #9985	; 0x2701
    2964:	19150d00 	ldmdbne	r5, {r8, sl, fp}
    2968:	f5090000 			; <UNDEFINED> instruction: 0xf5090000
    296c:	00003001 	andeq	r3, r0, r1
    2970:	16010400 	strne	r0, [r1], -r0, lsl #8
    2974:	0d002302 	stceq	3, cr2, [r0, #-8]
    2978:	00001c44 	andeq	r1, r0, r4, asr #24
    297c:	3001fa09 	andcc	pc, r1, r9, lsl #20
    2980:	04000000 	streq	r0, [r0], #-0
    2984:	23021501 	movwcs	r1, #9473	; 0x2501
    2988:	12260d00 	eorne	r0, r6, #0, 26
    298c:	00090000 	andeq	r0, r9, r0
    2990:	00003002 	andeq	r3, r0, r2
    2994:	14010400 	strne	r0, [r1], #-1024	; 0xfffffc00
    2998:	0d002302 	stceq	3, cr2, [r0, #-8]
    299c:	00001825 	andeq	r1, r0, r5, lsr #16
    29a0:	30020409 	andcc	r0, r2, r9, lsl #8
    29a4:	04000000 	streq	r0, [r0], #-0
    29a8:	23021301 	movwcs	r1, #8961	; 0x2301
    29ac:	0adf0d00 	beq	ff7c5db4 <__bss_end__+0xff7bfc74>
    29b0:	08090000 	stmdaeq	r9, {}	; <UNPREDICTABLE>
    29b4:	00003002 	andeq	r3, r0, r2
    29b8:	12010400 	andne	r0, r1, #0, 8
    29bc:	0d002302 	stceq	3, cr2, [r0, #-8]
    29c0:	00000a9e 	muleq	r0, lr, sl
    29c4:	30020c09 	andcc	r0, r2, r9, lsl #24
    29c8:	04000000 	streq	r0, [r0], #-0
    29cc:	2302040e 	movwcs	r0, #9230	; 0x240e
    29d0:	10da0d00 	sbcsne	r0, sl, r0, lsl #26
    29d4:	0d090000 	stceq	0, cr0, [r9, #-0]
    29d8:	00003002 	andeq	r3, r0, r2
    29dc:	03010400 	movweq	r0, #5120	; 0x1400
    29e0:	0d002302 	stceq	3, cr2, [r0, #-8]
    29e4:	00001745 	andeq	r1, r0, r5, asr #14
    29e8:	30021409 	andcc	r1, r2, r9, lsl #8
    29ec:	04000000 	streq	r0, [r0], #-0
    29f0:	23020201 	movwcs	r0, #8705	; 0x2201
    29f4:	03440d00 	movteq	r0, #19712	; 0x4d00
    29f8:	19090000 	stmdbne	r9, {}	; <UNPREDICTABLE>
    29fc:	00003002 	andeq	r3, r0, r2
    2a00:	01010400 	tsteq	r1, r0, lsl #8
    2a04:	0d002302 	stceq	3, cr2, [r0, #-8]
    2a08:	0000025f 	andeq	r0, r0, pc, asr r2
    2a0c:	30021e09 	andcc	r1, r2, r9, lsl #28
    2a10:	04000000 	streq	r0, [r0], #-0
    2a14:	23020001 	movwcs	r0, #8193	; 0x2001
    2a18:	04060000 	streq	r0, [r6], #-0
    2a1c:	8601d109 	strhi	sp, [r1], -r9, lsl #2
    2a20:	07000028 	streq	r0, [r0, -r8, lsr #32]
    2a24:	d3090055 	movwle	r0, #36949	; 0x9055
    2a28:	00002501 	andeq	r2, r0, r1, lsl #10
    2a2c:	00420700 	subeq	r0, r2, r0, lsl #14
    2a30:	08022309 	stmdaeq	r2, {r0, r3, r8, r9, sp}
    2a34:	00000027 	andeq	r0, r0, r7, lsr #32
    2a38:	00064a08 	andeq	r4, r6, r8, lsl #20
    2a3c:	02240900 	eoreq	r0, r4, #0, 18
    2a40:	00002868 	andeq	r2, r0, r8, ror #16
    2a44:	ed090404 	cfstrs	mvf0, [r9, #-16]
    2a48:	00293e02 	eoreq	r3, r9, r2, lsl #28
    2a4c:	0a8c0d00 	beq	fe305e54 <__bss_end__+0xfe2ffd14>
    2a50:	ef090000 	svc	0x00090000
    2a54:	00003002 	andeq	r3, r0, r2
    2a58:	1d030400 	cfstrsne	mvf0, [r3, #-0]
    2a5c:	0d002302 	stceq	3, cr2, [r0, #-8]
    2a60:	00001b62 	andeq	r1, r0, r2, ror #22
    2a64:	3002f009 	andcc	pc, r2, r9
    2a68:	04000000 	streq	r0, [r0], #-0
    2a6c:	23021c01 	movwcs	r1, #11265	; 0x2c01
    2a70:	0a920d00 	beq	fe485e78 <__bss_end__+0xfe47fd38>
    2a74:	f4090000 	vst4.8	{d0-d3}, [r9], r0
    2a78:	00003002 	andeq	r3, r0, r2
    2a7c:	1a020400 	bne	83a84 <__bss_end__+0x7d944>
    2a80:	0d002302 	stceq	3, cr2, [r0, #-8]
    2a84:	00000c11 	andeq	r0, r0, r1, lsl ip
    2a88:	3002f509 	andcc	pc, r2, r9, lsl #10
    2a8c:	04000000 	streq	r0, [r0], #-0
    2a90:	23021901 	movwcs	r1, #10497	; 0x2901
    2a94:	0a980d00 	beq	fe605e9c <__bss_end__+0xfe5ffd5c>
    2a98:	f8090000 			; <UNDEFINED> instruction: 0xf8090000
    2a9c:	00003002 	andeq	r3, r0, r2
    2aa0:	18010400 	stmdane	r1, {sl}
    2aa4:	0d002302 	stceq	3, cr2, [r0, #-8]
    2aa8:	0000066c 	andeq	r0, r0, ip, ror #12
    2aac:	3002f909 	andcc	pc, r2, r9, lsl #18
    2ab0:	04000000 	streq	r0, [r0], #-0
    2ab4:	23021701 	movwcs	r1, #9985	; 0x2701
    2ab8:	0a9e0d00 	beq	fe785ec0 <__bss_end__+0xfe77fd80>
    2abc:	fe090000 	cdp2	0, 0, cr0, cr9, cr0, {0}
    2ac0:	00003002 	andeq	r3, r0, r2
    2ac4:	16010400 	strne	r0, [r1], -r0, lsl #8
    2ac8:	0d002302 	stceq	3, cr2, [r0, #-8]
    2acc:	000014fc 	strdeq	r1, [r0], -ip
    2ad0:	3002ff09 	andcc	pc, r2, r9, lsl #30
    2ad4:	04000000 	streq	r0, [r0], #-0
    2ad8:	23021501 	movwcs	r1, #9473	; 0x2501
    2adc:	0aa40d00 	beq	fe905ee4 <__bss_end__+0xfe8ffda4>
    2ae0:	02090000 	andeq	r0, r9, #0
    2ae4:	00003003 	andeq	r3, r0, r3
    2ae8:	00150400 	andseq	r0, r5, r0, lsl #8
    2aec:	00002302 	andeq	r2, r0, r2, lsl #6
    2af0:	ea090406 	b	243b10 <__bss_end__+0x23d9d0>
    2af4:	00295c02 	eoreq	r5, r9, r2, lsl #24
    2af8:	00550700 	subseq	r0, r5, r0, lsl #14
    2afc:	2502ec09 	strcs	lr, [r2, #-3081]	; 0xfffff3f7
    2b00:	07000000 	streq	r0, [r0, -r0]
    2b04:	03090042 	movweq	r0, #36930	; 0x9042
    2b08:	00289203 	eoreq	r9, r8, r3, lsl #4
    2b0c:	2b080000 	blcs	202b14 <__bss_end__+0x1fc9d4>
    2b10:	09000015 	stmdbeq	r0, {r0, r2, r4}
    2b14:	293e0304 	ldmdbcs	lr!, {r2, r8, r9}
    2b18:	04090000 	streq	r0, [r9], #-0
    2b1c:	2ac5e30a 	bcs	ff17b74c <__bss_end__+0xff17560c>
    2b20:	890a0000 	stmdbhi	sl, {}	; <UNPREDICTABLE>
    2b24:	0a000010 	beq	2b6c <hw_dram_Init_ddr_mt46v32m16_6t_96MHz+0x12c>
    2b28:	000030e5 	andeq	r3, r0, r5, ror #1
    2b2c:	1f010400 	svcne	0x00010400
    2b30:	0a002302 	beq	b740 <__bss_end__+0x5600>
    2b34:	00001c96 	muleq	r0, r6, ip
    2b38:	0030e60a 	eorseq	lr, r0, sl, lsl #12
    2b3c:	01040000 	mrseq	r0, (UNDEF: 4)
    2b40:	0023021e 	eoreq	r0, r3, lr, lsl r2
    2b44:	000df30a 	andeq	pc, sp, sl, lsl #6
    2b48:	30e70a00 	rsccc	r0, r7, r0, lsl #20
    2b4c:	04000000 	streq	r0, [r0], #-0
    2b50:	23021d01 	movwcs	r1, #11521	; 0x2d01
    2b54:	16350a00 	ldrtne	r0, [r5], -r0, lsl #20
    2b58:	e80a0000 	stmda	sl, {}	; <UNPREDICTABLE>
    2b5c:	00000030 	andeq	r0, r0, r0, lsr r0
    2b60:	021c0104 	andseq	r0, ip, #4, 2
    2b64:	e00a0023 	and	r0, sl, r3, lsr #32
    2b68:	0a000004 	beq	2b80 <hw_dram_Init_ddr_mt46v32m16_6t_96MHz+0x140>
    2b6c:	000030e9 	andeq	r3, r0, r9, ror #1
    2b70:	1b010400 	blne	43b78 <__bss_end__+0x3da38>
    2b74:	0a002302 	beq	b784 <__bss_end__+0x5644>
    2b78:	00000107 	andeq	r0, r0, r7, lsl #2
    2b7c:	0030ea0a 	eorseq	lr, r0, sl, lsl #20
    2b80:	01040000 	mrseq	r0, (UNDEF: 4)
    2b84:	0023021a 	eoreq	r0, r3, sl, lsl r2
    2b88:	0019270a 	andseq	r2, r9, sl, lsl #14
    2b8c:	30eb0a00 	rsccc	r0, fp, r0, lsl #20
    2b90:	04000000 	streq	r0, [r0], #-0
    2b94:	23021901 	movwcs	r1, #10497	; 0x2901
    2b98:	14180a00 	ldrne	r0, [r8], #-2560	; 0xfffff600
    2b9c:	ec0a0000 	stc	0, cr0, [sl], {-0}
    2ba0:	00000030 	andeq	r0, r0, r0, lsr r0
    2ba4:	02180104 	andseq	r0, r8, #4, 2
    2ba8:	290a0023 	stmdbcs	sl, {r0, r1, r5}
    2bac:	0a000001 	beq	2bb8 <hw_dram_Init_ddr_mt46v32m16_6t_96MHz+0x178>
    2bb0:	000030ed 	andeq	r3, r0, sp, ror #1
    2bb4:	17010400 	strne	r0, [r1, -r0, lsl #8]
    2bb8:	0a002302 	beq	b7c8 <__bss_end__+0x5688>
    2bbc:	00001448 	andeq	r1, r0, r8, asr #8
    2bc0:	0030ee0a 	eorseq	lr, r0, sl, lsl #28
    2bc4:	07040000 	streq	r0, [r4, -r0]
    2bc8:	00230210 	eoreq	r0, r3, r0, lsl r2
    2bcc:	00160a0a 	andseq	r0, r6, sl, lsl #20
    2bd0:	30ef0a00 	rsccc	r0, pc, r0, lsl #20
    2bd4:	04000000 	streq	r0, [r0], #-0
    2bd8:	23020f01 	movwcs	r0, #12033	; 0x2f01
    2bdc:	03730a00 	cmneq	r3, #0, 20
    2be0:	f00a0000 			; <UNDEFINED> instruction: 0xf00a0000
    2be4:	00000030 	andeq	r0, r0, r0, lsr r0
    2be8:	020e0104 	andeq	r0, lr, #4, 2
    2bec:	c10a0023 	tstgt	sl, r3, lsr #32
    2bf0:	0a000001 	beq	2bfc <hw_dram_Init_ddr_mt46v32m16_6t_96MHz+0x1bc>
    2bf4:	000030f1 	strdeq	r3, [r0], -r1
    2bf8:	0d010400 	cfstrseq	mvf0, [r1, #-0]
    2bfc:	0a002302 	beq	b80c <__bss_end__+0x56cc>
    2c00:	00000d34 	andeq	r0, r0, r4, lsr sp
    2c04:	0030f20a 	eorseq	pc, r0, sl, lsl #4
    2c08:	01040000 	mrseq	r0, (UNDEF: 4)
    2c0c:	0023020c 	eoreq	r0, r3, ip, lsl #4
    2c10:	00043f0a 	andeq	r3, r4, sl, lsl #30
    2c14:	30f30a00 	rscscc	r0, r3, r0, lsl #20
    2c18:	04000000 	streq	r0, [r0], #-0
    2c1c:	23020b01 	movwcs	r0, #11009	; 0x2b01
    2c20:	077a0a00 	ldrbeq	r0, [sl, -r0, lsl #20]!
    2c24:	f40a0000 	vst4.8	{d0-d3}, [sl], r0
    2c28:	00000030 	andeq	r0, r0, r0, lsr r0
    2c2c:	020a0104 	andeq	r0, sl, #4, 2
    2c30:	6c0a0023 	stcvs	0, cr0, [sl], {35}	; 0x23
    2c34:	0a00001a 	beq	2ca4 <hw_dram_Init_ddr_mt46v32m16_6t_96MHz+0x264>
    2c38:	000030f5 	strdeq	r3, [r0], -r5
    2c3c:	09010400 	stmdbeq	r1, {sl}
    2c40:	0a002302 	beq	b850 <__bss_end__+0x5710>
    2c44:	00000f12 	andeq	r0, r0, r2, lsl pc
    2c48:	0030f60a 	eorseq	pc, r0, sl, lsl #12
    2c4c:	01040000 	mrseq	r0, (UNDEF: 4)
    2c50:	00230208 	eoreq	r0, r3, r8, lsl #4
    2c54:	000bfd0a 	andeq	pc, fp, sl, lsl #26
    2c58:	30f70a00 	rscscc	r0, r7, r0, lsl #20
    2c5c:	04000000 	streq	r0, [r0], #-0
    2c60:	23020701 	movwcs	r0, #9985	; 0x2701
    2c64:	144f0a00 	strbne	r0, [pc], #-2560	; 2c6c <hw_dram_Init_ddr_mt46v32m16_6t_96MHz+0x22c>
    2c68:	f80a0000 			; <UNDEFINED> instruction: 0xf80a0000
    2c6c:	00000030 	andeq	r0, r0, r0, lsr r0
    2c70:	02000704 	andeq	r0, r0, #4, 14	; 0x100000
    2c74:	0b000023 	bleq	2d08 <hw_dram_Init_ddr_mt46v32m16_6t_96MHz+0x2c8>
    2c78:	e0e00a04 	rsc	r0, r0, r4, lsl #20
    2c7c:	0c00002a 	stceq	0, cr0, [r0], {42}	; 0x2a
    2c80:	e20a0055 	and	r0, sl, #85	; 0x55
    2c84:	00000025 	andeq	r0, r0, r5, lsr #32
    2c88:	0a00420c 	beq	134c0 <__bss_end__+0xd380>
    2c8c:	002968f9 	strdeq	r6, [r9], -r9	; <UNPREDICTABLE>
    2c90:	66020000 	strvs	r0, [r2], -r0
    2c94:	0a000002 	beq	2ca4 <hw_dram_Init_ddr_mt46v32m16_6t_96MHz+0x264>
    2c98:	002ac5fa 	strdeq	ip, [sl], -sl	; <UNPREDICTABLE>
    2c9c:	119c0200 	orrsne	r0, ip, r0, lsl #4
    2ca0:	d50b0000 	strle	r0, [fp, #-0]
    2ca4:	00002af6 	strdeq	r2, [r0], -r6
    2ca8:	69050411 	stmdbvs	r5, {r0, r4, sl}
    2cac:	0200746e 	andeq	r7, r0, #1845493760	; 0x6e000000
    2cb0:	0000115b 	andeq	r1, r0, fp, asr r1
    2cb4:	0030d60b 	eorseq	sp, r0, fp, lsl #12
    2cb8:	6b120000 	blvs	482cc0 <__bss_end__+0x47cb80>
    2cbc:	0400000d 	streq	r0, [r0], #-13
    2cc0:	2b41d80b 	blcs	1078cf4 <__bss_end__+0x1072bb4>
    2cc4:	ae130000 	cdpge	0, 1, cr0, cr3, cr0, {0}
    2cc8:	80000007 	andhi	r0, r0, r7
    2ccc:	0fe51301 	svceq	0x00e51301
    2cd0:	00c00000 	sbceq	r0, r0, r0
    2cd4:	0011df13 	andseq	sp, r1, r3, lsl pc
    2cd8:	18132000 	ldmdane	r3, {sp}
    2cdc:	1000000e 	andne	r0, r0, lr
    2ce0:	00196c13 	andseq	r6, r9, r3, lsl ip
    2ce4:	00130800 	andseq	r0, r3, r0, lsl #16
    2ce8:	02000013 	andeq	r0, r0, #19
    2cec:	00015013 	andeq	r5, r1, r3, lsl r0
    2cf0:	02000100 	andeq	r0, r0, #0, 2
    2cf4:	00000d6c 	andeq	r0, r0, ip, ror #26
    2cf8:	2b08e80b 	blcs	23cd2c <__bss_end__+0x236bec>
    2cfc:	04140000 	ldreq	r0, [r4], #-0
    2d00:	2b96eb0b 	blcs	fe5bd934 <__bss_end__+0xfe5b77f4>
    2d04:	08130000 	ldmdaeq	r3, {}	; <UNPREDICTABLE>
    2d08:	0000000d 	andeq	r0, r0, sp
    2d0c:	00130b13 	andseq	r0, r3, r3, lsl fp
    2d10:	31130600 	tstcc	r3, r0, lsl #12
    2d14:	18000002 	stmdane	r0, {r1}
    2d18:	00040013 	andeq	r0, r4, r3, lsl r0
    2d1c:	d5133000 	ldrle	r3, [r3, #-0]
    2d20:	3c000015 	stccc	0, cr0, [r0], {21}
    2d24:	00097f13 	andeq	r7, r9, r3, lsl pc
    2d28:	1300e000 	movwne	lr, #0
    2d2c:	00000703 	andeq	r0, r0, r3, lsl #14
    2d30:	381300f8 	ldmdacc	r3, {r3, r4, r5, r6, r7}
    2d34:	85000011 	strhi	r0, [r0, #-17]	; 0xffffffef
    2d38:	0d5c1301 	ldcleq	3, cr1, [ip, #-4]
    2d3c:	01970000 	orrseq	r0, r7, r0
    2d40:	00140213 	andseq	r0, r4, r3, lsl r2
    2d44:	0001a000 	andeq	sl, r1, r0
    2d48:	00015c02 	andeq	r5, r1, r2, lsl #24
    2d4c:	4cf60b00 	vldmiami	r6!, {d16-d15}
    2d50:	1200002b 	andne	r0, r0, #43	; 0x2b
    2d54:	00000909 	andeq	r0, r0, r9, lsl #18
    2d58:	ccf80b04 	vldmiagt	r8!, {d16-d17}
    2d5c:	1300002b 	movwne	r0, #43	; 0x2b
    2d60:	00000ccd 	andeq	r0, r0, sp, asr #25
    2d64:	08f41300 	ldmeq	r4!, {r8, r9, ip}^
    2d68:	13010000 	movwne	r0, #4096	; 0x1000
    2d6c:	0000153e 	andeq	r1, r0, lr, lsr r5
    2d70:	1b341302 	blne	d07980 <__bss_end__+0xd01840>
    2d74:	13030000 	movwne	r0, #12288	; 0x3000
    2d78:	000006f6 	strdeq	r0, [r0], -r6
    2d7c:	0a080004 	beq	202d94 <__bss_end__+0x1fcc54>
    2d80:	0b000009 	bleq	2dac <hw_dram_Init_ddr_mt46v32m16_6t_133MHz_optimized+0x6c>
    2d84:	2ba10105 	blcs	fe8431a0 <__bss_end__+0xfe83d060>
    2d88:	04150000 	ldreq	r0, [r5], #-0
    2d8c:	ee01080b 	cdp	8, 0, cr0, cr1, cr11, {0}
    2d90:	1300002b 	movwne	r0, #43	; 0x2b
    2d94:	000004eb 	andeq	r0, r0, fp, ror #9
    2d98:	13b61300 			; <UNDEFINED> instruction: 0x13b61300
    2d9c:	00010000 	andeq	r0, r1, r0
    2da0:	00035f08 	andeq	r5, r3, r8, lsl #30
    2da4:	010b0b00 	tsteq	fp, r0, lsl #22
    2da8:	00002bd8 	ldrdeq	r2, [r0], -r8
    2dac:	0e0b0415 	cfmvdlreq	mvd11, r0
    2db0:	002c1c01 	eoreq	r1, ip, r1, lsl #24
    2db4:	0e9e1300 	cdpeq	3, 9, cr1, cr14, cr0, {0}
    2db8:	13000000 	movwne	r0, #0
    2dbc:	000010bf 	strheq	r1, [r0], -pc	; <UNPREDICTABLE>
    2dc0:	0fd61301 	svceq	0x00d61301
    2dc4:	13020000 	movwne	r0, #8192	; 0x2000
    2dc8:	00000afd 	strdeq	r0, [r0], -sp
    2dcc:	22080003 	andcs	r0, r8, #3
    2dd0:	0b00000c 	bleq	2e08 <hw_dram_Init_ddr_mt46v32m16_6t_133MHz_optimized+0xc8>
    2dd4:	2bfa0113 	blcs	ffe83228 <__bss_end__+0xffe7d0e8>
    2dd8:	84160000 	ldrhi	r0, [r6], #-0
    2ddc:	3c00000e 	stccc	0, cr0, [r0], {14}
    2de0:	1701150b 	strne	r1, [r1, -fp, lsl #10]
    2de4:	0500002d 	streq	r0, [r0, #-45]	; 0xffffffd3
    2de8:	00000584 	andeq	r0, r0, r4, lsl #11
    2dec:	3001170b 	andcc	r1, r1, fp, lsl #14
    2df0:	02000000 	andeq	r0, r0, #0
    2df4:	76050023 	strvc	r0, [r5], -r3, lsr #32
    2df8:	0b000005 	bleq	2e14 <hw_dram_Init_ddr_mt46v32m16_6t_133MHz_optimized+0xd4>
    2dfc:	00300118 	eorseq	r0, r0, r8, lsl r1
    2e00:	23020000 	movwcs	r0, #8192	; 0x2000
    2e04:	01ad0504 			; <UNDEFINED> instruction: 0x01ad0504
    2e08:	190b0000 	stmdbne	fp, {}	; <UNPREDICTABLE>
    2e0c:	00003001 	andeq	r3, r0, r1
    2e10:	08230200 	stmdaeq	r3!, {r9}
    2e14:	0001b705 	andeq	fp, r1, r5, lsl #14
    2e18:	011a0b00 	tsteq	sl, r0, lsl #22
    2e1c:	00000030 	andeq	r0, r0, r0, lsr r0
    2e20:	050c2302 	streq	r2, [ip, #-770]	; 0xfffffcfe
    2e24:	000001cf 	andeq	r0, r0, pc, asr #3
    2e28:	30011b0b 	andcc	r1, r1, fp, lsl #22
    2e2c:	02000000 	andeq	r0, r0, #0
    2e30:	3b051023 	blcc	146ec4 <__bss_end__+0x140d84>
    2e34:	0b000018 	bleq	2e9c <hw_dram_Init_mobile_ddr_mt46h32m16lf_5_regs_3_133MHz+0x8>
    2e38:	0030011c 	eorseq	r0, r0, ip, lsl r1
    2e3c:	23020000 	movwcs	r0, #8192	; 0x2000
    2e40:	01df0514 	bicseq	r0, pc, r4, lsl r5	; <UNPREDICTABLE>
    2e44:	1d0b0000 	stcne	0, cr0, [fp, #-0]
    2e48:	00003001 	andeq	r3, r0, r1
    2e4c:	18230200 	stmdane	r3!, {r9}
    2e50:	000be805 	andeq	lr, fp, r5, lsl #16
    2e54:	011e0b00 	tsteq	lr, r0, lsl #22
    2e58:	00000030 	andeq	r0, r0, r0, lsr r0
    2e5c:	051c2302 	ldreq	r2, [ip, #-770]	; 0xfffffcfe
    2e60:	000002cf 	andeq	r0, r0, pc, asr #5
    2e64:	30011f0b 	andcc	r1, r1, fp, lsl #30
    2e68:	02000000 	andeq	r0, r0, #0
    2e6c:	d9052023 	stmdble	r5, {r0, r1, r5, sp}
    2e70:	0b000002 	bleq	2e80 <hw_dram_Init_ddr_mt46v32m16_6t_133MHz_optimized+0x140>
    2e74:	00300120 	eorseq	r0, r0, r0, lsr #2
    2e78:	23020000 	movwcs	r0, #8192	; 0x2000
    2e7c:	02f60524 	rscseq	r0, r6, #36, 10	; 0x9000000
    2e80:	210b0000 	mrscs	r0, (UNDEF: 11)
    2e84:	00003001 	andeq	r3, r0, r1
    2e88:	28230200 	stmdacs	r3!, {r9}
    2e8c:	00039e05 	andeq	r9, r3, r5, lsl #28
    2e90:	01220b00 	teqeq	r2, r0, lsl #22
    2e94:	00000030 	andeq	r0, r0, r0, lsr r0
    2e98:	052c2302 	streq	r2, [ip, #-770]!	; 0xfffffcfe
    2e9c:	000003a8 	andeq	r0, r0, r8, lsr #7
    2ea0:	3001230b 	andcc	r2, r1, fp, lsl #6
    2ea4:	02000000 	andeq	r0, r0, #0
    2ea8:	ca053023 	bgt	14ef3c <__bss_end__+0x148dfc>
    2eac:	0b00001b 	bleq	2f20 <hw_dram_Init_mobile_ddr_mt46h32m16lf_5_regs_3_133MHz+0x8c>
    2eb0:	00300124 	eorseq	r0, r0, r4, lsr #2
    2eb4:	23020000 	movwcs	r0, #8192	; 0x2000
    2eb8:	04940534 	ldreq	r0, [r4], #1332	; 0x534
    2ebc:	250b0000 	strcs	r0, [fp, #-0]
    2ec0:	00003001 	andeq	r3, r0, r1
    2ec4:	38230200 	stmdacc	r3!, {r9}
    2ec8:	15a30800 	strne	r0, [r3, #2048]!	; 0x800
    2ecc:	260b0000 	strcs	r0, [fp], -r0
    2ed0:	002c2801 	eoreq	r2, ip, r1, lsl #16
    2ed4:	0b041500 	bleq	1082dc <__bss_end__+0x10219c>
    2ed8:	2d450129 	stfcse	f0, [r5, #-164]	; 0xffffff5c
    2edc:	43170000 	tstmi	r7, #0
    2ee0:	01003045 	tsteq	r0, r5, asr #32
    2ee4:	31454317 	cmpcc	r5, r7, lsl r3
    2ee8:	43170200 	tstmi	r7, #0, 4
    2eec:	04003245 	streq	r3, [r0], #-581	; 0xfffffdbb
    2ef0:	33454317 	movtcc	r4, #21271	; 0x5317
    2ef4:	08000800 	stmdaeq	r0, {fp}
    2ef8:	000017c9 	andeq	r1, r0, r9, asr #15
    2efc:	2301300b 	movwcs	r3, #4107	; 0x100b
    2f00:	1500002d 	strne	r0, [r0, #-45]	; 0xffffffd3
    2f04:	01330b04 	teqeq	r3, r4, lsl #22
    2f08:	00002d95 	muleq	r0, r5, sp
    2f0c:	000fbd13 	andeq	fp, pc, r3, lsl sp	; <UNPREDICTABLE>
    2f10:	cf130200 	svcgt	0x00130200
    2f14:	04000018 	streq	r0, [r0], #-24	; 0xffffffe8
    2f18:	00147213 	andseq	r7, r4, r3, lsl r2
    2f1c:	d1130800 	tstle	r3, r0, lsl #16
    2f20:	10000000 	andne	r0, r0, r0
    2f24:	000f2e13 	andeq	r2, pc, r3, lsl lr	; <UNPREDICTABLE>
    2f28:	39132000 	ldmdbcc	r3, {sp}
    2f2c:	c000000e 	andgt	r0, r0, lr
    2f30:	1ae71300 	bne	ff9c7b38 <__bss_end__+0xff9c19f8>
    2f34:	01800000 	orreq	r0, r0, r0
    2f38:	00114713 	andseq	r4, r1, r3, lsl r7
    2f3c:	13028000 	movwne	r8, #8192	; 0x2000
    2f40:	0000109c 	muleq	r0, ip, r0
    2f44:	08000480 	stmdaeq	r0, {r7, sl}
    2f48:	00001955 	andeq	r1, r0, r5, asr r9
    2f4c:	51013e0b 	tstpl	r1, fp, lsl #28
    2f50:	1800002d 	stmdane	r0, {r0, r2, r3, r5}
    2f54:	000016ba 			; <UNDEFINED> instruction: 0x000016ba
    2f58:	01570b04 	cmpeq	r7, r4, lsl #22
    2f5c:	00002dc1 	andeq	r2, r0, r1, asr #27
    2f60:	00170d13 	andseq	r0, r7, r3, lsl sp
    2f64:	8e130000 	cdphi	0, 1, cr0, cr3, cr0, {0}
    2f68:	01000017 	tsteq	r0, r7, lsl r0
    2f6c:	0001f513 	andeq	pc, r1, r3, lsl r5	; <UNPREDICTABLE>
    2f70:	08000200 	stmdaeq	r0, {r9}
    2f74:	000016bb 			; <UNDEFINED> instruction: 0x000016bb
    2f78:	a1015f0b 	tstge	r1, fp, lsl #30
    2f7c:	1600002d 	strne	r0, [r0], -sp, lsr #32
    2f80:	00000ecd 	andeq	r0, r0, sp, asr #29
    2f84:	01620b58 	cmneq	r2, r8, asr fp
    2f88:	00002e53 	andeq	r2, r0, r3, asr lr
    2f8c:	0011c805 	andseq	ip, r1, r5, lsl #16
    2f90:	01640b00 	cmneq	r4, r0, lsl #22
    2f94:	00002b96 	muleq	r0, r6, fp
    2f98:	05002302 	streq	r2, [r0, #-770]	; 0xfffffcfe
    2f9c:	00000357 	andeq	r0, r0, r7, asr r3
    2fa0:	cc01650b 	cfstr32gt	mvfx6, [r1], {11}
    2fa4:	0200002b 	andeq	r0, r0, #43	; 0x2b
    2fa8:	8b050423 	blhi	14403c <__bss_end__+0x13defc>
    2fac:	0b00000e 	bleq	2fec <hw_dram_Init_mobile_ddr_mt46h32m16lf_5_regs_3_133MHz+0x158>
    2fb0:	2d170166 	ldfcss	f0, [r7, #-408]	; 0xfffffe68
    2fb4:	23020000 	movwcs	r0, #8192	; 0x2000
    2fb8:	14870508 	strne	r0, [r7], #1288	; 0x508
    2fbc:	670b0000 	strvs	r0, [fp, -r0]
    2fc0:	002aeb01 	eoreq	lr, sl, r1, lsl #22
    2fc4:	44230200 	strtmi	r0, [r3], #-512	; 0xfffffe00
    2fc8:	0008ad05 	andeq	sl, r8, r5, lsl #26
    2fcc:	01680b00 	cmneq	r8, r0, lsl #22
    2fd0:	00002aeb 	andeq	r2, r0, fp, ror #21
    2fd4:	05482302 	strbeq	r2, [r8, #-770]	; 0xfffffcfe
    2fd8:	000002a3 	andeq	r0, r0, r3, lsr #5
    2fdc:	eb01690b 	bl	5d410 <__bss_end__+0x572d0>
    2fe0:	0200002a 	andeq	r0, r0, #42	; 0x2a
    2fe4:	d1054c23 	tstle	r5, r3, lsr #24
    2fe8:	0b00000d 	bleq	3024 <hw_dram_Init_mobile_ddr_mt46h32m16lf_5_regs_3_133MHz+0x190>
    2fec:	2aeb016a 	bcs	ffac359c <__bss_end__+0xffabd45c>
    2ff0:	23020000 	movwcs	r0, #8192	; 0x2000
    2ff4:	0c540550 	cfldr64eq	mvdx0, [r4], {80}	; 0x50
    2ff8:	6b0b0000 	blvs	2c3000 <__bss_end__+0x2bcec0>
    2ffc:	002aeb01 	eoreq	lr, sl, r1, lsl #22
    3000:	54230200 	strtpl	r0, [r3], #-512	; 0xfffffe00
    3004:	12980800 	addsne	r0, r8, #0, 16
    3008:	6c0b0000 	stcvs	0, cr0, [fp], {-0}
    300c:	002dcd01 	eoreq	ip, sp, r1, lsl #26
    3010:	8b011900 	blhi	49418 <__bss_end__+0x432d8>
    3014:	01000019 	tsteq	r0, r9, lsl r0
    3018:	2aeb0151 	bcs	ffac3564 <__bss_end__+0xffabd424>
    301c:	12580000 	subsne	r0, r8, #0
    3020:	12880000 	addne	r0, r8, #0
    3024:	00580000 	subseq	r0, r8, r0
    3028:	011a0000 	tsteq	sl, r0
    302c:	00001588 	andeq	r1, r0, r8, lsl #11
    3030:	12885d01 	addne	r5, r8, #1, 26	; 0x40
    3034:	129c0000 	addsne	r0, ip, #0
    3038:	00840000 	addeq	r0, r4, r0
    303c:	01190000 	tsteq	r9, r0
    3040:	0000086b 	andeq	r0, r0, fp, ror #16
    3044:	eb016801 	bl	5d050 <__bss_end__+0x56f10>
    3048:	9c00002a 	stcls	0, cr0, [r0], {42}	; 0x2a
    304c:	d8000012 	stmdale	r0, {r1, r4}
    3050:	b0000012 	andlt	r0, r0, r2, lsl r0
    3054:	1b000000 	blne	305c <hw_dram_Init_mobile_ddr_mt46h32m16lf_5_regs_3_133MHz+0x1c8>
    3058:	00138f01 	andseq	r8, r3, r1, lsl #30
    305c:	01770100 	cmneq	r7, r0, lsl #2
    3060:	000012d8 	ldrdeq	r1, [r0], -r8
    3064:	00001308 	andeq	r1, r0, r8, lsl #6
    3068:	000000dc 	ldrdeq	r0, [r0], -ip
    306c:	16ee011c 	usatne	r0, #14, ip, lsl #2
    3070:	8f010000 	svchi	0x00010000
    3074:	002af601 	eoreq	pc, sl, r1, lsl #12
    3078:	00130800 	andseq	r0, r3, r0, lsl #16
    307c:	00139c00 	andseq	r9, r3, r0, lsl #24
    3080:	00010800 	andeq	r0, r1, r0, lsl #16
    3084:	002ee600 	eoreq	lr, lr, r0, lsl #12
    3088:	1aa51d00 	bne	fe94a490 <__bss_end__+0xfe944350>
    308c:	8f010000 	svchi	0x00010000
    3090:	00000030 	andeq	r0, r0, r0, lsr r0
    3094:	00749102 	rsbseq	r9, r4, r2, lsl #2
    3098:	053a011e 	ldreq	r0, [sl, #-286]!	; 0xfffffee2
    309c:	bb010000 	bllt	430a4 <__bss_end__+0x3cf64>
    30a0:	00139c01 	andseq	r9, r3, r1, lsl #24
    30a4:	00140c00 	andseq	r0, r4, r0, lsl #24
    30a8:	00013400 	andeq	r3, r1, r0, lsl #8
    30ac:	002f0e00 	eoreq	r0, pc, r0, lsl #28
    30b0:	0b701d00 	bleq	1c0a4b8 <__bss_end__+0x1c04378>
    30b4:	bb010000 	bllt	430bc <__bss_end__+0x3cf7c>
    30b8:	00002aeb 	andeq	r2, r0, fp, ror #21
    30bc:	00749102 	rsbseq	r9, r4, r2, lsl #2
    30c0:	0632011c 			; <UNDEFINED> instruction: 0x0632011c
    30c4:	db010000 	blle	430cc <__bss_end__+0x3cf8c>
    30c8:	002af601 	eoreq	pc, sl, r1, lsl #12
    30cc:	00140c00 	andseq	r0, r4, r0, lsl #24
    30d0:	0015f000 	andseq	pc, r5, r0
    30d4:	00016000 	andeq	r6, r1, r0
    30d8:	002f4800 	eoreq	r4, pc, r0, lsl #16
    30dc:	05351d00 	ldreq	r1, [r5, #-3328]!	; 0xfffff300
    30e0:	db010000 	blle	430e8 <__bss_end__+0x3cfa8>
    30e4:	00002b41 	andeq	r2, r0, r1, asr #22
    30e8:	1d749102 	ldfnep	f1, [r4, #-8]!
    30ec:	0000065b 	andeq	r0, r0, fp, asr r6
    30f0:	2aebdb01 	bcs	ffaf9cfc <__bss_end__+0xffaf3bbc>
    30f4:	91020000 	mrsls	r0, (UNDEF: 2)
    30f8:	041f0070 	ldreq	r0, [pc], #-112	; 3100 <hw_dram_Init_mobile_ddr_mt46h32m16lf_5_regs_3_133MHz+0x26c>
    30fc:	0100001c 	tsteq	r0, ip, lsl r0
    3100:	f0010149 			; <UNDEFINED> instruction: 0xf0010149
    3104:	34000015 	strcc	r0, [r0], #-21	; 0xffffffeb
    3108:	8c000017 	stchi	0, cr0, [r0], {23}
    310c:	20000001 	andcs	r0, r0, r1
    3110:	0014c701 	andseq	ip, r4, r1, lsl #14
    3114:	01660100 	cmneq	r6, r0, lsl #2
    3118:	00173401 	andseq	r3, r7, r1, lsl #8
    311c:	00176000 	andseq	r6, r7, r0
    3120:	0001b800 	andeq	fp, r1, r0, lsl #16
    3124:	a9012100 	stmdbge	r1, {r8, sp}
    3128:	01000017 	tsteq	r0, r7, lsl r0
    312c:	60010174 	andvs	r0, r1, r4, ror r1
    3130:	b8000017 	stmdalt	r0, {r0, r1, r2, r4}
    3134:	e4000017 	str	r0, [r0], #-23	; 0xffffffe9
    3138:	9d000001 	stcls	0, cr0, [r0, #-4]
    313c:	2200002f 	andcs	r0, r0, #47	; 0x2f
    3140:	00001328 	andeq	r1, r0, r8, lsr #6
    3144:	eb017401 	bl	60150 <__bss_end__+0x5a010>
    3148:	0200002a 	andeq	r0, r0, #42	; 0x2a
    314c:	21007491 			; <UNDEFINED> instruction: 0x21007491
    3150:	000bb801 	andeq	fp, fp, r1, lsl #16
    3154:	018a0100 	orreq	r0, sl, r0, lsl #2
    3158:	0017b801 	andseq	fp, r7, r1, lsl #16
    315c:	00183800 	andseq	r3, r8, r0, lsl #16
    3160:	00021000 	andeq	r1, r2, r0
    3164:	002fc700 	eoreq	ip, pc, r0, lsl #14
    3168:	0e472200 	cdpeq	2, 4, cr2, cr7, cr0, {0}
    316c:	8a010000 	bhi	43174 <__bss_end__+0x3d034>
    3170:	002aeb01 	eoreq	lr, sl, r1, lsl #22
    3174:	74910200 	ldrvc	r0, [r1], #512	; 0x200
    3178:	c1012000 	mrsgt	r2, (UNDEF: 1)
    317c:	0100001a 	tsteq	r0, sl, lsl r0
    3180:	380101a3 	stmdacc	r1, {r0, r1, r5, r7, r8}
    3184:	64000018 	strvs	r0, [r0], #-24	; 0xffffffe8
    3188:	3c000018 	stccc	0, cr0, [r0], {24}
    318c:	20000002 	andcs	r0, r0, r2
    3190:	0009fc01 	andeq	pc, r9, r1, lsl #24
    3194:	01b30100 			; <UNDEFINED> instruction: 0x01b30100
    3198:	00186401 	andseq	r6, r8, r1, lsl #8
    319c:	00190400 	andseq	r0, r9, r0, lsl #8
    31a0:	00026800 	andeq	r6, r2, r0, lsl #16
    31a4:	42012100 	andmi	r2, r1, #0, 2
    31a8:	0100000d 	tsteq	r0, sp
    31ac:	040101c8 	streq	r0, [r1], #-456	; 0xfffffe38
    31b0:	40000019 	andmi	r0, r0, r9, lsl r0
    31b4:	94000019 	strls	r0, [r0], #-25	; 0xffffffe7
    31b8:	1d000002 	stcne	0, cr0, [r0, #-8]
    31bc:	22000030 	andcs	r0, r0, #48	; 0x30
    31c0:	000015cc 	andeq	r1, r0, ip, asr #11
    31c4:	eb01c801 	bl	751d0 <__bss_end__+0x6f090>
    31c8:	0200002a 	andeq	r0, r0, #42	; 0x2a
    31cc:	21007491 			; <UNDEFINED> instruction: 0x21007491
    31d0:	00189901 	andseq	r9, r8, r1, lsl #18
    31d4:	01e20100 	mvneq	r0, r0, lsl #2
    31d8:	00194001 	andseq	r4, r9, r1
    31dc:	00198400 	andseq	r8, r9, r0, lsl #8
    31e0:	0002c000 	andeq	ip, r2, r0
    31e4:	00305600 	eorseq	r5, r0, r0, lsl #12
    31e8:	06002200 	streq	r2, [r0], -r0, lsl #4
    31ec:	e2010000 	and	r0, r1, #0
    31f0:	00003001 	andeq	r3, r0, r1
    31f4:	6c910200 	lfmvs	f0, 4, [r1], {0}
    31f8:	0011fb23 	andseq	pc, r1, r3, lsr #22
    31fc:	01e40100 	mvneq	r0, r0, lsl #2
    3200:	00000030 	andeq	r0, r0, r0, lsr r0
    3204:	00749102 	rsbseq	r9, r4, r2, lsl #2
    3208:	19cf0121 	stmibne	pc, {r0, r5, r8}^	; <UNPREDICTABLE>
    320c:	fa010000 	blx	43214 <__bss_end__+0x3d0d4>
    3210:	19840101 	stmibne	r4, {r0, r8}
    3214:	1a340000 	bne	d0321c <__bss_end__+0xcfd0dc>
    3218:	02ec0000 	rsceq	r0, ip, #0
    321c:	30800000 	addcc	r0, r0, r0
    3220:	47220000 	strmi	r0, [r2, -r0]!
    3224:	0100000e 	tsteq	r0, lr
    3228:	2aeb01fa 	bcs	ffac3a18 <__bss_end__+0xffabd8d8>
    322c:	91020000 	mrsls	r0, (UNDEF: 2)
    3230:	01210074 	teqeq	r1, r4, ror r0
    3234:	0000137c 	andeq	r1, r0, ip, ror r3
    3238:	01021c01 	tsteq	r2, r1, lsl #24
    323c:	00001a34 	andeq	r1, r0, r4, lsr sl
    3240:	00001ae4 	andeq	r1, r0, r4, ror #21
    3244:	00000318 	andeq	r0, r0, r8, lsl r3
    3248:	000030aa 	andeq	r3, r0, sl, lsr #1
    324c:	000e4722 	andeq	r4, lr, r2, lsr #14
    3250:	021c0100 	andseq	r0, ip, #0, 2
    3254:	00002aeb 	andeq	r2, r0, fp, ror #21
    3258:	00749102 	rsbseq	r9, r4, r2, lsl #2
    325c:	1f790124 	svcne	0x00790124
    3260:	3b010000 	blcc	43268 <__bss_end__+0x3d128>
    3264:	002af602 	eoreq	pc, sl, r2, lsl #12
    3268:	001ae400 	andseq	lr, sl, r0, lsl #8
    326c:	001b3c00 	andseq	r3, fp, r0, lsl #24
    3270:	00034400 	andeq	r4, r3, r0, lsl #8
    3274:	00310400 	eorseq	r0, r1, r0, lsl #8
    3278:	0ac12300 	beq	ff04be80 <__bss_end__+0xff045d40>
    327c:	3d010000 	stccc	0, cr0, [r1, #-0]
    3280:	002af602 	eoreq	pc, sl, r2, lsl #12
    3284:	74910200 	ldrvc	r0, [r1], #512	; 0x200
    3288:	00032623 	andeq	r2, r3, r3, lsr #12
    328c:	023f0100 	eorseq	r0, pc, #0, 2
    3290:	00002bcc 	andeq	r2, r0, ip, asr #23
    3294:	23709102 	cmncs	r0, #-2147483648	; 0x80000000
    3298:	00000e4f 	andeq	r0, r0, pc, asr #28
    329c:	45024101 	strmi	r4, [r2, #-257]	; 0xfffffeff
    32a0:	0200002d 	andeq	r0, r0, #45	; 0x2d
    32a4:	91236c91 			; <UNDEFINED> instruction: 0x91236c91
    32a8:	0100001e 	tsteq	r0, lr, lsl r0
    32ac:	2d950243 	lfmcs	f0, 4, [r5, #268]	; 0x10c
    32b0:	91020000 	mrsls	r0, (UNDEF: 2)
    32b4:	01250068 	teqeq	r5, r8, rrx
    32b8:	000000af 	andeq	r0, r0, pc, lsr #1
    32bc:	01026b01 	tsteq	r2, r1, lsl #22
    32c0:	00002af6 	strdeq	r2, [r0], -r6
    32c4:	00001b3c 	andeq	r1, r0, ip, lsr fp
    32c8:	00002138 	andeq	r2, r0, r8, lsr r1
    32cc:	00000370 	andeq	r0, r0, r0, ror r3
    32d0:	000031a8 	andeq	r3, r0, r8, lsr #3
    32d4:	00035722 	andeq	r5, r3, r2, lsr #14
    32d8:	026b0100 	rsbeq	r0, fp, #0, 2
    32dc:	00002bcc 	andeq	r2, r0, ip, asr #23
    32e0:	225c9102 	subscs	r9, ip, #-2147483648	; 0x80000000
    32e4:	00000430 	andeq	r0, r0, r0, lsr r4
    32e8:	45026b01 	strmi	r6, [r2, #-2817]	; 0xfffff4ff
    32ec:	0200002d 	andeq	r0, r0, #45	; 0x2d
    32f0:	03225891 	teqeq	r2, #9502720	; 0x910000
    32f4:	01000011 	tsteq	r0, r1, lsl r0
    32f8:	2d95026b 	lfmcs	f0, 4, [r5, #428]	; 0x1ac
    32fc:	91020000 	mrsls	r0, (UNDEF: 2)
    3300:	74522654 	ldrbvc	r2, [r2], #-1620	; 0xfffff9ac
    3304:	6d01006e 	stcvs	0, cr0, [r1, #-440]	; 0xfffffe48
    3308:	002af602 	eoreq	pc, sl, r2, lsl #12
    330c:	68910200 	ldmvs	r1, {r9}
    3310:	00030023 	andeq	r0, r3, r3, lsr #32
    3314:	026e0100 	rsbeq	r0, lr, #0, 2
    3318:	00002aeb 	andeq	r2, r0, fp, ror #21
    331c:	236c9102 	cmncs	ip, #-2147483648	; 0x80000000
    3320:	00001a33 	andeq	r1, r0, r3, lsr sl
    3324:	30026f01 	andcc	r6, r2, r1, lsl #30
    3328:	02000000 	andeq	r0, r0, #0
    332c:	69266491 	stmdbvs	r6!, {r0, r4, r7, sl, sp, lr}
    3330:	02700100 	rsbseq	r0, r0, #0, 2
    3334:	00000054 	andeq	r0, r0, r4, asr r0
    3338:	23779102 	cmncs	r7, #-2147483648	; 0x80000000
    333c:	00001b53 	andeq	r1, r0, r3, asr fp
    3340:	54027001 	strpl	r7, [r2], #-1
    3344:	02000000 	andeq	r0, r0, #0
    3348:	4a237691 	bmi	8e0d94 <__bss_end__+0x8dac54>
    334c:	01000012 	tsteq	r0, r2, lsl r0
    3350:	2d950271 	lfmcs	f0, 4, [r5, #452]	; 0x1c4
    3354:	91020000 	mrsls	r0, (UNDEF: 2)
    3358:	01250070 	teqeq	r5, r0, ror r0
    335c:	000005ab 	andeq	r0, r0, fp, lsr #11
    3360:	0103b701 	tsteq	r3, r1, lsl #14
    3364:	00002aeb 	andeq	r2, r0, fp, ror #21
    3368:	00002138 	andeq	r2, r0, r8, lsr r1
    336c:	0000215c 	andeq	r2, r0, ip, asr r1
    3370:	0000039c 	muleq	r0, ip, r3
    3374:	000031d6 	ldrdeq	r3, [r0], -r6
    3378:	0006a522 	andeq	sl, r6, r2, lsr #10
    337c:	03b70100 			; <UNDEFINED> instruction: 0x03b70100
    3380:	00002aeb 	andeq	r2, r0, fp, ror #21
    3384:	00749102 	rsbseq	r9, r4, r2, lsl #2
    3388:	12570121 	subsne	r0, r7, #1073741832	; 0x40000008
    338c:	ce010000 	cdpgt	0, 0, cr0, cr1, cr0, {0}
    3390:	215c0103 	cmpcs	ip, r3, lsl #2
    3394:	27c80000 	strbcs	r0, [r8, r0]
    3398:	03c80000 	biceq	r0, r8, #0
    339c:	324b0000 	subcc	r0, fp, #0
    33a0:	24220000 	strtcs	r0, [r2], #-0
    33a4:	01000004 	tsteq	r0, r4
    33a8:	2bee03cf 	blcs	ffb842ec <__bss_end__+0xffb7e1ac>
    33ac:	91020000 	mrsls	r0, (UNDEF: 2)
    33b0:	03812274 	orreq	r2, r1, #116, 4	; 0x40000007
    33b4:	d0010000 	andle	r0, r1, r0
    33b8:	002c1c03 	eoreq	r1, ip, r3, lsl #24
    33bc:	70910200 	addsvc	r0, r1, r0, lsl #4
    33c0:	000b4722 	andeq	r4, fp, r2, lsr #14
    33c4:	03d10100 	bicseq	r0, r1, #0, 2
    33c8:	00002c1c 	andeq	r2, r0, ip, lsl ip
    33cc:	226c9102 	rsbcs	r9, ip, #-2147483648	; 0x80000000
    33d0:	0000075a 	andeq	r0, r0, sl, asr r7
    33d4:	1c03d201 	sfmne	f5, 1, [r3], {1}
    33d8:	0200002c 	andeq	r0, r0, #44	; 0x2c
    33dc:	6d226891 	stcvs	8, cr6, [r2, #-580]!	; 0xfffffdbc
    33e0:	0100000c 	tsteq	r0, ip
    33e4:	2c1c03d3 	ldccs	3, cr0, [ip], {211}	; 0xd3
    33e8:	91020000 	mrsls	r0, (UNDEF: 2)
    33ec:	15792200 	ldrbne	r2, [r9, #-512]!	; 0xfffffe00
    33f0:	d4010000 	strle	r0, [r1], #-0
    33f4:	002c1c03 	eoreq	r1, ip, r3, lsl #24
    33f8:	04910200 	ldreq	r0, [r1], #512	; 0x200
    33fc:	79012000 	stmdbvc	r1, {sp}
    3400:	01000006 	tsteq	r0, r6
    3404:	c80104b1 	stmdagt	r1, {r0, r4, r5, r7, sl}
    3408:	00000027 	andeq	r0, r0, r7, lsr #32
    340c:	f4000028 	vst4.8	{d0-d3}, [r0 :128], r8
    3410:	20000003 	andcs	r0, r0, r3
    3414:	001af601 	andseq	pc, sl, r1, lsl #12
    3418:	04d70100 	ldrbeq	r0, [r7], #256	; 0x100
    341c:	00280001 	eoreq	r0, r8, r1
    3420:	00282c00 	eoreq	r2, r8, r0, lsl #24
    3424:	00042000 	andeq	r2, r4, r0
    3428:	87012000 	strhi	r2, [r1, -r0]
    342c:	01000008 	tsteq	r0, r8
    3430:	2c0104e7 	cfstrscs	mvf0, [r1], {231}	; 0xe7
    3434:	3c000028 	stccc	0, cr0, [r0], {40}	; 0x28
    3438:	4c000028 	stcmi	0, cr0, [r0], {40}	; 0x28
    343c:	25000004 	strcs	r0, [r0, #-4]
    3440:	0007c901 	andeq	ip, r7, r1, lsl #18
    3444:	05000100 	streq	r0, [r0, #-256]	; 0xffffff00
    3448:	002af601 	eoreq	pc, sl, r1, lsl #12
    344c:	00283c00 	eoreq	r3, r8, r0, lsl #24
    3450:	0028a000 	eoreq	sl, r8, r0
    3454:	00047800 	andeq	r7, r4, r0, lsl #16
    3458:	0032bb00 	eorseq	fp, r2, r0, lsl #22
    345c:	1a332300 	bne	ccc064 <__bss_end__+0xcc5f24>
    3460:	02010000 	andeq	r0, r1, #0
    3464:	00003005 	andeq	r3, r0, r5
    3468:	74910200 	ldrvc	r0, [r1], #512	; 0x200
    346c:	b6012100 	strlt	r2, [r1], -r0, lsl #2
    3470:	01000006 	tsteq	r0, r6
    3474:	a0010519 	andge	r0, r1, r9, lsl r5
    3478:	ec000028 	stc	0, cr0, [r0], {40}	; 0x28
    347c:	a4000028 	strge	r0, [r0], #-40	; 0xffffffd8
    3480:	e5000004 	str	r0, [r0, #-4]
    3484:	22000032 	andcs	r0, r0, #50	; 0x32
    3488:	00000b70 	andeq	r0, r0, r0, ror fp
    348c:	eb051901 	bl	149898 <__bss_end__+0x143758>
    3490:	0200002a 	andeq	r0, r0, #42	; 0x2a
    3494:	21007491 			; <UNDEFINED> instruction: 0x21007491
    3498:	0011a101 	andseq	sl, r1, r1, lsl #2
    349c:	05280100 	streq	r0, [r8, #-256]!	; 0xffffff00
    34a0:	0028ec01 	eoreq	lr, r8, r1, lsl #24
    34a4:	00293800 	eoreq	r3, r9, r0, lsl #16
    34a8:	0004d000 	andeq	sp, r4, r0
    34ac:	00330f00 	eorseq	r0, r3, r0, lsl #30
    34b0:	02282200 	eoreq	r2, r8, #0, 4
    34b4:	28010000 	stmdacs	r1, {}	; <UNPREDICTABLE>
    34b8:	002aeb05 	eoreq	lr, sl, r5, lsl #22
    34bc:	74910200 	ldrvc	r0, [r1], #512	; 0x200
    34c0:	68012500 	stmdavs	r1, {r8, sl, sp}
    34c4:	01000017 	tsteq	r0, r7, lsl r0
    34c8:	f601053d 			; <UNDEFINED> instruction: 0xf601053d
    34cc:	3800002a 	stmdacc	r0, {r1, r3, r5}
    34d0:	ac000029 	stcge	0, cr0, [r0], {41}	; 0x29
    34d4:	fc000029 	stc2	0, cr0, [r0], {41}	; 0x29
    34d8:	3d000004 	stccc	0, cr0, [r0, #-16]
    34dc:	22000033 	andcs	r0, r0, #51	; 0x33
    34e0:	00001aa5 	andeq	r1, r0, r5, lsr #21
    34e4:	30053d01 	andcc	r3, r5, r1, lsl #26
    34e8:	02000000 	andeq	r0, r0, #0
    34ec:	25007491 	strcs	r7, [r0, #-1169]	; 0xfffffb6f
    34f0:	00095601 	andeq	r5, r9, r1, lsl #12
    34f4:	054f0100 	strbeq	r0, [pc, #-256]	; 33fc <hw_dram_Init_mobile_ddr_mt46h32m16lf_5_regs_3_160MHz+0x25c>
    34f8:	002af601 	eoreq	pc, sl, r1, lsl #12
    34fc:	0029ac00 	eoreq	sl, r9, r0, lsl #24
    3500:	002a4000 	eoreq	r4, sl, r0
    3504:	00052800 	andeq	r2, r5, r0, lsl #16
    3508:	00336b00 	eorseq	r6, r3, r0, lsl #22
    350c:	1aa52200 	bne	fe94bd14 <__bss_end__+0xfe945bd4>
    3510:	4f010000 	svcmi	0x00010000
    3514:	00003005 	andeq	r3, r0, r5
    3518:	74910200 	ldrvc	r0, [r1], #512	; 0x200
    351c:	74012100 	strvc	r2, [r1], #-256	; 0xffffff00
    3520:	01000018 	tsteq	r0, r8, lsl r0
    3524:	40010570 	andmi	r0, r1, r0, ror r5
    3528:	4000002a 	andmi	r0, r0, sl, lsr #32
    352c:	5400002d 	strpl	r0, [r0], #-45	; 0xffffffd3
    3530:	95000005 	strls	r0, [r0, #-5]
    3534:	23000033 	movwcs	r0, #51	; 0x33
    3538:	00001051 	andeq	r1, r0, r1, asr r0
    353c:	95057201 	strls	r7, [r5, #-513]	; 0xfffffdff
    3540:	02000033 	andeq	r0, r0, #51	; 0x33
    3544:	27007491 			; <UNDEFINED> instruction: 0x27007491
    3548:	00339b04 	eorseq	r9, r3, r4, lsl #22
    354c:	00302800 	eorseq	r2, r0, r0, lsl #16
    3550:	01210000 	teqeq	r1, r0
    3554:	000007ec 	andeq	r0, r0, ip, ror #15
    3558:	0105a601 	tsteq	r5, r1, lsl #12
    355c:	00002d40 	andeq	r2, r0, r0, asr #26
    3560:	00002e94 	muleq	r0, r4, lr
    3564:	00000580 	andeq	r0, r0, r0, lsl #11
    3568:	000033ca 	andeq	r3, r0, sl, asr #7
    356c:	00105123 	andseq	r5, r0, r3, lsr #2
    3570:	05a80100 	streq	r0, [r8, #256]!	; 0x100
    3574:	00003395 	muleq	r0, r5, r3
    3578:	00749102 	rsbseq	r9, r4, r2, lsl #2
    357c:	0c980121 	ldfeqs	f0, [r8], {33}	; 0x21
    3580:	c8010000 	stmdagt	r1, {}	; <UNPREDICTABLE>
    3584:	2e940105 	fmlcss	f0, f4, f5
    3588:	31a00000 	movcc	r0, r0
    358c:	05ac0000 	streq	r0, [ip, #0]!
    3590:	33f40000 	mvnscc	r0, #0
    3594:	51230000 	teqpl	r3, r0
    3598:	01000010 	tsteq	r0, r0, lsl r0
    359c:	339505ca 	orrscc	r0, r5, #847249408	; 0x32800000
    35a0:	91020000 	mrsls	r0, (UNDEF: 2)
    35a4:	01210074 	teqeq	r1, r4, ror r0
    35a8:	00000d84 	andeq	r0, r0, r4, lsl #27
    35ac:	01060501 	tsteq	r6, r1, lsl #10
    35b0:	000031a0 	andeq	r3, r0, r0, lsr #3
    35b4:	000034a8 	andeq	r3, r0, r8, lsr #9
    35b8:	000005d8 	ldrdeq	r0, [r0], -r8
    35bc:	0000341e 	andeq	r3, r0, lr, lsl r4
    35c0:	00105123 	andseq	r5, r0, r3, lsr #2
    35c4:	06070100 	streq	r0, [r7], -r0, lsl #2
    35c8:	00003395 	muleq	r0, r5, r3
    35cc:	00749102 	rsbseq	r9, r4, r2, lsl #2
    35d0:	07320129 	ldreq	r0, [r2, -r9, lsr #2]!
    35d4:	38010000 	stmdacc	r1, {}	; <UNPREDICTABLE>
    35d8:	00300106 	eorseq	r0, r0, r6, lsl #2
    35dc:	34a80000 	strtcc	r0, [r8], #0
    35e0:	34cc0000 	strbcc	r0, [ip], #0
    35e4:	06040000 	streq	r0, [r4], -r0
    35e8:	01250000 	teqeq	r5, r0
    35ec:	00000a6a 	andeq	r0, r0, sl, ror #20
    35f0:	01063d01 	tsteq	r6, r1, lsl #26
    35f4:	00002af6 	strdeq	r2, [r0], -r6
    35f8:	000034cc 	andeq	r3, r0, ip, asr #9
    35fc:	00003530 	andeq	r3, r0, r0, lsr r5
    3600:	00000630 	andeq	r0, r0, r0, lsr r6
    3604:	00003466 	andeq	r3, r0, r6, ror #8
    3608:	001a3323 	andseq	r3, sl, r3, lsr #6
    360c:	063f0100 	ldrteq	r0, [pc], -r0, lsl #2
    3610:	00000030 	andeq	r0, r0, r0, lsr r0
    3614:	00749102 	rsbseq	r9, r4, r2, lsl #2
    3618:	08dd0125 	ldmeq	sp, {r0, r2, r5, r8}^
    361c:	52010000 	andpl	r0, r1, #0
    3620:	2aeb0106 	bcs	ffac3a40 <__bss_end__+0xffabd900>
    3624:	35300000 	ldrcc	r0, [r0, #-0]!
    3628:	35ec0000 	strbcc	r0, [ip, #0]!
    362c:	065c0000 	ldrbeq	r0, [ip], -r0
    3630:	34d00000 	ldrbcc	r0, [r0], #0
    3634:	33220000 	teqcc	r2, #0
    3638:	0100001a 	tsteq	r0, sl, lsl r0
    363c:	00300652 	eorseq	r0, r0, r2, asr r6
    3640:	91020000 	mrsls	r0, (UNDEF: 2)
    3644:	11b62264 			; <UNDEFINED> instruction: 0x11b62264
    3648:	52010000 	andpl	r0, r1, #0
    364c:	00003006 	andeq	r3, r0, r6
    3650:	60910200 	addsvs	r0, r1, r0, lsl #4
    3654:	001bdd23 	andseq	sp, fp, r3, lsr #26
    3658:	06540100 	ldrbeq	r0, [r4], -r0, lsl #2
    365c:	00000030 	andeq	r0, r0, r0, lsr r0
    3660:	23709102 	cmncs	r0, #-2147483648	; 0x80000000
    3664:	000007a6 	andeq	r0, r0, r6, lsr #15
    3668:	30065401 	andcc	r5, r6, r1, lsl #8
    366c:	02000000 	andeq	r0, r0, #0
    3670:	b5236c91 	strlt	r6, [r3, #-3217]!	; 0xfffff36f
    3674:	01000011 	tsteq	r0, r1, lsl r0
    3678:	2aeb0655 	bcs	ffac4fd4 <__bss_end__+0xffabee94>
    367c:	91020000 	mrsls	r0, (UNDEF: 2)
    3680:	01210074 	teqeq	r1, r4, ror r0
    3684:	000017f9 	strdeq	r1, [r0], -r9
    3688:	01066c01 	tsteq	r6, r1, lsl #24
    368c:	000035ec 	andeq	r3, r0, ip, ror #11
    3690:	00003644 	andeq	r3, r0, r4, asr #12
    3694:	00000688 	andeq	r0, r0, r8, lsl #13
    3698:	000034fa 	strdeq	r3, [r0], -sl
    369c:	00132822 	andseq	r2, r3, r2, lsr #16
    36a0:	066c0100 	strbteq	r0, [ip], -r0, lsl #2
    36a4:	00002aeb 	andeq	r2, r0, fp, ror #21
    36a8:	00749102 	rsbseq	r9, r4, r2, lsl #2
    36ac:	05c60121 	strbeq	r0, [r6, #289]	; 0x121
    36b0:	7a010000 	bvc	436b8 <__bss_end__+0x3d578>
    36b4:	36440106 	strbcc	r0, [r4], -r6, lsl #2
    36b8:	36c40000 	strbcc	r0, [r4], r0
    36bc:	06b40000 	ldrteq	r0, [r4], r0
    36c0:	35240000 	strcc	r0, [r4, #-0]!
    36c4:	47220000 	strmi	r0, [r2, -r0]!
    36c8:	0100000e 	tsteq	r0, lr
    36cc:	2aeb067a 	bcs	ffac50bc <__bss_end__+0xffabef7c>
    36d0:	91020000 	mrsls	r0, (UNDEF: 2)
    36d4:	012a0074 	teqeq	sl, r4, ror r0
    36d8:	000013c8 	andeq	r1, r0, r8, asr #7
    36dc:	c4069001 	strgt	r9, [r6], #-1
    36e0:	e4000036 	str	r0, [r0], #-54	; 0xffffffca
    36e4:	e0000037 	and	r0, r0, r7, lsr r0
    36e8:	4d000006 	stcmi	0, cr0, [r0, #-24]	; 0xffffffe8
    36ec:	23000035 	movwcs	r0, #53	; 0x35
    36f0:	00000f6d 	andeq	r0, r0, sp, ror #30
    36f4:	30069201 	andcc	r9, r6, r1, lsl #4
    36f8:	02000000 	andeq	r0, r0, #0
    36fc:	21007491 			; <UNDEFINED> instruction: 0x21007491
    3700:	000ce701 	andeq	lr, ip, r1, lsl #14
    3704:	06c70100 	strbeq	r0, [r7], r0, lsl #2
    3708:	0037e401 	eorseq	lr, r7, r1, lsl #8
    370c:	00386c00 	eorseq	r6, r8, r0, lsl #24
    3710:	00070c00 	andeq	r0, r7, r0, lsl #24
    3714:	00358500 	eorseq	r8, r5, r0, lsl #10
    3718:	68632b00 	stmdavs	r3!, {r8, r9, fp, sp}^
    371c:	06c70100 	strbeq	r0, [r7], r0, lsl #2
    3720:	00000054 	andeq	r0, r0, r4, asr r0
    3724:	236f9102 	cmncs	pc, #-2147483648	; 0x80000000
    3728:	000016a5 	andeq	r1, r0, r5, lsr #13
    372c:	3006c901 	andcc	ip, r6, r1, lsl #18
    3730:	02000000 	andeq	r0, r0, #0
    3734:	2a007491 	bcs	20980 <__bss_end__+0x1a840>
    3738:	00081c01 	andeq	r1, r8, r1, lsl #24
    373c:	06dc0100 	ldrbeq	r0, [ip], r0, lsl #2
    3740:	0000386c 	andeq	r3, r0, ip, ror #16
    3744:	00003fa4 	andeq	r3, r0, r4, lsr #31
    3748:	00000738 	andeq	r0, r0, r8, lsr r7
    374c:	000035d7 	ldrdeq	r3, [r0], -r7
    3750:	01006926 	tsteq	r0, r6, lsr #18
    3754:	003006de 	ldrsbteq	r0, [r0], -lr
    3758:	91020000 	mrsls	r0, (UNDEF: 2)
    375c:	006a2674 	rsbeq	r2, sl, r4, ror r6
    3760:	3006de01 	andcc	sp, r6, r1, lsl #28
    3764:	02000000 	andeq	r0, r0, #0
    3768:	fd237091 	stc2	0, cr7, [r3, #-580]!	; 0xfffffdbc
    376c:	01000004 	tsteq	r0, r4
    3770:	003006df 	ldrsbteq	r0, [r0], -pc
    3774:	91020000 	mrsls	r0, (UNDEF: 2)
    3778:	1a33236c 	bne	ccc530 <__bss_end__+0xcc63f0>
    377c:	e0010000 	and	r0, r1, r0
    3780:	00003006 	andeq	r3, r0, r6
    3784:	68910200 	ldmvs	r1, {r9}
    3788:	64012100 	strvs	r2, [r1], #-256	; 0xffffff00
    378c:	01000000 	mrseq	r0, (UNDEF: 0)
    3790:	a4010823 	strge	r0, [r1], #-2083	; 0xfffff7dd
    3794:	ac00003f 	stcge	0, cr0, [r0], {63}	; 0x3f
    3798:	64000042 	strvs	r0, [r0], #-66	; 0xffffffbe
    379c:	01000007 	tsteq	r0, r7
    37a0:	22000036 	andcs	r0, r0, #54	; 0x36
    37a4:	00001423 	andeq	r1, r0, r3, lsr #8
    37a8:	30082301 	andcc	r2, r8, r1, lsl #6
    37ac:	02000000 	andeq	r0, r0, #0
    37b0:	21007491 			; <UNDEFINED> instruction: 0x21007491
    37b4:	0019fc01 	andseq	pc, r9, r1, lsl #24
    37b8:	08560100 	ldmdaeq	r6, {r8}^
    37bc:	0042ac01 	subeq	sl, r2, r1, lsl #24
    37c0:	00446800 	subeq	r6, r4, r0, lsl #16
    37c4:	00079000 	andeq	r9, r7, r0
    37c8:	00364700 	eorseq	r4, r6, r0, lsl #14
    37cc:	14232200 	strtne	r2, [r3], #-512	; 0xfffffe00
    37d0:	56010000 	strpl	r0, [r1], -r0
    37d4:	00003008 	andeq	r3, r0, r8
    37d8:	64910200 	ldrvs	r0, [r1], #512	; 0x200
    37dc:	6d756e26 	ldclvs	14, cr6, [r5, #-152]!	; 0xffffff68
    37e0:	08580100 	ldmdaeq	r8, {r8}^
    37e4:	00003647 	andeq	r3, r0, r7, asr #12
    37e8:	26689102 	strbtcs	r9, [r8], -r2, lsl #2
    37ec:	59010069 	stmdbpl	r1, {r0, r3, r5, r6}
    37f0:	00003008 	andeq	r3, r0, r8
    37f4:	74910200 	ldrvc	r0, [r1], #512	; 0x200
    37f8:	00302c00 	eorseq	r2, r0, r0, lsl #24
    37fc:	36570000 	ldrbcc	r0, [r7], -r0
    3800:	302d0000 	eorcc	r0, sp, r0
    3804:	02000000 	andeq	r0, r0, #0
    3808:	3e012e00 	cdpcc	14, 0, cr2, cr1, cr0, {0}
    380c:	0100000a 	tsteq	r0, sl
    3810:	4468088f 	strbtmi	r0, [r8], #-2191	; 0xfffff771
    3814:	44800000 	strmi	r0, [r0], #0
    3818:	07bc0000 	ldreq	r0, [ip, r0]!
    381c:	01200000 	teqeq	r0, r0
    3820:	00001618 	andeq	r1, r0, r8, lsl r6
    3824:	0108a901 	tsteq	r8, r1, lsl #18
    3828:	00004480 	andeq	r4, r0, r0, lsl #9
    382c:	000044f0 	strdeq	r4, [r0], -r0
    3830:	000007e8 	andeq	r0, r0, r8, ror #15
    3834:	06100121 	ldreq	r0, [r0], -r1, lsr #2
    3838:	c9010000 	stmdbgt	r1, {}	; <UNPREDICTABLE>
    383c:	44f00108 	ldrbtmi	r0, [r0], #264	; 0x108
    3840:	453c0000 	ldrmi	r0, [ip, #-0]!
    3844:	08140000 	ldmdaeq	r4, {}	; <UNPREDICTABLE>
    3848:	36ac0000 	strtcc	r0, [ip], r0
    384c:	47220000 	strmi	r0, [r2, -r0]!
    3850:	01000019 	tsteq	r0, r9, lsl r0
    3854:	2aeb08c9 	bcs	ffac5b80 <__bss_end__+0xffabfa40>
    3858:	91020000 	mrsls	r0, (UNDEF: 2)
    385c:	01210074 	teqeq	r1, r4, ror r0
    3860:	000003f0 	strdeq	r0, [r0], -r0	; <UNPREDICTABLE>
    3864:	0108e201 	tsteq	r8, r1, lsl #4
    3868:	0000453c 	andeq	r4, r0, ip, lsr r5
    386c:	000045b0 			; <UNDEFINED> instruction: 0x000045b0
    3870:	00000840 	andeq	r0, r0, r0, asr #16
    3874:	000036d6 	ldrdeq	r3, [r0], -r6
    3878:	00109422 	andseq	r9, r0, r2, lsr #8
    387c:	08e20100 	stmiaeq	r2!, {r8}^
    3880:	00002afd 	strdeq	r2, [r0], -sp
    3884:	00749102 	rsbseq	r9, r4, r2, lsl #2
    3888:	164d012e 	strbne	r0, [sp], -lr, lsr #2
    388c:	04010000 	streq	r0, [r1], #-0
    3890:	0045b009 	subeq	fp, r5, r9
    3894:	00460000 	subeq	r0, r6, r0
    3898:	00086c00 	andeq	r6, r8, r0, lsl #24
    389c:	47012100 	strmi	r2, [r1, -r0, lsl #2]
    38a0:	01000001 	tsteq	r0, r1
    38a4:	0001091e 	andeq	r0, r1, lr, lsl r9
    38a8:	80000046 	andhi	r0, r0, r6, asr #32
    38ac:	98000046 	stmdals	r0, {r1, r2, r6}
    38b0:	33000008 	movwcc	r0, #8
    38b4:	22000037 	andcs	r0, r0, #55	; 0x37
    38b8:	00000b85 	andeq	r0, r0, r5, lsl #23
    38bc:	30091e01 	andcc	r1, r9, r1, lsl #28
    38c0:	02000000 	andeq	r0, r0, #0
    38c4:	51236c91 			; <UNDEFINED> instruction: 0x51236c91
    38c8:	01000015 	tsteq	r0, r5, lsl r0
    38cc:	00300920 	eorseq	r0, r0, r0, lsr #18
    38d0:	91020000 	mrsls	r0, (UNDEF: 2)
    38d4:	18b32370 	ldmne	r3!, {r4, r5, r6, r8, r9, sp}
    38d8:	20010000 	andcs	r0, r1, r0
    38dc:	00003009 	andeq	r3, r0, r9
    38e0:	74910200 	ldrvc	r0, [r1], #512	; 0x200
    38e4:	0c012a00 	stceq	10, cr2, [r1], {-0}
    38e8:	0100000b 	tsteq	r0, fp
    38ec:	4680093d 			; <UNDEFINED> instruction: 0x4680093d
    38f0:	47c40000 	strbmi	r0, [r4, r0]
    38f4:	08c40000 	stmiaeq	r4, {}^	; <UNPREDICTABLE>
    38f8:	37690000 	strbcc	r0, [r9, -r0]!
    38fc:	b5230000 	strlt	r0, [r3, #-0]!
    3900:	01000019 	tsteq	r0, r9, lsl r0
    3904:	0030093f 	eorseq	r0, r0, pc, lsr r9
    3908:	91020000 	mrsls	r0, (UNDEF: 2)
    390c:	00782670 	rsbseq	r2, r8, r0, ror r6
    3910:	30094001 	andcc	r4, r9, r1
    3914:	02000000 	andeq	r0, r0, #0
    3918:	2f007491 	svccs	0x00007491
    391c:	00001625 	andeq	r1, r0, r5, lsr #12
    3920:	2dc11a01 	vstrcs	s3, [r1, #4]
    3924:	03050000 	movweq	r0, #20480	; 0x5000
    3928:	000060b0 	strheq	r6, [r0], -r0
    392c:	0010ec2f 	andseq	lr, r0, pc, lsr #24
    3930:	531b0100 	tstpl	fp, #0, 2
    3934:	0500002e 	streq	r0, [r0, #-46]	; 0xffffffd2
    3938:	0060b403 	rsbeq	fp, r0, r3, lsl #8
    393c:	1a7a3000 	bne	1e8f944 <__bss_end__+0x1e89804>
    3940:	1c010000 	stcne	0, cr0, [r1], {-0}
    3944:	00002aeb 	andeq	r2, r0, fp, ror #21
    3948:	402f0101 	eormi	r0, pc, r1, lsl #2
    394c:	0100001b 	tsteq	r0, fp, lsl r0
    3950:	002aeb1d 	eoreq	lr, sl, sp, lsl fp
    3954:	0c030500 	cfstr32eq	mvfx0, [r3], {-0}
    3958:	2f000061 	svccs	0x00000061
    395c:	0000101e 	andeq	r1, r0, lr, lsl r0
    3960:	2aeb1e01 	bcs	ffacb16c <__bss_end__+0xffac502c>
    3964:	03050000 	movweq	r0, #20480	; 0x5000
    3968:	00006110 	andeq	r6, r0, r0, lsl r1
    396c:	00190e2f 	andseq	r0, r9, pc, lsr #28
    3970:	eb1f0100 	bl	7c3d78 <__bss_end__+0x7bdc38>
    3974:	0500002a 	streq	r0, [r0, #-42]	; 0xffffffd6
    3978:	00611403 	rsbeq	r1, r1, r3, lsl #8
    397c:	09e52f00 	stmibeq	r5!, {r8, r9, sl, fp, sp}^
    3980:	20010000 	andcs	r0, r1, r0
    3984:	00002aeb 	andeq	r2, r0, fp, ror #21
    3988:	61180305 	tstvs	r8, r5, lsl #6
    398c:	7f310000 	svcvc	0x00310000
    3990:	01000005 	tsteq	r0, r5
    3994:	0037ee19 	eorseq	lr, r7, r9, lsl lr
    3998:	03050100 	movweq	r0, #20736	; 0x5100
    399c:	0000600c 	andeq	r6, r0, ip
    39a0:	0037f332 	eorseq	pc, r7, r2, lsr r3	; <UNPREDICTABLE>
    39a4:	37f82800 	ldrbcc	r2, [r8, r0, lsl #16]!
    39a8:	04330000 	ldrteq	r0, [r3], #-0
    39ac:	001a7a31 	andseq	r7, sl, r1, lsr sl
    39b0:	eb1c0100 	bl	703db8 <__bss_end__+0x6fdc78>
    39b4:	0100002a 	tsteq	r0, sl, lsr #32
    39b8:	60ac0305 	adcvs	r0, ip, r5, lsl #6
    39bc:	bf000000 	svclt	0x00000000
    39c0:	02000000 	andeq	r0, r0, #0
    39c4:	0003fd00 	andeq	pc, r3, r0, lsl #26
    39c8:	0e010400 	cfcpyseq	mvf0, mvf1
    39cc:	01000000 	mrseq	r0, (UNDEF: 0)
    39d0:	00001cbf 			; <UNDEFINED> instruction: 0x00001cbf
    39d4:	00000080 	andeq	r0, r0, r0, lsl #1
    39d8:	000047c4 	andeq	r4, r0, r4, asr #15
    39dc:	00004990 	muleq	r0, r0, r9
    39e0:	00000635 	andeq	r0, r0, r5, lsr r6
    39e4:	51080102 	tstpl	r8, r2, lsl #2
    39e8:	02000000 	andeq	r0, r0, #0
    39ec:	006d0702 	rsbeq	r0, sp, r2, lsl #14
    39f0:	75030000 	strvc	r0, [r3, #-0]
    39f4:	02003233 	andeq	r3, r0, #805306371	; 0x30000003
    39f8:	00003e06 	andeq	r3, r0, r6, lsl #28
    39fc:	07040200 	streq	r0, [r4, -r0, lsl #4]
    3a00:	0000003c 	andeq	r0, r0, ip, lsr r0
    3a04:	05050402 	streq	r0, [r5, #-1026]	; 0xfffffbfe
    3a08:	04000000 	streq	r0, [r0], #-0
    3a0c:	001cca01 	andseq	ip, ip, r1, lsl #20
    3a10:	01350100 	teqeq	r5, r0, lsl #2
    3a14:	000047c4 	andeq	r4, r0, r4, asr #15
    3a18:	000047dc 	ldrdeq	r4, [r0], -ip
    3a1c:	000008f0 	strdeq	r0, [r0], -r0	; <UNPREDICTABLE>
    3a20:	1ccf0105 	stfnee	f0, [pc], {5}
    3a24:	42010000 	andmi	r0, r1, #0
    3a28:	0047dc01 	subeq	sp, r7, r1, lsl #24
    3a2c:	00484400 	subeq	r4, r8, r0, lsl #8
    3a30:	00091c00 	andeq	r1, r9, r0, lsl #24
    3a34:	00008900 	andeq	r8, r0, r0, lsl #18
    3a38:	61760600 	cmnvs	r6, r0, lsl #12
    3a3c:	4401006c 	strmi	r0, [r1], #-108	; 0xffffff94
    3a40:	0000003e 	andeq	r0, r0, lr, lsr r0
    3a44:	00749102 	rsbseq	r9, r4, r2, lsl #2
    3a48:	1cc60104 	stfnee	f0, [r6], {4}
    3a4c:	51010000 	mrspl	r0, (UNDEF: 1)
    3a50:	00484401 	subeq	r4, r8, r1, lsl #8
    3a54:	0048cc00 	subeq	ip, r8, r0, lsl #24
    3a58:	00094800 	andeq	r4, r9, r0, lsl #16
    3a5c:	e5010700 	str	r0, [r1, #-1792]	; 0xfffff900
    3a60:	0100001c 	tsteq	r0, ip, lsl r0
    3a64:	48cc0162 	stmiami	ip, {r1, r5, r6, r8}^
    3a68:	49900000 	ldmibmi	r0, {}	; <UNPREDICTABLE>
    3a6c:	09740000 	ldmdbeq	r4!, {}^	; <UNPREDICTABLE>
    3a70:	da080000 	ble	203a78 <__bss_end__+0x1fd938>
    3a74:	0100001c 	tsteq	r0, ip, lsl r0
    3a78:	00003364 	andeq	r3, r0, r4, ror #6
    3a7c:	74910200 	ldrvc	r0, [r1], #512	; 0x200
    3a80:	04cd0000 	strbeq	r0, [sp], #0
    3a84:	00020000 	andeq	r0, r2, r0
    3a88:	00000488 	andeq	r0, r0, r8, lsl #9
    3a8c:	000e0104 	andeq	r0, lr, r4, lsl #2
    3a90:	1d010000 	stcne	0, cr0, [r1, #-0]
    3a94:	8000001d 	andhi	r0, r0, sp, lsl r0
    3a98:	90000000 	andls	r0, r0, r0
    3a9c:	c4000049 	strgt	r0, [r0], #-73	; 0xffffffb7
    3aa0:	9f00004b 	svcls	0x0000004b
    3aa4:	02000006 	andeq	r0, r0, #6
    3aa8:	00530601 	subseq	r0, r3, r1, lsl #12
    3aac:	74030000 	strvc	r0, [r3], #-0
    3ab0:	0200001e 	andeq	r0, r0, #30
    3ab4:	00003714 	andeq	r3, r0, r4, lsl r7
    3ab8:	08010200 	stmdaeq	r1, {r9}
    3abc:	00000051 	andeq	r0, r0, r1, asr r0
    3ac0:	a5050202 	strge	r0, [r5, #-514]	; 0xfffffdfe
    3ac4:	03000000 	movweq	r0, #0
    3ac8:	00001e6e 	andeq	r1, r0, lr, ror #28
    3acc:	00501702 	subseq	r1, r0, r2, lsl #14
    3ad0:	02020000 	andeq	r0, r2, #0
    3ad4:	00006d07 	andeq	r6, r0, r7, lsl #26
    3ad8:	05040400 	streq	r0, [r4, #-1024]	; 0xfffffc00
    3adc:	00746e69 	rsbseq	r6, r4, r9, ror #28
    3ae0:	001d7c03 	andseq	r7, sp, r3, lsl #24
    3ae4:	691a0200 	ldmdbvs	sl, {r9}
    3ae8:	02000000 	andeq	r0, r0, #0
    3aec:	003c0704 	eorseq	r0, ip, r4, lsl #14
    3af0:	08020000 	stmdaeq	r2, {}	; <UNPREDICTABLE>
    3af4:	00000005 	andeq	r0, r0, r5
    3af8:	07080200 	streq	r0, [r8, -r0, lsl #4]
    3afc:	00000032 	andeq	r0, r0, r2, lsr r0
    3b00:	37070402 	strcc	r0, [r7, -r2, lsl #8]
    3b04:	02000000 	andeq	r0, r0, #0
    3b08:	00050504 	andeq	r0, r5, r4, lsl #10
    3b0c:	01020000 	mrseq	r0, (UNDEF: 2)
    3b10:	00005a08 	andeq	r5, r0, r8, lsl #20
    3b14:	1ea90500 	cdpne	5, 10, cr0, cr9, cr0, {0}
    3b18:	03080000 	movweq	r0, #32768	; 0x8000
    3b1c:	0000bc19 	andeq	fp, r0, r9, lsl ip
    3b20:	1e910600 	cdpne	6, 9, cr0, cr1, cr0, {0}
    3b24:	1a030000 	bne	c3b2c <__bss_end__+0xbd9ec>
    3b28:	0000005e 	andeq	r0, r0, lr, asr r0
    3b2c:	07002302 	streq	r2, [r0, -r2, lsl #6]
    3b30:	00676174 	rsbeq	r6, r7, r4, ror r1
    3b34:	005e1b03 	subseq	r1, lr, r3, lsl #22
    3b38:	23020000 	movwcs	r0, #8192	; 0x2000
    3b3c:	a0050004 	andge	r0, r5, r4
    3b40:	0c00001e 	stceq	0, cr0, [r0], {30}
    3b44:	00f32103 	rscseq	r2, r3, r3, lsl #2
    3b48:	2d060000 	stccs	0, cr0, [r6, #-0]
    3b4c:	0300001e 	movweq	r0, #30
    3b50:	00005e22 	andeq	r5, r0, r2, lsr #28
    3b54:	00230200 	eoreq	r0, r3, r0, lsl #4
    3b58:	001d3006 	andseq	r3, sp, r6
    3b5c:	5e230300 	cdppl	3, 2, cr0, cr3, cr0, {0}
    3b60:	02000000 	andeq	r0, r0, #0
    3b64:	fa060423 	blx	184bf8 <__bss_end__+0x17eab8>
    3b68:	0300001d 	movweq	r0, #29
    3b6c:	00005e24 	andeq	r5, r0, r4, lsr #28
    3b70:	08230200 	stmdaeq	r3!, {r9}
    3b74:	1eb40500 	cdpne	5, 11, cr0, cr4, cr0, {0}
    3b78:	03080000 	movweq	r0, #32768	; 0x8000
    3b7c:	00011c2a 	andeq	r1, r1, sl, lsr #24
    3b80:	1e910600 	cdpne	6, 9, cr0, cr1, cr0, {0}
    3b84:	2b030000 	blcs	c3b8c <__bss_end__+0xbda4c>
    3b88:	0000005e 	andeq	r0, r0, lr, asr r0
    3b8c:	06002302 	streq	r2, [r0], -r2, lsl #6
    3b90:	00001f79 	andeq	r1, r0, r9, ror pc
    3b94:	005e2c03 	subseq	r2, lr, r3, lsl #24
    3b98:	23020000 	movwcs	r0, #8192	; 0x2000
    3b9c:	82050004 	andhi	r0, r5, #4
    3ba0:	0c00001d 	stceq	0, cr0, [r0], {29}
    3ba4:	01a33203 			; <UNDEFINED> instruction: 0x01a33203
    3ba8:	78070000 	stmdavc	r7, {}	; <UNPREDICTABLE>
    3bac:	2c330300 	ldccs	3, cr0, [r3], #-0
    3bb0:	02000000 	andeq	r0, r0, #0
    3bb4:	79070023 	stmdbvc	r7, {r0, r1, r5}
    3bb8:	2c340300 	ldccs	3, cr0, [r4], #-0
    3bbc:	02000000 	andeq	r0, r0, #0
    3bc0:	a4060123 	strge	r0, [r6], #-291	; 0xfffffedd
    3bc4:	0300001d 	movweq	r0, #29
    3bc8:	00004535 	andeq	r4, r0, r5, lsr r5
    3bcc:	02230200 	eoreq	r0, r3, #0, 4
    3bd0:	001d2506 	andseq	r2, sp, r6, lsl #10
    3bd4:	2c360300 	ldccs	3, cr0, [r6], #-0
    3bd8:	02000000 	andeq	r0, r0, #0
    3bdc:	63060423 	movwvs	r0, #25635	; 0x6423
    3be0:	0300001e 	movweq	r0, #30
    3be4:	00002c37 	andeq	r2, r0, r7, lsr ip
    3be8:	05230200 	streq	r0, [r3, #-512]!	; 0xfffffe00
    3bec:	001dc606 	andseq	ip, sp, r6, lsl #12
    3bf0:	45380300 	ldrmi	r0, [r8, #-768]!	; 0xfffffd00
    3bf4:	02000000 	andeq	r0, r0, #0
    3bf8:	48060623 	stmdami	r6, {r0, r1, r5, r9, sl}
    3bfc:	0300001e 	movweq	r0, #30
    3c00:	00002c39 	andeq	r2, r0, r9, lsr ip
    3c04:	08230200 	stmdaeq	r3!, {r9}
    3c08:	001d3906 	andseq	r3, sp, r6, lsl #18
    3c0c:	2c3a0300 	ldccs	3, cr0, [sl], #-0
    3c10:	02000000 	andeq	r0, r0, #0
    3c14:	45060923 	strmi	r0, [r6, #-2339]	; 0xfffff6dd
    3c18:	0300001d 	movweq	r0, #29
    3c1c:	0000453b 	andeq	r4, r0, fp, lsr r5
    3c20:	0a230200 	beq	8c4428 <__bss_end__+0x8be2e8>
    3c24:	1e3c0500 	cfabs32ne	mvfx0, mvfx12
    3c28:	030c0000 	movweq	r0, #49152	; 0xc000
    3c2c:	0001da41 	andeq	sp, r1, r1, asr #20
    3c30:	1e2d0600 	cfmadda32ne	mvax0, mvax0, mvfx13, mvfx0
    3c34:	42030000 	andmi	r0, r3, #0
    3c38:	0000005e 	andeq	r0, r0, lr, asr r0
    3c3c:	06002302 	streq	r2, [r0], -r2, lsl #6
    3c40:	00001e91 	muleq	r0, r1, lr
    3c44:	005e4303 	subseq	r4, lr, r3, lsl #6
    3c48:	23020000 	movwcs	r0, #8192	; 0x2000
    3c4c:	1f790604 	svcne	0x00790604
    3c50:	44030000 	strmi	r0, [r3], #-0
    3c54:	0000005e 	andeq	r0, r0, lr, asr r0
    3c58:	00082302 	andeq	r2, r8, r2, lsl #6
    3c5c:	001cee05 	andseq	lr, ip, r5, lsl #28
    3c60:	51030800 	tstpl	r3, r0, lsl #16
    3c64:	00000203 	andeq	r0, r0, r3, lsl #4
    3c68:	001f7906 	andseq	r7, pc, r6, lsl #18
    3c6c:	5e520300 	cdppl	3, 5, cr0, cr2, cr0, {0}
    3c70:	02000000 	andeq	r0, r0, #0
    3c74:	91060023 	tstls	r6, r3, lsr #32
    3c78:	0300001e 	movweq	r0, #30
    3c7c:	00005e53 	andeq	r5, r0, r3, asr lr
    3c80:	04230200 	strteq	r0, [r3], #-512	; 0xfffffe00
    3c84:	1ec80500 	cdpne	5, 12, cr0, cr8, cr0, {0}
    3c88:	03080000 	movweq	r0, #32768	; 0x8000
    3c8c:	00022c59 	andeq	r2, r2, r9, asr ip
    3c90:	6f6c0700 	svcvs	0x006c0700
    3c94:	5a030077 	bpl	c3e78 <__bss_end__+0xbdd38>
    3c98:	0000005e 	andeq	r0, r0, lr, asr r0
    3c9c:	06002302 	streq	r2, [r0], -r2, lsl #6
    3ca0:	00001de0 	andeq	r1, r0, r0, ror #27
    3ca4:	005e5b03 	subseq	r5, lr, r3, lsl #22
    3ca8:	23020000 	movwcs	r0, #8192	; 0x2000
    3cac:	d3050004 	movwle	r0, #20484	; 0x5004
    3cb0:	0400001d 	streq	r0, [r0], #-29	; 0xffffffe3
    3cb4:	02476103 	subeq	r6, r7, #-1073741824	; 0xc0000000
    3cb8:	72070000 	andvc	r0, r7, #0
    3cbc:	03007665 	movweq	r7, #1637	; 0x665
    3cc0:	00005e62 	andeq	r5, r0, r2, ror #28
    3cc4:	00230200 	eoreq	r0, r3, r0, lsl #4
    3cc8:	1d970500 	cfldr32ne	mvfx0, [r7]
    3ccc:	03180000 	tsteq	r8, #0
    3cd0:	0003186a 	andeq	r1, r3, sl, ror #16
    3cd4:	1daf0600 	stcne	6, cr0, [pc]	; 3cdc <InitPower+0x470>
    3cd8:	6b030000 	blvs	c3ce0 <__bss_end__+0xbdba0>
    3cdc:	00000045 	andeq	r0, r0, r5, asr #32
    3ce0:	06002302 	streq	r2, [r0], -r2, lsl #6
    3ce4:	00001e0d 	andeq	r1, r0, sp, lsl #28
    3ce8:	00456c03 	subeq	r6, r5, r3, lsl #24
    3cec:	23020000 	movwcs	r0, #8192	; 0x2000
    3cf0:	1d520602 	ldclne	6, cr0, [r2, #-8]
    3cf4:	6d030000 	stcvs	0, cr0, [r3, #-0]
    3cf8:	00000045 	andeq	r0, r0, r5, asr #32
    3cfc:	06042302 	streq	r2, [r4], -r2, lsl #6
    3d00:	00001e54 	andeq	r1, r0, r4, asr lr
    3d04:	00456e03 	subeq	r6, r5, r3, lsl #28
    3d08:	23020000 	movwcs	r0, #8192	; 0x2000
    3d0c:	1e330606 	cfmsuba32ne	mvax0, mvax0, mvfx3, mvfx6
    3d10:	6f030000 	svcvs	0x00030000
    3d14:	0000005e 	andeq	r0, r0, lr, asr r0
    3d18:	06082302 	streq	r2, [r8], -r2, lsl #6
    3d1c:	00001e8d 	andeq	r1, r0, sp, lsl #29
    3d20:	005e7003 	subseq	r7, lr, r3
    3d24:	23020000 	movwcs	r0, #8192	; 0x2000
    3d28:	1df1060c 	ldclne	6, cr0, [r1, #48]!	; 0x30
    3d2c:	71030000 	mrsvc	r0, (UNDEF: 3)
    3d30:	0000002c 	andeq	r0, r0, ip, lsr #32
    3d34:	06102302 	ldreq	r2, [r0], -r2, lsl #6
    3d38:	00001ed5 	ldrdeq	r1, [r0], -r5
    3d3c:	002c7203 	eoreq	r7, ip, r3, lsl #4
    3d40:	23020000 	movwcs	r0, #8192	; 0x2000
    3d44:	1e820611 	mcrne	6, 4, r0, cr2, cr1, {0}
    3d48:	73030000 	movwvc	r0, #12288	; 0x3000
    3d4c:	0000002c 	andeq	r0, r0, ip, lsr #32
    3d50:	06122302 	ldreq	r2, [r2], -r2, lsl #6
    3d54:	00001e96 	muleq	r0, r6, lr
    3d58:	002c7403 	eoreq	r7, ip, r3, lsl #8
    3d5c:	23020000 	movwcs	r0, #8192	; 0x2000
    3d60:	1ebe0613 	mrcne	6, 5, r0, cr14, cr3, {0}
    3d64:	75030000 	strvc	r0, [r3, #-0]
    3d68:	0000002c 	andeq	r0, r0, ip, lsr #32
    3d6c:	06142302 	ldreq	r2, [r4], -r2, lsl #6
    3d70:	00001d03 	andeq	r1, r0, r3, lsl #26
    3d74:	002c7603 	eoreq	r7, ip, r3, lsl #12
    3d78:	23020000 	movwcs	r0, #8192	; 0x2000
    3d7c:	1e230615 	mcrne	6, 1, r0, cr3, cr5, {0}
    3d80:	77030000 	strvc	r0, [r3, -r0]
    3d84:	0000002c 	andeq	r0, r0, ip, lsr #32
    3d88:	06162302 	ldreq	r2, [r6], -r2, lsl #6
    3d8c:	00001e79 	andeq	r1, r0, r9, ror lr
    3d90:	002c7803 	eoreq	r7, ip, r3, lsl #16
    3d94:	23020000 	movwcs	r0, #8192	; 0x2000
    3d98:	e5050017 	str	r0, [r5, #-23]	; 0xffffffe9
    3d9c:	0100001d 	tsteq	r0, sp, lsl r0
    3da0:	03337e03 	teqeq	r3, #3, 28	; 0x30
    3da4:	e9060000 	stmdb	r6, {}	; <UNPREDICTABLE>
    3da8:	0300001d 	movweq	r0, #29
    3dac:	0003337f 	andeq	r3, r3, pc, ror r3
    3db0:	00230200 	eoreq	r0, r3, r0, lsl #4
    3db4:	008c0800 	addeq	r0, ip, r0, lsl #16
    3db8:	03430000 	movteq	r0, #12288	; 0x3000
    3dbc:	69090000 	stmdbvs	r9, {}	; <UNPREDICTABLE>
    3dc0:	00000000 	andeq	r0, r0, r0
    3dc4:	1cf90500 	cfldr64ne	mvdx0, [r9]
    3dc8:	030c0000 	movweq	r0, #49152	; 0xc000
    3dcc:	00038885 	andeq	r8, r3, r5, lsl #17
    3dd0:	1d0c0600 	stcne	6, cr0, [ip, #-0]
    3dd4:	86030000 	strhi	r0, [r3], -r0
    3dd8:	0000005e 	andeq	r0, r0, lr, asr r0
    3ddc:	06002302 	streq	r2, [r0], -r2, lsl #6
    3de0:	00001e02 	andeq	r1, r0, r2, lsl #28
    3de4:	005e8703 	subseq	r8, lr, r3, lsl #14
    3de8:	23020000 	movwcs	r0, #8192	; 0x2000
    3dec:	1db90604 	ldcne	6, cr0, [r9, #16]!
    3df0:	88030000 	stmdahi	r3, {}	; <UNPREDICTABLE>
    3df4:	0000002c 	andeq	r0, r0, ip, lsr #32
    3df8:	06082302 	streq	r2, [r8], -r2, lsl #6
    3dfc:	00001d71 	andeq	r1, r0, r1, ror sp
    3e00:	002c8903 	eoreq	r8, ip, r3, lsl #18
    3e04:	23020000 	movwcs	r0, #8192	; 0x2000
    3e08:	18050009 	stmdane	r5, {r0, r3}
    3e0c:	0400001e 	streq	r0, [r0], #-30	; 0xffffffe2
    3e10:	03a38f03 			; <UNDEFINED> instruction: 0x03a38f03
    3e14:	69060000 	stmdbvs	r6, {}	; <UNPREDICTABLE>
    3e18:	0300001d 	movweq	r0, #29
    3e1c:	00005e90 	muleq	r0, r0, lr
    3e20:	00230200 	eoreq	r0, r3, r0, lsl #4
    3e24:	03180a00 	tsteq	r8, #0, 20
    3e28:	00042595 	muleq	r4, r5, r5
    3e2c:	1ea40b00 	vfmane.f64	d0, d4, d0
    3e30:	96030000 	strls	r0, [r3], -r0
    3e34:	000000bc 	strheq	r0, [r0], -ip
    3e38:	6d656d0c 	stclvs	13, cr6, [r5, #-48]!	; 0xffffffd0
    3e3c:	f3970300 	vsubw.u16	q0, <illegal reg q3.5>, d0
    3e40:	0b000000 	bleq	3e48 <InitPower+0x5dc>
    3e44:	00001d86 	andeq	r1, r0, r6, lsl #27
    3e48:	011c9803 	tsteq	ip, r3, lsl #16
    3e4c:	400b0000 	andmi	r0, fp, r0
    3e50:	0300001e 	movweq	r0, #30
    3e54:	0001a399 	muleq	r1, r9, r3
    3e58:	1cf20b00 	vldmiane	r2!, {d16-d15}
    3e5c:	9a030000 	bls	c3e64 <__bss_end__+0xbdd24>
    3e60:	000001da 	ldrdeq	r0, [r0], -sl
    3e64:	001ecc0b 	andseq	ip, lr, fp, lsl #24
    3e68:	039b0300 	orrseq	r0, fp, #0, 6
    3e6c:	0b000002 	bleq	3e7c <InitPower+0x610>
    3e70:	00001dd7 	ldrdeq	r1, [r0], -r7
    3e74:	022c9c03 	eoreq	r9, ip, #768	; 0x300
    3e78:	9b0b0000 	blls	2c3e80 <__bss_end__+0x2bdd40>
    3e7c:	0300001d 	movweq	r0, #29
    3e80:	0002479d 	muleq	r2, sp, r7
    3e84:	1de90b00 	stclne	11, cr0, [r9]
    3e88:	9e030000 	cdpls	0, 0, cr0, cr3, cr0, {0}
    3e8c:	00000318 	andeq	r0, r0, r8, lsl r3
    3e90:	001cfd0b 	andseq	pc, ip, fp, lsl #26
    3e94:	43a30300 			; <UNDEFINED> instruction: 0x43a30300
    3e98:	0b000003 	bleq	3eac <InitPower+0x640>
    3e9c:	00001e1c 	andeq	r1, r0, ip, lsl lr
    3ea0:	0388a803 	orreq	sl, r8, #196608	; 0x30000
    3ea4:	0d000000 	stceq	0, cr0, [r0, #-0]
    3ea8:	00676174 	rsbeq	r6, r7, r4, ror r1
    3eac:	4c930320 	ldcmi	3, cr0, [r3], {32}
    3eb0:	07000004 	streq	r0, [r0, -r4]
    3eb4:	00726468 	rsbseq	r6, r2, r8, ror #8
    3eb8:	00939403 	addseq	r9, r3, r3, lsl #8
    3ebc:	23020000 	movwcs	r0, #8192	; 0x2000
    3ec0:	00750700 	rsbseq	r0, r5, r0, lsl #14
    3ec4:	03a3a903 			; <UNDEFINED> instruction: 0x03a3a903
    3ec8:	23020000 	movwcs	r0, #8192	; 0x2000
    3ecc:	010e0008 	tsteq	lr, r8
    3ed0:	00001d5c 	andeq	r1, r0, ip, asr sp
    3ed4:	90010801 	andls	r0, r1, r1, lsl #16
    3ed8:	c4000049 	strgt	r0, [r0], #-73	; 0xffffffb7
    3edc:	a000004b 	andge	r0, r0, fp, asr #32
    3ee0:	80000009 	andhi	r0, r0, r9
    3ee4:	0f000004 	svceq	0x00000004
    3ee8:	0000038b 	andeq	r0, r0, fp, lsl #7
    3eec:	00570801 	subseq	r0, r7, r1, lsl #16
    3ef0:	91020000 	mrsls	r0, (UNDEF: 2)
    3ef4:	0069106c 	rsbeq	r1, r9, ip, rrx
    3ef8:	00570a01 	subseq	r0, r7, r1, lsl #20
    3efc:	91020000 	mrsls	r0, (UNDEF: 2)
    3f00:	8c080074 	stchi	0, cr0, [r8], {116}	; 0x74
    3f04:	90000000 	andls	r0, r0, r0
    3f08:	09000004 	stmdbeq	r0, {r2}
    3f0c:	00000069 	andeq	r0, r0, r9, rrx
    3f10:	9011008a 	andsls	r0, r1, sl, lsl #1
    3f14:	0100001d 	tsteq	r0, sp, lsl r0
    3f18:	00048003 	andeq	r8, r4, r3
    3f1c:	12010100 	andne	r0, r1, #0, 2
    3f20:	07010070 	smlsdxeq	r1, r0, r0, r0
    3f24:	000004a8 	andeq	r0, r0, r8, lsr #9
    3f28:	04130101 	ldreq	r0, [r3], #-257	; 0xfffffeff
    3f2c:	00000425 	andeq	r0, r0, r5, lsr #8
    3f30:	001d9014 	andseq	r9, sp, r4, lsl r0
    3f34:	80030100 	andhi	r0, r3, r0, lsl #2
    3f38:	01000004 	tsteq	r0, r4
    3f3c:	60100305 	andsvs	r0, r0, r5, lsl #6
    3f40:	70150000 	andsvc	r0, r5, r0
    3f44:	a8070100 	stmdage	r7, {r8}
    3f48:	01000004 	tsteq	r0, r4
    3f4c:	611c0305 	tstvs	ip, r5, lsl #6
    3f50:	8e000000 	cdphi	0, 0, cr0, cr0, cr0, {0}
    3f54:	02000003 	andeq	r0, r0, #3
    3f58:	0005b600 	andeq	fp, r5, r0, lsl #12
    3f5c:	0e010400 	cfcpyseq	mvf0, mvf1
    3f60:	01000000 	mrseq	r0, (UNDEF: 0)
    3f64:	00001edd 	ldrdeq	r1, [r0], -sp
    3f68:	00000080 	andeq	r0, r0, r0, lsl #1
    3f6c:	00004bc4 	andeq	r4, r0, r4, asr #23
    3f70:	00005320 	andeq	r5, r0, r0, lsr #6
    3f74:	00000775 	andeq	r0, r0, r5, ror r7
    3f78:	51080102 	tstpl	r8, r2, lsl #2
    3f7c:	02000000 	andeq	r0, r0, #0
    3f80:	006d0702 	rsbeq	r0, sp, r2, lsl #14
    3f84:	04020000 	streq	r0, [r2], #-0
    3f88:	00003c07 	andeq	r3, r0, r7, lsl #24
    3f8c:	05040200 	streq	r0, [r4, #-512]	; 0xfffffe00
    3f90:	00000005 	andeq	r0, r0, r5
    3f94:	1f010103 	svcne	0x00010103
    3f98:	07010000 	streq	r0, [r1, -r0]
    3f9c:	00008701 	andeq	r8, r0, r1, lsl #14
    3fa0:	004bc400 	subeq	ip, fp, r0, lsl #8
    3fa4:	004c3000 	subeq	r3, ip, r0
    3fa8:	0009cc00 	andeq	ip, r9, r0, lsl #24
    3fac:	00008700 	andeq	r8, r0, r0, lsl #14
    3fb0:	1efc0400 	cdpne	4, 15, cr0, cr12, cr0, {0}
    3fb4:	07010000 	streq	r0, [r1, -r0]
    3fb8:	00000087 	andeq	r0, r0, r7, lsl #1
    3fbc:	056c9102 	strbeq	r9, [ip, #-258]!	; 0xfffffefe
    3fc0:	00637273 	rsbeq	r7, r3, r3, ror r2
    3fc4:	00940701 	addseq	r0, r4, r1, lsl #14
    3fc8:	91020000 	mrsls	r0, (UNDEF: 2)
    3fcc:	00700668 	rsbseq	r0, r0, r8, ror #12
    3fd0:	00870901 	addeq	r0, r7, r1, lsl #18
    3fd4:	91020000 	mrsls	r0, (UNDEF: 2)
    3fd8:	04070074 	streq	r0, [r7], #-116	; 0xffffff8c
    3fdc:	0000008d 	andeq	r0, r0, sp, lsl #1
    3fe0:	5a080102 	bpl	2043f0 <__bss_end__+0x1fe2b0>
    3fe4:	07000000 	streq	r0, [r0, -r0]
    3fe8:	00009a04 	andeq	r9, r0, r4, lsl #20
    3fec:	008d0800 	addeq	r0, sp, r0, lsl #16
    3ff0:	01030000 	mrseq	r0, (UNDEF: 3)
    3ff4:	00001f23 	andeq	r1, r0, r3, lsr #30
    3ff8:	fd011301 	stc2	3, cr1, [r1, #-4]
    3ffc:	30000000 	andcc	r0, r0, r0
    4000:	b000004c 	andlt	r0, r0, ip, asr #32
    4004:	f800004c 			; <UNDEFINED> instruction: 0xf800004c
    4008:	fd000009 	stc2	0, cr0, [r0, #-36]	; 0xffffffdc
    400c:	04000000 	streq	r0, [r0], #-0
    4010:	00001efc 	strdeq	r1, [r0], -ip
    4014:	00fd1301 	rscseq	r1, sp, r1, lsl #6
    4018:	91020000 	mrsls	r0, (UNDEF: 2)
    401c:	7273056c 	rsbsvc	r0, r3, #108, 10	; 0x1b000000
    4020:	13010063 	movwne	r0, #4195	; 0x1063
    4024:	000000ff 	strdeq	r0, [r0], -pc	; <UNPREDICTABLE>
    4028:	05689102 	strbeq	r9, [r8, #-258]!	; 0xfffffefe
    402c:	1301006e 	movwne	r0, #4206	; 0x106e
    4030:	00000106 	andeq	r0, r0, r6, lsl #2
    4034:	06649102 	strbteq	r9, [r4], -r2, lsl #2
    4038:	15010070 	strne	r0, [r1, #-112]	; 0xffffff90
    403c:	00000087 	andeq	r0, r0, r7, lsl #1
    4040:	06749102 	ldrbteq	r9, [r4], -r2, lsl #2
    4044:	16010071 			; <UNDEFINED> instruction: 0x16010071
    4048:	00000087 	andeq	r0, r0, r7, lsl #1
    404c:	00709102 	rsbseq	r9, r0, r2, lsl #2
    4050:	04070409 	streq	r0, [r7], #-1033	; 0xfffffbf7
    4054:	00000105 	andeq	r0, r0, r5, lsl #2
    4058:	05040b0a 	streq	r0, [r4, #-2826]	; 0xfffff4f6
    405c:	00746e69 	rsbseq	r6, r4, r9, ror #28
    4060:	1f170103 	svcne	0x00170103
    4064:	21010000 	mrscs	r0, (UNDEF: 1)
    4068:	00010601 	andeq	r0, r1, r1, lsl #12
    406c:	004cb000 	subeq	fp, ip, r0
    4070:	004d4800 	subeq	r4, sp, r0, lsl #16
    4074:	000a2400 	andeq	r2, sl, r0, lsl #8
    4078:	00014500 	andeq	r4, r1, r0, lsl #10
    407c:	31730500 	cmncc	r3, r0, lsl #10
    4080:	94210100 	strtls	r0, [r1], #-256	; 0xffffff00
    4084:	02000000 	andeq	r0, r0, #0
    4088:	73057491 	movwvc	r7, #21649	; 0x5491
    408c:	21010032 	tstcs	r1, r2, lsr r0
    4090:	00000094 	muleq	r0, r4, r0
    4094:	00709102 	rsbseq	r9, r0, r2, lsl #2
    4098:	1ef50103 	cdpne	1, 15, cr0, cr5, cr3, {0}
    409c:	31010000 	mrscc	r0, (UNDEF: 1)
    40a0:	00010601 	andeq	r0, r1, r1, lsl #12
    40a4:	004d4800 	subeq	r4, sp, r0, lsl #16
    40a8:	004d9c00 	subeq	r9, sp, r0, lsl #24
    40ac:	000a5000 	andeq	r5, sl, r0
    40b0:	00017b00 	andeq	r7, r1, r0, lsl #22
    40b4:	00730500 	rsbseq	r0, r3, r0, lsl #10
    40b8:	00943101 	addseq	r3, r4, r1, lsl #2
    40bc:	91020000 	mrsls	r0, (UNDEF: 2)
    40c0:	0070066c 	rsbseq	r0, r0, ip, ror #12
    40c4:	00943301 	addseq	r3, r4, r1, lsl #6
    40c8:	91020000 	mrsls	r0, (UNDEF: 2)
    40cc:	01030074 	tsteq	r3, r4, ror r0
    40d0:	00001ee3 	andeq	r1, r0, r3, ror #29
    40d4:	06013d01 	streq	r3, [r1], -r1, lsl #26
    40d8:	9c000001 	stcls	0, cr0, [r0], {1}
    40dc:	1800004d 	stmdane	r0, {r0, r2, r3, r6}
    40e0:	7c00004e 	stcvc	0, cr0, [r0], {78}	; 0x4e
    40e4:	cb00000a 	blgt	4114 <PrintHex+0x170>
    40e8:	05000001 	streq	r0, [r0, #-1]
    40ec:	3d010079 	stccc	0, cr0, [r1, #-484]	; 0xfffffe1c
    40f0:	00000106 	andeq	r0, r0, r6, lsl #2
    40f4:	056c9102 	strbeq	r9, [ip, #-258]!	; 0xfffffefe
    40f8:	3d010078 	stccc	0, cr0, [r1, #-480]	; 0xfffffe20
    40fc:	00000106 	andeq	r0, r0, r6, lsl #2
    4100:	0c689102 	stfeqp	f1, [r8], #-8
    4104:	00001423 	andeq	r1, r0, r3, lsr #8
    4108:	01063f01 	tsteq	r6, r1, lsl #30
    410c:	91020000 	mrsls	r0, (UNDEF: 2)
    4110:	00690674 	rsbeq	r0, r9, r4, ror r6
    4114:	01063f01 	tsteq	r6, r1, lsl #30
    4118:	91020000 	mrsls	r0, (UNDEF: 2)
    411c:	01030070 	tsteq	r3, r0, ror r0
    4120:	00001f12 	andeq	r1, r0, r2, lsl pc
    4124:	06014d01 	streq	r4, [r1], -r1, lsl #26
    4128:	18000001 	stmdane	r0, {r0}
    412c:	f400004e 	vst4.16	{d0-d3}, [r0], lr
    4130:	a800004e 	stmdage	r0, {r1, r2, r3, r6}
    4134:	1f00000a 	svcne	0x0000000a
    4138:	04000002 	streq	r0, [r0], #-2
    413c:	00001f1e 	andeq	r1, r0, lr, lsl pc
    4140:	00944d01 	addseq	r4, r4, r1, lsl #26
    4144:	91020000 	mrsls	r0, (UNDEF: 2)
    4148:	656c065c 	strbvs	r0, [ip, #-1628]!	; 0xfffff9a4
    414c:	4f01006e 	svcmi	0x0001006e
    4150:	00000106 	andeq	r0, r0, r6, lsl #2
    4154:	06649102 	strbteq	r9, [r4], -r2, lsl #2
    4158:	4f010069 	svcmi	0x00010069
    415c:	00000106 	andeq	r0, r0, r6, lsl #2
    4160:	066c9102 	strbteq	r9, [ip], -r2, lsl #2
    4164:	006d7573 	rsbeq	r7, sp, r3, ror r5
    4168:	01064f01 	tsteq	r6, r1, lsl #30
    416c:	91020000 	mrsls	r0, (UNDEF: 2)
    4170:	01030068 	tsteq	r3, r8, rrx
    4174:	00001ef0 	strdeq	r1, [r0], -r0
    4178:	06016201 	streq	r6, [r1], -r1, lsl #4
    417c:	f4000001 	vst4.8	{d0-d3}, [r0], r1
    4180:	d400004e 	strle	r0, [r0], #-78	; 0xffffffb2
    4184:	d4000050 	strle	r0, [r0], #-80	; 0xffffffb0
    4188:	7300000a 	movwvc	r0, #10
    418c:	04000002 	streq	r0, [r0], #-2
    4190:	00001f1e 	andeq	r1, r0, lr, lsl pc
    4194:	00946201 	addseq	r6, r4, r1, lsl #4
    4198:	91020000 	mrsls	r0, (UNDEF: 2)
    419c:	656c065c 	strbvs	r0, [ip, #-1628]!	; 0xfffff9a4
    41a0:	6401006e 	strvs	r0, [r1], #-110	; 0xffffff92
    41a4:	00000106 	andeq	r0, r0, r6, lsl #2
    41a8:	06649102 	strbteq	r9, [r4], -r2, lsl #2
    41ac:	64010069 	strvs	r0, [r1], #-105	; 0xffffff97
    41b0:	00000106 	andeq	r0, r0, r6, lsl #2
    41b4:	066c9102 	strbteq	r9, [ip], -r2, lsl #2
    41b8:	006d7573 	rsbeq	r7, sp, r3, ror r5
    41bc:	01066401 	tsteq	r6, r1, lsl #8
    41c0:	91020000 	mrsls	r0, (UNDEF: 2)
    41c4:	01030068 	tsteq	r3, r8, rrx
    41c8:	00001ee9 	andeq	r1, r0, r9, ror #29
    41cc:	06017f01 	streq	r7, [r1], -r1, lsl #30
    41d0:	d4000001 	strle	r0, [r0], #-1
    41d4:	6c000050 	stcvs	0, cr0, [r0], {80}	; 0x50
    41d8:	00000051 	andeq	r0, r0, r1, asr r0
    41dc:	9f00000b 	svcls	0x0000000b
    41e0:	04000002 	streq	r0, [r0], #-2
    41e4:	00001f1e 	andeq	r1, r0, lr, lsl pc
    41e8:	00947f01 	addseq	r7, r4, r1, lsl #30
    41ec:	91020000 	mrsls	r0, (UNDEF: 2)
    41f0:	01030074 	tsteq	r3, r4, ror r0
    41f4:	00001f0d 	andeq	r1, r0, sp, lsl #30
    41f8:	87018d01 	strhi	r8, [r1, -r1, lsl #26]
    41fc:	6c000000 	stcvs	0, cr0, [r0], {-0}
    4200:	5c000051 	stcpl	0, cr0, [r0], {81}	; 0x51
    4204:	2c000052 	stccs	0, cr0, [r0], {82}	; 0x52
    4208:	0400000b 	streq	r0, [r0], #-11
    420c:	05000003 	streq	r0, [r0, #-3]
    4210:	006d756e 	rsbeq	r7, sp, lr, ror #10
    4214:	00338d01 	eorseq	r8, r3, r1, lsl #26
    4218:	91020000 	mrsls	r0, (UNDEF: 2)
    421c:	65680654 	strbvs	r0, [r8, #-1620]!	; 0xfffff9ac
    4220:	8f010078 	svchi	0x00010078
    4224:	00000304 	andeq	r0, r0, r4, lsl #6
    4228:	609c0305 	addsvs	r0, ip, r5, lsl #6
    422c:	69060000 	stmdbvs	r6, {}	; <UNPREDICTABLE>
    4230:	06900100 	ldreq	r0, [r0], r0, lsl #2
    4234:	02000001 	andeq	r0, r0, #1
    4238:	70067491 	mulvc	r6, r1, r4
    423c:	0100736f 	tsteq	r0, pc, ror #6
    4240:	00010690 	muleq	r1, r0, r6
    4244:	70910200 	addsvc	r0, r1, r0, lsl #4
    4248:	74756c06 	ldrbtvc	r6, [r5], #-3078	; 0xfffff3fa
    424c:	24910100 	ldrcs	r0, [r1], #256	; 0x100
    4250:	02000003 	andeq	r0, r0, #3
    4254:	0d005c91 	stceq	12, cr5, [r0, #-580]	; 0xfffffdbc
    4258:	0000008d 	andeq	r0, r0, sp, lsl #1
    425c:	00000314 	andeq	r0, r0, r4, lsl r3
    4260:	0000330e 	andeq	r3, r0, lr, lsl #6
    4264:	0d000b00 	vstreq	d0, [r0, #-0]
    4268:	0000008d 	andeq	r0, r0, sp, lsl #1
    426c:	00000324 	andeq	r0, r0, r4, lsr #6
    4270:	0000330e 	andeq	r3, r0, lr, lsl #6
    4274:	08001000 	stmdaeq	r0, {ip}
    4278:	00000314 	andeq	r0, r0, r4, lsl r3
    427c:	1f08010f 	svcne	0x0008010f
    4280:	9d010000 	stcls	0, cr0, [r1, #-0]
    4284:	00008701 	andeq	r8, r0, r1, lsl #14
    4288:	00525c00 	subseq	r5, r2, r0, lsl #24
    428c:	00532000 	subseq	r2, r3, r0
    4290:	000b5800 	andeq	r5, fp, r0, lsl #16
    4294:	1f2a0400 	svcne	0x002a0400
    4298:	9d010000 	stcls	0, cr0, [r1, #-0]
    429c:	00000106 	andeq	r0, r0, r6, lsl #2
    42a0:	05649102 	strbeq	r9, [r4, #-258]!	; 0xfffffefe
    42a4:	00726863 	rsbseq	r6, r2, r3, ror #16
    42a8:	00879d01 	addeq	r9, r7, r1, lsl #26
    42ac:	91020000 	mrsls	r0, (UNDEF: 2)
    42b0:	00690660 	rsbeq	r0, r9, r0, ror #12
    42b4:	01069f01 	tsteq	r6, r1, lsl #30
    42b8:	91020000 	mrsls	r0, (UNDEF: 2)
    42bc:	006a0674 	rsbeq	r0, sl, r4, ror r6
    42c0:	01069f01 	tsteq	r6, r1, lsl #30
    42c4:	91020000 	mrsls	r0, (UNDEF: 2)
    42c8:	65740670 	ldrbvs	r0, [r4, #-1648]!	; 0xfffff990
    42cc:	9f01006d 	svcls	0x0001006d
    42d0:	00000106 	andeq	r0, r0, r6, lsl #2
    42d4:	066c9102 	strbteq	r9, [ip], -r2, lsl #2
    42d8:	9f010076 	svcls	0x00010076
    42dc:	00000106 	andeq	r0, r0, r6, lsl #2
    42e0:	00689102 	rsbeq	r9, r8, r2, lsl #2
    42e4:	0001f900 	andeq	pc, r1, r0, lsl #18
    42e8:	7a000200 	bvc	4af0 <init_taglist+0x160>
    42ec:	04000006 	streq	r0, [r0], #-6
    42f0:	00000e01 	andeq	r0, r0, r1, lsl #28
    42f4:	1f490100 	svcne	0x00490100
    42f8:	00800000 	addeq	r0, r0, r0
    42fc:	53200000 	teqpl	r0, #0
    4300:	55240000 	strpl	r0, [r4, #-0]!
    4304:	089a0000 	ldmeq	sl, {}	; <UNPREDICTABLE>
    4308:	01020000 	mrseq	r0, (UNDEF: 2)
    430c:	00005306 	andeq	r5, r0, r6, lsl #6
    4310:	08010200 	stmdaeq	r1, {r9}
    4314:	00000051 	andeq	r0, r0, r1, asr r0
    4318:	a5050202 	strge	r0, [r5, #-514]	; 0xfffffdfe
    431c:	02000000 	andeq	r0, r0, #0
    4320:	006d0702 	rsbeq	r0, sp, r2, lsl #14
    4324:	04030000 	streq	r0, [r3], #-0
    4328:	746e6905 	strbtvc	r6, [lr], #-2309	; 0xfffff6fb
    432c:	07040200 	streq	r0, [r4, -r0, lsl #4]
    4330:	0000003c 	andeq	r0, r0, ip, lsr r0
    4334:	00050802 	andeq	r0, r5, r2, lsl #16
    4338:	02000000 	andeq	r0, r0, #0
    433c:	00320708 	eorseq	r0, r2, r8, lsl #14
    4340:	04020000 	streq	r0, [r2], #-0
    4344:	00003707 	andeq	r3, r0, r7, lsl #14
    4348:	05040200 	streq	r0, [r4, #-512]	; 0xfffffe00
    434c:	00000005 	andeq	r0, r0, r5
    4350:	00710404 	rsbseq	r0, r1, r4, lsl #8
    4354:	01020000 	mrseq	r0, (UNDEF: 2)
    4358:	00005a08 	andeq	r5, r0, r8, lsl #20
    435c:	e9010500 	stmdb	r1, {r8, sl}
    4360:	0100001d 	tsteq	r0, sp, lsl r0
    4364:	00410107 	subeq	r0, r1, r7, lsl #2
    4368:	53200000 	teqpl	r0, #0
    436c:	53580000 	cmppl	r8, #0
    4370:	0b840000 	bleq	fe104378 <__bss_end__+0xfe0fe238>
    4374:	00b30000 	adcseq	r0, r3, r0
    4378:	56060000 	strpl	r0, [r6], -r0
    437c:	0100001f 	tsteq	r0, pc, lsl r0
    4380:	0000b307 	andeq	fp, r0, r7, lsl #6
    4384:	74910200 	ldrvc	r0, [r1], #512	; 0x200
    4388:	6d630107 	stfvse	f0, [r3, #-28]!	; 0xffffffe4
    438c:	0c010064 	stceq	0, cr0, [r1], {100}	; 0x64
    4390:	00000041 	andeq	r0, r0, r1, asr #32
    4394:	00000801 	andeq	r0, r0, r1, lsl #16
    4398:	006b0404 	rsbeq	r0, fp, r4, lsl #8
    439c:	01090000 	mrseq	r0, (UNDEF: 9)
    43a0:	00646d63 	rsbeq	r6, r4, r3, ror #26
    43a4:	41011101 	tstmi	r1, r1, lsl #2
    43a8:	58000000 	stmdapl	r0, {}	; <UNPREDICTABLE>
    43ac:	64000053 	strvs	r0, [r0], #-83	; 0xffffffad
    43b0:	b0000054 	andlt	r0, r0, r4, asr r0
    43b4:	0100000b 	tsteq	r0, fp
    43b8:	0a000001 	beq	43c4 <PrintBatteryVoltage+0x118>
    43bc:	00646d63 	rsbeq	r6, r4, r3, ror #26
    43c0:	006b1101 	rsbeq	r1, fp, r1, lsl #2
    43c4:	91020000 	mrsls	r0, (UNDEF: 2)
    43c8:	1f56066c 	svcne	0x0056066c
    43cc:	11010000 	mrsne	r0, (UNDEF: 1)
    43d0:	000000b3 	strheq	r0, [r0], -r3
    43d4:	0b689102 	bleq	1a287e4 <__bss_end__+0x1a226a4>
    43d8:	006d756e 	rsbeq	r7, sp, lr, ror #10
    43dc:	00411301 	subeq	r1, r1, r1, lsl #6
    43e0:	91020000 	mrsls	r0, (UNDEF: 2)
    43e4:	010c0074 	tsteq	ip, r4, ror r0
    43e8:	00001f32 	andeq	r1, r0, r2, lsr pc
    43ec:	64012e01 	strvs	r2, [r1], #-3585	; 0xfffff1ff
    43f0:	dc000054 	stcle	0, cr0, [r0], {84}	; 0x54
    43f4:	dc000054 	stcle	0, cr0, [r0], {84}	; 0x54
    43f8:	6100000b 	tstvs	r0, fp
    43fc:	0a000001 	beq	4408 <PrintBatteryVoltage+0x15c>
    4400:	00646d63 	rsbeq	r6, r4, r3, ror #26
    4404:	006b2e01 	rsbeq	r2, fp, r1, lsl #28
    4408:	91020000 	mrsls	r0, (UNDEF: 2)
    440c:	00690b6c 	rsbeq	r0, r9, ip, ror #22
    4410:	00413001 	subeq	r3, r1, r1
    4414:	91020000 	mrsls	r0, (UNDEF: 2)
    4418:	e9010d74 	stmdb	r1, {r2, r4, r5, r6, r8, sl, fp}
    441c:	0100001e 	tsteq	r0, lr, lsl r0
    4420:	00004139 	andeq	r4, r0, r9, lsr r1
    4424:	01470100 	mrseq	r0, (UNDEF: 87)
    4428:	00080000 	andeq	r0, r8, r0
    442c:	0054900e 	subseq	r9, r4, lr
    4430:	0054a000 	subseq	sl, r4, r0
    4434:	4f010f00 	svcmi	0x00010f00
    4438:	0100001f 	tsteq	r0, pc, lsl r0
    443c:	00004137 	andeq	r4, r0, r7, lsr r1
    4440:	00080100 	andeq	r0, r8, r0, lsl #2
    4444:	010c0000 	mrseq	r0, (UNDEF: 12)
    4448:	00001f3a 	andeq	r1, r0, sl, lsr pc
    444c:	dc013e01 	stcle	14, cr3, [r1], {1}
    4450:	24000054 	strcs	r0, [r0], #-84	; 0xffffffac
    4454:	08000055 	stmdaeq	r0, {r0, r2, r4, r6}
    4458:	b100000c 	tstlt	r0, ip
    445c:	0a000001 	beq	4468 <PowerExecute5VoltsToBatteryHandoff>
    4460:	00646d63 	rsbeq	r6, r4, r3, ror #26
    4464:	006b3e01 	rsbeq	r3, fp, r1, lsl #28
    4468:	91020000 	mrsls	r0, (UNDEF: 2)
    446c:	00700b6c 	rsbseq	r0, r0, ip, ror #22
    4470:	00484001 	subeq	r4, r8, r1
    4474:	91020000 	mrsls	r0, (UNDEF: 2)
    4478:	6f670b74 	svcvs	0x00670b74
    447c:	c7410100 	strbgt	r0, [r1, -r0, lsl #2]
    4480:	02000001 	andeq	r0, r0, #1
    4484:	010f7091 	swpeq	r7, r1, [pc]	; <UNPREDICTABLE>
    4488:	00001ee9 	andeq	r1, r0, r9, ror #29
    448c:	00413901 	subeq	r3, r1, r1, lsl #18
    4490:	08010000 	stmdaeq	r1, {}	; <UNPREDICTABLE>
    4494:	01100000 	tsteq	r0, r0
    4498:	000001c7 	andeq	r0, r0, r7, asr #3
    449c:	00004111 	andeq	r4, r0, r1, lsl r1
    44a0:	00411100 	subeq	r1, r1, r0, lsl #2
    44a4:	48110000 	ldmdami	r1, {}	; <UNPREDICTABLE>
    44a8:	00000000 	andeq	r0, r0, r0
    44ac:	01b10404 			; <UNDEFINED> instruction: 0x01b10404
    44b0:	71120000 	tstvc	r2, r0
    44b4:	dd000000 	stcle	0, cr0, [r0, #-0]
    44b8:	13000001 	movwne	r0, #1
    44bc:	00000048 	andeq	r0, r0, r8, asr #32
    44c0:	4114001f 	tstmi	r4, pc, lsl r0
    44c4:	0100001f 	tsteq	r0, pc, lsl r0
    44c8:	0001cd05 	andeq	ip, r1, r5, lsl #26
    44cc:	15010100 	strne	r0, [r1, #-256]	; 0xffffff00
    44d0:	00001f41 	andeq	r1, r0, r1, asr #30
    44d4:	01cd0501 	biceq	r0, sp, r1, lsl #10
    44d8:	05010000 	streq	r0, [r1, #-0]
    44dc:	00612003 	rsbeq	r2, r1, r3
    44e0:	00f10000 	rscseq	r0, r1, r0
    44e4:	00020000 	andeq	r0, r2, r0
    44e8:	000007aa 	andeq	r0, r0, sl, lsr #15
    44ec:	000e0104 	andeq	r0, lr, r4, lsl #2
    44f0:	5b010000 	blpl	444f8 <__bss_end__+0x3e3b8>
    44f4:	8000001f 	andhi	r0, r0, pc, lsl r0
    44f8:	24000000 	strcs	r0, [r0], #-0
    44fc:	bc000055 	stclt	0, cr0, [r0], {85}	; 0x55
    4500:	14000055 	strne	r0, [r0], #-85	; 0xffffffab
    4504:	02000009 	andeq	r0, r0, #9
    4508:	0000085a 	andeq	r0, r0, sl, asr r8
    450c:	00301203 	eorseq	r1, r0, r3, lsl #4
    4510:	04030000 	streq	r0, [r3], #-0
    4514:	00003c07 	andeq	r3, r0, r7, lsl #24
    4518:	07020300 	streq	r0, [r2, -r0, lsl #6]
    451c:	0000006d 	andeq	r0, r0, sp, rrx
    4520:	51080103 	tstpl	r8, r3, lsl #2
    4524:	04000000 	streq	r0, [r0], #-0
    4528:	04200204 	strteq	r0, [r0], #-516	; 0xfffffdfc
    452c:	0000005e 	andeq	r0, r0, lr, asr r0
    4530:	0005e905 	andeq	lr, r5, r5, lsl #18
    4534:	04220200 	strteq	r0, [r2], #-512	; 0xfffffe00
    4538:	00000025 	andeq	r0, r0, r5, lsr #32
    453c:	00002302 	andeq	r2, r0, r2, lsl #6
    4540:	1d020406 	cfstrsne	mvf0, [r2, #-24]	; 0xffffffe8
    4544:	00007c04 	andeq	r7, r0, r4, lsl #24
    4548:	00550700 	subseq	r0, r5, r0, lsl #14
    454c:	25041f02 	strcs	r1, [r4, #-3842]	; 0xfffff0fe
    4550:	07000000 	streq	r0, [r0, -r0]
    4554:	23020042 	movwcs	r0, #8258	; 0x2042
    4558:	00004504 	andeq	r4, r0, r4, lsl #10
    455c:	2b080000 	blcs	204564 <__bss_end__+0x1fe424>
    4560:	02000003 	andeq	r0, r0, #3
    4564:	005e0424 	subseq	r0, lr, r4, lsr #8
    4568:	04090000 	streq	r0, [r9], #-0
    456c:	746e6905 	strbtvc	r6, [lr], #-2309	; 0xfffff6fb
    4570:	115b0200 	cmpne	fp, r0, lsl #4
    4574:	d6040000 	strle	r0, [r4], -r0
    4578:	00000030 	andeq	r0, r0, r0, lsr r0
    457c:	1f68010a 	svcne	0x0068010a
    4580:	08010000 	stmdaeq	r1, {}	; <UNPREDICTABLE>
    4584:	00552401 	subseq	r2, r5, r1, lsl #8
    4588:	00557000 	subseq	r7, r5, r0
    458c:	000c3400 	andeq	r3, ip, r0, lsl #8
    4590:	0000d000 	andeq	sp, r0, r0
    4594:	1f630b00 	svcne	0x00630b00
    4598:	08010000 	stmdaeq	r1, {}	; <UNPREDICTABLE>
    459c:	00000088 	andeq	r0, r0, r8, lsl #1
    45a0:	0c6c9102 	stfeqp	f1, [ip], #-8
    45a4:	00001f79 	andeq	r1, r0, r9, ror pc
    45a8:	00880a01 	addeq	r0, r8, r1, lsl #20
    45ac:	91020000 	mrsls	r0, (UNDEF: 2)
    45b0:	010d0074 	tsteq	sp, r4, ror r0
    45b4:	00001f4f 	andeq	r1, r0, pc, asr #30
    45b8:	70011201 	andvc	r1, r1, r1, lsl #4
    45bc:	bc000055 	stclt	0, cr0, [r0], {85}	; 0x55
    45c0:	60000055 	andvs	r0, r0, r5, asr r0
    45c4:	0b00000c 	bleq	45fc <PowerStopCharger+0x4c>
    45c8:	00001f63 	andeq	r1, r0, r3, ror #30
    45cc:	00881201 	addeq	r1, r8, r1, lsl #4
    45d0:	91020000 	mrsls	r0, (UNDEF: 2)
    45d4:	52000074 	andpl	r0, r0, #116	; 0x74
    45d8:	02000000 	andeq	r0, r0, #0
    45dc:	00086e00 	andeq	r6, r8, r0, lsl #28
    45e0:	86010400 	strhi	r0, [r1], -r0, lsl #8
    45e4:	00000009 	andeq	r0, r0, r9
    45e8:	98000000 	stmdals	r0, {}	; <UNPREDICTABLE>
    45ec:	65000000 	strvs	r0, [r0, #-0]
    45f0:	7972746e 	ldmdbvc	r2!, {r1, r2, r3, r5, r6, sl, ip, sp, lr}^
    45f4:	2f00532e 	svccs	0x0000532e
    45f8:	656d6f68 	strbvs	r6, [sp, #-3944]!	; 0xfffff098
    45fc:	6573622f 	ldrbvs	r6, [r3, #-559]!	; 0xfffffdd1
    4600:	72612f63 	rsbvc	r2, r1, #396	; 0x18c
    4604:	4d692f6d 	stclmi	15, cr2, [r9, #-436]!	; 0xfffffe4c
    4608:	33333258 	teqcc	r3, #88, 4	; 0x80000005
    460c:	5053425f 	subspl	r4, r3, pc, asr r2
    4610:	622f325f 	eorvs	r3, pc, #-268435451	; 0xf0000005
    4614:	2f746f6f 	svccs	0x00746f6f
    4618:	00637273 	rsbeq	r7, r3, r3, ror r2
    461c:	20554e47 	subscs	r4, r5, r7, asr #28
    4620:	32205341 	eorcc	r5, r0, #67108865	; 0x4000001
    4624:	2e30322e 	cdpcs	2, 3, cr3, cr0, cr14, {1}
    4628:	01003135 	tsteq	r0, r5, lsr r1
    462c:	0004c580 	andeq	ip, r4, r0, lsl #11
    4630:	82000200 	andhi	r0, r0, #0, 4
    4634:	04000008 	streq	r0, [r0], #-8
    4638:	00000e01 	andeq	r0, r0, r1, lsl #28
    463c:	200b0100 	andcs	r0, fp, r0, lsl #2
    4640:	00800000 	addeq	r0, r0, r0
    4644:	55bc0000 	ldrpl	r0, [ip, #0]!
    4648:	57880000 	strpl	r0, [r8, r0]
    464c:	09de0000 	ldmibeq	lr, {}^	; <UNPREDICTABLE>
    4650:	01020000 	mrseq	r0, (UNDEF: 2)
    4654:	00005108 	andeq	r5, r0, r8, lsl #2
    4658:	07020200 	streq	r0, [r2, -r0, lsl #4]
    465c:	0000006d 	andeq	r0, r0, sp, rrx
    4660:	32337503 	eorscc	r7, r3, #12582912	; 0xc00000
    4664:	3e060200 	cdpcc	2, 0, cr0, cr6, cr0, {0}
    4668:	02000000 	andeq	r0, r0, #0
    466c:	003c0704 	eorseq	r0, ip, r4, lsl #14
    4670:	04020000 	streq	r0, [r2], #-0
    4674:	00000505 	andeq	r0, r0, r5, lsl #10
    4678:	65720300 	ldrbvs	r0, [r2, #-768]!	; 0xfffffd00
    467c:	06030067 	streq	r0, [r3], -r7, rrx
    4680:	00000057 	andeq	r0, r0, r7, asr r0
    4684:	00003e04 	andeq	r3, r0, r4, lsl #28
    4688:	03100500 	tsteq	r0, #0, 10
    468c:	00009d07 	andeq	r9, r0, r7, lsl #26
    4690:	61640600 	cmnvs	r4, r0, lsl #12
    4694:	08030074 	stmdaeq	r3, {r2, r4, r5, r6}
    4698:	00000057 	andeq	r0, r0, r7, asr r0
    469c:	06002302 	streq	r2, [r0], -r2, lsl #6
    46a0:	00746573 	rsbseq	r6, r4, r3, ror r5
    46a4:	00570903 	subseq	r0, r7, r3, lsl #18
    46a8:	23020000 	movwcs	r0, #8192	; 0x2000
    46ac:	6c630604 	stclvs	6, cr0, [r3], #-16
    46b0:	0a030072 	beq	c4880 <__bss_end__+0xbe740>
    46b4:	00000057 	andeq	r0, r0, r7, asr r0
    46b8:	06082302 	streq	r2, [r8], -r2, lsl #6
    46bc:	00676f74 	rsbeq	r6, r7, r4, ror pc
    46c0:	00570b03 	subseq	r0, r7, r3, lsl #22
    46c4:	23020000 	movwcs	r0, #8192	; 0x2000
    46c8:	d107000c 	tstle	r7, ip
    46cc:	0300001f 	movweq	r0, #31
    46d0:	00005c0c 	andeq	r5, r0, ip, lsl #24
    46d4:	03700500 	cmneq	r0, #0, 10
    46d8:	0001130e 	andeq	r1, r1, lr, lsl #6
    46dc:	20340800 	eorscs	r0, r4, r0, lsl #16
    46e0:	0f030000 	svceq	0x00030000
    46e4:	0000009d 	muleq	r0, sp, r0
    46e8:	08002302 	stmdaeq	r0, {r1, r8, r9, sp}
    46ec:	00001fd6 	ldrdeq	r1, [r0], -r6
    46f0:	009d1003 	addseq	r1, sp, r3
    46f4:	23020000 	movwcs	r0, #8192	; 0x2000
    46f8:	6d630610 	stclvs	6, cr0, [r3, #-64]!	; 0xffffffc0
    46fc:	11030064 	tstne	r3, r4, rrx
    4700:	0000009d 	muleq	r0, sp, r0
    4704:	08202302 	stmdaeq	r0!, {r1, r8, r9, sp}
    4708:	00001f44 	andeq	r1, r0, r4, asr #30
    470c:	009d1203 	addseq	r1, sp, r3, lsl #4
    4710:	23020000 	movwcs	r0, #8192	; 0x2000
    4714:	1f7f0830 	svcne	0x007f0830
    4718:	13030000 	movwne	r0, #12288	; 0x3000
    471c:	0000009d 	muleq	r0, sp, r0
    4720:	08402302 	stmdaeq	r0, {r1, r8, r9, sp}^
    4724:	00001ff0 	strdeq	r1, [r0], -r0
    4728:	009d1403 	addseq	r1, sp, r3, lsl #8
    472c:	23020000 	movwcs	r0, #8192	; 0x2000
    4730:	1ff70850 	svcne	0x00f70850
    4734:	15030000 	strne	r0, [r3, #-0]
    4738:	0000009d 	muleq	r0, sp, r0
    473c:	00602302 	rsbeq	r2, r0, r2, lsl #6
    4740:	001fa507 	andseq	sl, pc, r7, lsl #10
    4744:	a8160300 	ldmdage	r6, {r8, r9}
    4748:	05000000 	streq	r0, [r0, #-0]
    474c:	e2090404 	and	r0, r9, #4, 8	; 0x4000000
    4750:	09000001 	stmdbeq	r0, {r0}
    4754:	00646d63 	rsbeq	r6, r4, r3, ror #26
    4758:	00330b04 	eorseq	r0, r3, r4, lsl #22
    475c:	02040000 	andeq	r0, r4, #0
    4760:	0023021e 	eoreq	r0, r3, lr, lsl r2
    4764:	001f6f0a 	andseq	r6, pc, sl, lsl #30
    4768:	330c0400 	movwcc	r0, #50176	; 0xc400
    476c:	04000000 	streq	r0, [r0], #-0
    4770:	23021d01 	movwcs	r1, #11521	; 0x2d01
    4774:	20430a00 	subcs	r0, r3, r0, lsl #20
    4778:	0d040000 	stceq	0, cr0, [r4, #-0]
    477c:	00000033 	andeq	r0, r0, r3, lsr r0
    4780:	021c0104 	andseq	r0, ip, #4, 2
    4784:	160a0023 	strne	r0, [sl], -r3, lsr #32
    4788:	0400000b 	streq	r0, [r0], #-11
    478c:	0000330e 	andeq	r3, r0, lr, lsl #6
    4790:	1b010400 	blne	45798 <__bss_end__+0x3f658>
    4794:	0a002302 	beq	d3a4 <__bss_end__+0x7264>
    4798:	00001fbb 			; <UNDEFINED> instruction: 0x00001fbb
    479c:	00330f04 	eorseq	r0, r3, r4, lsl #30
    47a0:	01040000 	mrseq	r0, (UNDEF: 4)
    47a4:	0023021a 	eoreq	r0, r3, sl, lsl r2
    47a8:	6d657309 	stclvs	3, cr7, [r5, #-36]!	; 0xffffffdc
    47ac:	33100400 	tstcc	r0, #0, 8
    47b0:	04000000 	streq	r0, [r0], #-0
    47b4:	23021901 	movwcs	r1, #10497	; 0x2901
    47b8:	20620a00 	rsbcs	r0, r2, r0, lsl #20
    47bc:	11040000 	mrsne	r0, (UNDEF: 4)
    47c0:	00000033 	andeq	r0, r0, r3, lsr r0
    47c4:	02180104 	andseq	r0, r8, #4, 2
    47c8:	770a0023 	strvc	r0, [sl, -r3, lsr #32]
    47cc:	04000020 	streq	r0, [r0], #-32	; 0xffffffe0
    47d0:	00003312 	andeq	r3, r0, r2, lsl r3
    47d4:	17010400 	strne	r0, [r1, -r0, lsl #8]
    47d8:	0a002302 	beq	d3e8 <__bss_end__+0x72a8>
    47dc:	00001f84 	andeq	r1, r0, r4, lsl #31
    47e0:	00331304 	eorseq	r1, r3, r4, lsl #6
    47e4:	03040000 	movweq	r0, #16384	; 0x4000
    47e8:	00230214 	eoreq	r0, r3, r4, lsl r2
    47ec:	001fe20a 	andseq	lr, pc, sl, lsl #4
    47f0:	33140400 	tstcc	r4, #0, 8
    47f4:	04000000 	streq	r0, [r0], #-0
    47f8:	23021004 	movwcs	r1, #8196	; 0x2004
    47fc:	1fad0a00 	svcne	0x00ad0a00
    4800:	15040000 	strne	r0, [r4, #-0]
    4804:	00000033 	andeq	r0, r0, r3, lsr r0
    4808:	02001004 	andeq	r1, r0, #4
    480c:	0b000023 	bleq	48a0 <pin_init+0x5c>
    4810:	fd060404 	stc2	4, cr0, [r6, #-16]
    4814:	0c000001 	stceq	0, cr0, [r0], {1}
    4818:	08040075 	stmdaeq	r4, {r0, r2, r4, r5, r6}
    481c:	00000033 	andeq	r0, r0, r3, lsr r0
    4820:	0400620c 	streq	r6, [r0], #-524	; 0xfffffdf4
    4824:	00011e16 	andeq	r1, r1, r6, lsl lr
    4828:	90070000 	andls	r0, r7, r0
    482c:	0400001f 	streq	r0, [r0], #-31	; 0xffffffe1
    4830:	0001e217 	andeq	lr, r1, r7, lsl r2
    4834:	04040500 	streq	r0, [r4], #-1280	; 0xfffffb00
    4838:	0002ed1c 	andeq	lr, r2, ip, lsl sp
    483c:	6e630900 	cdpvs	9, 6, cr0, cr3, cr0, {0}
    4840:	1e040074 	mcrne	0, 0, r0, cr4, cr4, {3}
    4844:	00000033 	andeq	r0, r0, r3, lsr r0
    4848:	02101004 	andseq	r1, r0, #4
    484c:	69090023 	stmdbvs	r9, {r0, r1, r5}
    4850:	0400636e 	streq	r6, [r0], #-878	; 0xfffffc92
    4854:	0000331f 	andeq	r3, r0, pc, lsl r3
    4858:	0f010400 	svceq	0x00010400
    485c:	0a002302 	beq	d46c <__bss_end__+0x732c>
    4860:	0000038b 	andeq	r0, r0, fp, lsl #7
    4864:	00332004 	eorseq	r2, r3, r4
    4868:	03040000 	movweq	r0, #16384	; 0x4000
    486c:	0023020c 	eoreq	r0, r3, ip, lsl #4
    4870:	00736309 	rsbseq	r6, r3, r9, lsl #6
    4874:	00332104 	eorseq	r2, r3, r4, lsl #2
    4878:	02040000 	andeq	r0, r4, #0
    487c:	0023020a 	eoreq	r0, r3, sl, lsl #4
    4880:	001fea0a 	andseq	lr, pc, sl, lsl #20
    4884:	33220400 	teqcc	r2, #0, 8
    4888:	04000000 	streq	r0, [r0], #-0
    488c:	23020901 	movwcs	r0, #10497	; 0x2901
    4890:	656c0900 	strbvs	r0, [ip, #-2304]!	; 0xfffff700
    4894:	2304006e 	movwcs	r0, #16494	; 0x406e
    4898:	00000033 	andeq	r0, r0, r3, lsr r0
    489c:	02080104 	andeq	r0, r8, #4, 2
    48a0:	6d090023 	stcvs	0, cr0, [r9, #-140]	; 0xffffff74
    48a4:	0400646f 	streq	r6, [r0], #-1135	; 0xfffffb91
    48a8:	00003324 	andeq	r3, r0, r4, lsr #6
    48ac:	06020400 	streq	r0, [r2], -r0, lsl #8
    48b0:	0a002302 	beq	d4c0 <__bss_end__+0x7380>
    48b4:	00001fdd 	ldrdeq	r1, [r0], -sp
    48b8:	00332504 	eorseq	r2, r3, r4, lsl #10
    48bc:	01040000 	mrseq	r0, (UNDEF: 4)
    48c0:	00230205 	eoreq	r0, r3, r5, lsl #4
    48c4:	001fc50a 	andseq	ip, pc, sl, lsl #10
    48c8:	33260400 	teqcc	r6, #0, 8
    48cc:	04000000 	streq	r0, [r0], #-0
    48d0:	23020401 	movwcs	r0, #9217	; 0x2401
    48d4:	1f8a0a00 	svcne	0x008a0a00
    48d8:	27040000 	strcs	r0, [r4, -r0]
    48dc:	00000033 	andeq	r0, r0, r3, lsr r0
    48e0:	02030104 	andeq	r0, r3, #4, 2
    48e4:	72090023 	andvc	r0, r9, #35	; 0x23
    48e8:	04006e75 	streq	r6, [r0], #-3701	; 0xfffff18b
    48ec:	00003328 	andeq	r3, r0, r8, lsr #6
    48f0:	02010400 	andeq	r0, r1, #0, 8
    48f4:	0a002302 	beq	d504 <__bss_end__+0x73c4>
    48f8:	0000203b 	andeq	r2, r0, fp, lsr r0
    48fc:	00332904 	eorseq	r2, r3, r4, lsl #18
    4900:	01040000 	mrseq	r0, (UNDEF: 4)
    4904:	00230201 	eoreq	r0, r3, r1, lsl #4
    4908:	001f9e0a 	andseq	r9, pc, sl, lsl #28
    490c:	332a0400 	teqcc	sl, #0, 8
    4910:	04000000 	streq	r0, [r0], #-0
    4914:	23020001 	movwcs	r0, #8193	; 0x2001
    4918:	040b0000 	streq	r0, [fp], #-0
    491c:	03081904 	movweq	r1, #35076	; 0x8904
    4920:	750c0000 	strvc	r0, [ip, #-0]
    4924:	331b0400 	tstcc	fp, #0, 8
    4928:	0c000000 	stceq	0, cr0, [r0], {-0}
    492c:	2b040062 	blcs	104abc <__bss_end__+0xfe97c>
    4930:	00000208 	andeq	r0, r0, r8, lsl #4
    4934:	20120700 	andscs	r0, r2, r0, lsl #14
    4938:	2c040000 	stccs	0, cr0, [r4], {-0}
    493c:	000002ed 	andeq	r0, r0, sp, ror #5
    4940:	0405040d 	streq	r0, [r5], #-1037	; 0xfffffbf3
    4944:	032c3c04 	teqeq	ip, #4, 24	; 0x400
    4948:	57080000 	strpl	r0, [r8, -r0]
    494c:	04000020 	streq	r0, [r0], #-32	; 0xffffffe0
    4950:	0003083e 	andeq	r0, r3, lr, lsr r8
    4954:	00230200 	eoreq	r0, r3, r0, lsl #4
    4958:	04040b00 	streq	r0, [r4], #-2816	; 0xfffff500
    495c:	0003453a 	andeq	r4, r3, sl, lsr r5
    4960:	03150e00 	tsteq	r5, #0, 28
    4964:	700c0000 	andvc	r0, ip, r0
    4968:	04006f69 	streq	r6, [r0], #-3945	; 0xfffff097
    496c:	00034540 	andeq	r4, r3, r0, asr #10
    4970:	330f0000 	movwcc	r0, #61440	; 0xf000
    4974:	55000000 	strpl	r0, [r0, #-0]
    4978:	10000003 	andne	r0, r0, r3
    497c:	0000003e 	andeq	r0, r0, lr, lsr r0
    4980:	22110000 	andscs	r0, r1, #0
    4984:	10000020 	andne	r0, r0, r0, lsr #32
    4988:	03943504 	orrseq	r3, r4, #4, 10	; 0x1000000
    498c:	6e060000 	cdpvs	0, 0, cr0, cr6, cr0, {0}
    4990:	04007478 	streq	r7, [r0], #-1144	; 0xfffffb88
    4994:	00039437 	andeq	r9, r3, r7, lsr r4
    4998:	00230200 	eoreq	r0, r3, r0, lsl #4
    499c:	646d6306 	strbtvs	r6, [sp], #-774	; 0xfffffcfa
    49a0:	fd380400 	ldc2	4, cr0, [r8, #-0]
    49a4:	02000001 	andeq	r0, r0, #1
    49a8:	44080423 	strmi	r0, [r8], #-1059	; 0xfffffbdd
    49ac:	0400001f 	streq	r0, [r0], #-31	; 0xffffffe1
    49b0:	00031339 	andeq	r1, r3, r9, lsr r3
    49b4:	08230200 	stmdaeq	r3!, {r9}
    49b8:	00032c12 	andeq	r2, r3, r2, lsl ip
    49bc:	0c230200 	sfmeq	f0, 4, [r3], #-0
    49c0:	55041300 	strpl	r1, [r4, #-768]	; 0xfffffd00
    49c4:	07000003 	streq	r0, [r0, -r3]
    49c8:	00002023 	andeq	r2, r0, r3, lsr #32
    49cc:	03554204 	cmpeq	r5, #4, 4	; 0x40000000
    49d0:	01140000 	tsteq	r4, r0
    49d4:	0000204a 	andeq	r2, r0, sl, asr #32
    49d8:	df010a01 	svcle	0x00010a01
    49dc:	bc000003 	stclt	0, cr0, [r0], {3}
    49e0:	1c000055 	stcne	0, cr0, [r0], {85}	; 0x55
    49e4:	8c000056 	stchi	0, cr0, [r0], {86}	; 0x56
    49e8:	df00000c 	svcle	0x0000000c
    49ec:	15000003 	strne	r0, [r0, #-3]
    49f0:	00646d63 	rsbeq	r6, r4, r3, ror #26
    49f4:	00250a01 	eoreq	r0, r5, r1, lsl #20
    49f8:	91020000 	mrsls	r0, (UNDEF: 2)
    49fc:	20511667 	subscs	r1, r1, r7, ror #12
    4a00:	0c010000 	stceq	0, cr0, [r1], {-0}
    4a04:	0000039a 	muleq	r0, sl, r3
    4a08:	00689102 	rsbeq	r9, r8, r2, lsl #2
    4a0c:	69050417 	stmdbvs	r5, {r0, r1, r2, r4, sl}
    4a10:	1400746e 	strne	r7, [r0], #-1134	; 0xfffffb92
    4a14:	00206b01 	eoreq	r6, r0, r1, lsl #22
    4a18:	01180100 	tsteq	r8, r0, lsl #2
    4a1c:	00000025 	andeq	r0, r0, r5, lsr #32
    4a20:	0000561c 	andeq	r5, r0, ip, lsl r6
    4a24:	00005674 	andeq	r5, r0, r4, ror r6
    4a28:	00000cb8 			; <UNDEFINED> instruction: 0x00000cb8
    4a2c:	00000420 	andeq	r0, r0, r0, lsr #8
    4a30:	000b5116 	andeq	r5, fp, r6, lsl r1
    4a34:	251a0100 	ldrcs	r0, [sl, #-256]	; 0xffffff00
    4a38:	02000000 	andeq	r0, r0, #0
    4a3c:	c0167791 	mulsgt	r6, r1, r7
    4a40:	0100001f 	tsteq	r0, pc, lsl r0
    4a44:	00039a1b 	andeq	r9, r3, fp, lsl sl
    4a48:	64910200 	ldrvs	r0, [r1], #512	; 0x200
    4a4c:	fe011400 	cdp2	4, 0, cr1, cr1, cr0, {0}
    4a50:	0100001f 	tsteq	r0, pc, lsl r0
    4a54:	03df0127 	bicseq	r0, pc, #-1073741815	; 0xc0000009
    4a58:	56740000 	ldrbtpl	r0, [r4], -r0
    4a5c:	56d00000 	ldrbpl	r0, [r0], r0
    4a60:	0ce40000 	stcleq	0, cr0, [r4]
    4a64:	045a0000 	ldrbeq	r0, [sl], #-0
    4a68:	51180000 	tstpl	r8, r0
    4a6c:	0100000b 	tsteq	r0, fp
    4a70:	00002527 	andeq	r2, r0, r7, lsr #10
    4a74:	67910200 	ldrvs	r0, [r1, r0, lsl #4]
    4a78:	00200516 	eoreq	r0, r0, r6, lsl r5
    4a7c:	9a290100 	bls	a44e84 <__bss_end__+0xa3ed44>
    4a80:	02000003 	andeq	r0, r0, #3
    4a84:	19006891 	stmdbne	r0, {r0, r4, r7, fp, sp, lr}
    4a88:	001f7501 	andseq	r7, pc, r1, lsl #10
    4a8c:	01320100 	teqeq	r2, r0, lsl #2
    4a90:	000056d0 	ldrdeq	r5, [r0], -r0
    4a94:	00005788 	andeq	r5, r0, r8, lsl #15
    4a98:	00000d10 	andeq	r0, r0, r0, lsl sp
    4a9c:	0000049d 	muleq	r0, sp, r4
    4aa0:	00686315 	rsbeq	r6, r8, r5, lsl r3
    4aa4:	03df3201 	bicseq	r3, pc, #268435456	; 0x10000000
    4aa8:	91020000 	mrsls	r0, (UNDEF: 2)
    4aac:	1f791874 	svcne	0x00791874
    4ab0:	32010000 	andcc	r0, r1, #0
    4ab4:	0000049d 	muleq	r0, sp, r4
    4ab8:	18709102 	ldmdane	r0!, {r1, r8, ip, pc}^
    4abc:	00001f7f 	andeq	r1, r0, pc, ror pc
    4ac0:	03df3201 	bicseq	r3, pc, #268435456	; 0x10000000
    4ac4:	91020000 	mrsls	r0, (UNDEF: 2)
    4ac8:	0413006c 	ldreq	r0, [r3], #-108	; 0xffffff94
    4acc:	0000039a 	muleq	r0, sl, r3
    4ad0:	001fb31a 	andseq	fp, pc, sl, lsl r3	; <UNPREDICTABLE>
    4ad4:	b0050100 	andlt	r0, r5, r0, lsl #2
    4ad8:	01000004 	tsteq	r0, r4
    4adc:	13041301 	movwne	r1, #17153	; 0x4301
    4ae0:	1b000001 	blne	4aec <init_taglist+0x15c>
    4ae4:	00001fb3 			; <UNDEFINED> instruction: 0x00001fb3
    4ae8:	04b00501 	ldrteq	r0, [r0], #1281	; 0x501
    4aec:	05010000 	streq	r0, [r1, #-0]
    4af0:	0060a803 	rsbeq	sl, r0, r3, lsl #16
    4af4:	034b0000 	movteq	r0, #45056	; 0xb000
    4af8:	00020000 	andeq	r0, r2, r0
    4afc:	000009fc 	strdeq	r0, [r0], -ip
    4b00:	000e0104 	andeq	r0, lr, r4, lsl #2
    4b04:	83010000 	movwhi	r0, #4096	; 0x1000
    4b08:	80000020 	andhi	r0, r0, r0, lsr #32
    4b0c:	88000000 	stmdahi	r0, {}	; <UNPREDICTABLE>
    4b10:	60000057 	andvs	r0, r0, r7, asr r0
    4b14:	5800005a 	stmdapl	r0, {r1, r3, r4, r6}
    4b18:	0200000a 	andeq	r0, r0, #10
    4b1c:	0000085a 	andeq	r0, r0, sl, asr r8
    4b20:	00301202 	eorseq	r1, r0, r2, lsl #4
    4b24:	04030000 	streq	r0, [r3], #-0
    4b28:	00003c07 	andeq	r3, r0, r7, lsl #24
    4b2c:	036b0200 	cmneq	fp, #0, 4
    4b30:	13020000 	movwne	r0, #8192	; 0x2000
    4b34:	00000042 	andeq	r0, r0, r2, asr #32
    4b38:	6d070203 	sfmvs	f0, 4, [r7, #-12]
    4b3c:	02000000 	andeq	r0, r0, #0
    4b40:	000009ba 			; <UNDEFINED> instruction: 0x000009ba
    4b44:	00541402 	subseq	r1, r4, r2, lsl #8
    4b48:	01030000 	mrseq	r0, (UNDEF: 3)
    4b4c:	00005108 	andeq	r5, r0, r8, lsl #2
    4b50:	03040400 	movweq	r0, #17408	; 0x4400
    4b54:	0000d11c 	andeq	sp, r0, ip, lsl r1
    4b58:	03bf0500 			; <UNDEFINED> instruction: 0x03bf0500
    4b5c:	1e030000 	cdpne	0, 0, cr0, cr3, cr0, {0}
    4b60:	00000049 	andeq	r0, r0, r9, asr #32
    4b64:	06002302 	streq	r2, [r0], -r2, lsl #6
    4b68:	03004546 	movweq	r4, #1350	; 0x546
    4b6c:	0000301f 	andeq	r3, r0, pc, lsl r0
    4b70:	17010400 	strne	r0, [r1, -r0, lsl #8]
    4b74:	06002302 	streq	r2, [r0], -r2, lsl #6
    4b78:	03004550 	movweq	r4, #1360	; 0x550
    4b7c:	00003020 	andeq	r3, r0, r0, lsr #32
    4b80:	16010400 	strne	r0, [r1], -r0, lsl #8
    4b84:	06002302 	streq	r2, [r0], -r2, lsl #6
    4b88:	03004542 	movweq	r4, #1346	; 0x542
    4b8c:	00003021 	andeq	r3, r0, r1, lsr #32
    4b90:	15010400 	strne	r0, [r1, #-1024]	; 0xfffffc00
    4b94:	06002302 	streq	r2, [r0], -r2, lsl #6
    4b98:	0300454f 	movweq	r4, #1359	; 0x54f
    4b9c:	00003022 	andeq	r3, r0, r2, lsr #32
    4ba0:	14010400 	strne	r0, [r1], #-1024	; 0xfffffc00
    4ba4:	07002302 	streq	r2, [r0, -r2, lsl #6]
    4ba8:	00000a19 	andeq	r0, r0, r9, lsl sl
    4bac:	00302303 	eorseq	r2, r0, r3, lsl #6
    4bb0:	04040000 	streq	r0, [r4], #-0
    4bb4:	00230210 	eoreq	r0, r3, r0, lsl r2
    4bb8:	00151f05 	andseq	r1, r5, r5, lsl #30
    4bbc:	37240300 	strcc	r0, [r4, -r0, lsl #6]!
    4bc0:	02000000 	andeq	r0, r0, #0
    4bc4:	08000223 	stmdaeq	r0, {r0, r1, r5, r9}
    4bc8:	ec190304 	ldc	3, cr0, [r9], {4}
    4bcc:	09000000 	stmdbeq	r0, {}	; <UNPREDICTABLE>
    4bd0:	1b030055 	blne	c4d2c <__bss_end__+0xbebec>
    4bd4:	00000025 	andeq	r0, r0, r5, lsr #32
    4bd8:	03004209 	movweq	r4, #521	; 0x209
    4bdc:	00005b25 	andeq	r5, r0, r5, lsr #22
    4be0:	9e020000 	cdpls	0, 0, cr0, cr2, cr0, {0}
    4be4:	03000001 	movweq	r0, #1
    4be8:	0000d126 	andeq	sp, r0, r6, lsr #2
    4bec:	03040400 	movweq	r0, #17408	; 0x4400
    4bf0:	0001b7ec 	andeq	fp, r1, ip, ror #15
    4bf4:	54430600 	strbpl	r0, [r3], #-1536	; 0xfffffa00
    4bf8:	ee030053 	mcr	0, 0, r0, cr3, cr3, {2}
    4bfc:	00000030 	andeq	r0, r0, r0, lsr r0
    4c00:	021f0104 	andseq	r0, pc, #4, 2
    4c04:	44060023 	strmi	r0, [r6], #-35	; 0xffffffdd
    4c08:	03005253 	movweq	r5, #595	; 0x253
    4c0c:	000030ef 	andeq	r3, r0, pc, ror #1
    4c10:	1e010400 	cfcpysne	mvf0, mvf1
    4c14:	06002302 	streq	r2, [r0], -r2, lsl #6
    4c18:	00444344 	subeq	r4, r4, r4, asr #6
    4c1c:	0030f003 	eorseq	pc, r0, r3
    4c20:	01040000 	mrseq	r0, (UNDEF: 4)
    4c24:	0023021d 	eoreq	r0, r3, sp, lsl r2
    4c28:	0018e007 	andseq	lr, r8, r7
    4c2c:	30f10300 	rscscc	r0, r1, r0, lsl #6
    4c30:	04000000 	streq	r0, [r0], #-0
    4c34:	23021c01 	movwcs	r1, #11265	; 0x2c01
    4c38:	0ef60700 	cdpeq	7, 15, cr0, cr6, cr0, {0}
    4c3c:	f2030000 	vhadd.s8	d0, d3, d0
    4c40:	00000030 	andeq	r0, r0, r0, lsr r0
    4c44:	021b0104 	andseq	r0, fp, #4, 2
    4c48:	52070023 	andpl	r0, r7, #35	; 0x23
    4c4c:	0300000f 	movweq	r0, #15
    4c50:	000030f3 	strdeq	r3, [r0], -r3	; <UNPREDICTABLE>
    4c54:	1a010400 	bne	45c5c <__bss_end__+0x3fb1c>
    4c58:	07002302 	streq	r2, [r0, -r2, lsl #6]
    4c5c:	00000efb 	strdeq	r0, [r0], -fp
    4c60:	0030f403 	eorseq	pc, r0, r3, lsl #8
    4c64:	01040000 	mrseq	r0, (UNDEF: 4)
    4c68:	00230219 	eoreq	r0, r3, r9, lsl r2
    4c6c:	000f4d07 	andeq	r4, pc, r7, lsl #26
    4c70:	30f50300 	rscscc	r0, r5, r0, lsl #6
    4c74:	04000000 	streq	r0, [r0], #-0
    4c78:	23021801 	movwcs	r1, #10241	; 0x2801
    4c7c:	49520600 	ldmdbmi	r2, {r9, sl}^
    4c80:	30f60300 	rscscc	r0, r6, r0, lsl #6
    4c84:	04000000 	streq	r0, [r0], #-0
    4c88:	23021701 	movwcs	r1, #9985	; 0x2701
    4c8c:	0a190700 	beq	646894 <__bss_end__+0x640754>
    4c90:	f7030000 			; <UNDEFINED> instruction: 0xf7030000
    4c94:	00000030 	andeq	r0, r0, r0, lsr r0
    4c98:	02100704 	andseq	r0, r0, #4, 14	; 0x100000
    4c9c:	1f050023 	svcne	0x00050023
    4ca0:	03000015 	movweq	r0, #21
    4ca4:	000037f8 	strdeq	r3, [r0], -r8
    4ca8:	02230200 	eoreq	r0, r3, #0, 4
    4cac:	03040800 	movweq	r0, #18432	; 0x4800
    4cb0:	0001d2e9 	andeq	sp, r1, r9, ror #5
    4cb4:	00550900 	subseq	r0, r5, r0, lsl #18
    4cb8:	0025eb03 	eoreq	lr, r5, r3, lsl #22
    4cbc:	42090000 	andmi	r0, r9, #0
    4cc0:	f7f90300 			; <UNDEFINED> instruction: 0xf7f90300
    4cc4:	00000000 	andeq	r0, r0, r0
    4cc8:	00024902 	andeq	r4, r2, r2, lsl #18
    4ccc:	b7fa0300 	ldrblt	r0, [sl, r0, lsl #6]!
    4cd0:	0a000001 	beq	4cdc <strcmp+0x2c>
    4cd4:	6e690504 	cdpvs	5, 6, cr0, cr9, cr4, {0}
    4cd8:	5b020074 	blpl	84eb0 <__bss_end__+0x7ed70>
    4cdc:	04000011 	streq	r0, [r0], #-17	; 0xffffffef
    4ce0:	000030d6 	ldrdeq	r3, [r0], -r6
    4ce4:	7c010b00 	stcvc	11, cr0, [r1], {-0}
    4ce8:	01000020 	tsteq	r0, r0, lsr #32
    4cec:	00005409 	andeq	r5, r0, r9, lsl #8
    4cf0:	00578800 	subseq	r8, r7, r0, lsl #16
    4cf4:	0057dc00 	subseq	sp, r7, r0, lsl #24
    4cf8:	000d3c00 	andeq	r3, sp, r0, lsl #24
    4cfc:	00021a00 	andeq	r1, r2, r0, lsl #20
    4d00:	0b510c00 	bleq	1447d08 <__bss_end__+0x1441bc8>
    4d04:	0b010000 	bleq	44d0c <__bss_end__+0x3ebcc>
    4d08:	00000054 	andeq	r0, r0, r4, asr r0
    4d0c:	00779102 	rsbseq	r9, r7, r2, lsl #2
    4d10:	20a4010d 	adccs	r0, r4, sp, lsl #2
    4d14:	13010000 	movwne	r0, #4096	; 0x1000
    4d18:	0057dc01 	subseq	sp, r7, r1, lsl #24
    4d1c:	00582800 	subseq	r2, r8, r0, lsl #16
    4d20:	000d6800 	andeq	r6, sp, r0, lsl #16
    4d24:	00024200 	andeq	r4, r2, r0, lsl #4
    4d28:	0b510e00 	bleq	1448530 <__bss_end__+0x14423f0>
    4d2c:	13010000 	movwne	r0, #4096	; 0x1000
    4d30:	00000054 	andeq	r0, r0, r4, asr r0
    4d34:	00779102 	rsbseq	r9, r7, r2, lsl #2
    4d38:	20ab010f 	adccs	r0, fp, pc, lsl #2
    4d3c:	1a010000 	bne	44d44 <__bss_end__+0x3ec04>
    4d40:	0001dd01 	andeq	sp, r1, r1, lsl #26
    4d44:	00582800 	subseq	r2, r8, r0, lsl #16
    4d48:	00588800 	subseq	r8, r8, r0, lsl #16
    4d4c:	000d9400 	andeq	r9, sp, r0, lsl #8
    4d50:	00027800 	andeq	r7, r2, r0, lsl #16
    4d54:	00731000 	rsbseq	r1, r3, r0
    4d58:	02781a01 	rsbseq	r1, r8, #4096	; 0x1000
    4d5c:	91020000 	mrsls	r0, (UNDEF: 2)
    4d60:	0070116c 	rsbseq	r1, r0, ip, ror #2
    4d64:	02781c01 	rsbseq	r1, r8, #256	; 0x100
    4d68:	91020000 	mrsls	r0, (UNDEF: 2)
    4d6c:	04120074 	ldreq	r0, [r2], #-116	; 0xffffff8c
    4d70:	0000027e 	andeq	r0, r0, lr, ror r2
    4d74:	00028313 	andeq	r8, r2, r3, lsl r3
    4d78:	08010300 	stmdaeq	r1, {r8, r9}
    4d7c:	0000005a 	andeq	r0, r0, sl, asr r0
    4d80:	2098010f 	addscs	r0, r8, pc, lsl #2
    4d84:	2b010000 	blcs	44d8c <__bss_end__+0x3ec4c>
    4d88:	0002c001 	andeq	ip, r2, r1
    4d8c:	00588800 	subseq	r8, r8, r0, lsl #16
    4d90:	00595c00 	subseq	r5, r9, r0, lsl #24
    4d94:	000dc000 	andeq	ip, sp, r0
    4d98:	0002c000 	andeq	ip, r2, r0
    4d9c:	00731000 	rsbseq	r1, r3, r0
    4da0:	02c02b01 	sbceq	r2, r0, #1024	; 0x400
    4da4:	91020000 	mrsls	r0, (UNDEF: 2)
    4da8:	0070116c 	rsbseq	r1, r0, ip, ror #2
    4dac:	02c02d01 	sbceq	r2, r0, #1, 26	; 0x40
    4db0:	91020000 	mrsls	r0, (UNDEF: 2)
    4db4:	04120074 	ldreq	r0, [r2], #-116	; 0xffffff8c
    4db8:	00000283 	andeq	r0, r0, r3, lsl #5
    4dbc:	20900114 	addscs	r0, r0, r4, lsl r1
    4dc0:	4c010000 	stcmi	0, cr0, [r1], {-0}
    4dc4:	0001dd01 	andeq	sp, r1, r1, lsl #26
    4dc8:	00595c00 	subseq	r5, r9, r0, lsl #24
    4dcc:	005a6000 	subseq	r6, sl, r0
    4dd0:	000dec00 	andeq	lr, sp, r0, lsl #24
    4dd4:	1f440e00 	svcne	0x00440e00
    4dd8:	4c010000 	stcmi	0, cr0, [r1], {-0}
    4ddc:	000002c0 	andeq	r0, r0, r0, asr #5
    4de0:	11649102 	cmnne	r4, r2, lsl #2
    4de4:	4e010069 	cdpmi	0, 0, cr0, cr1, cr9, {3}
    4de8:	000001dd 	ldrdeq	r0, [r0], -sp
    4dec:	0c749102 	ldfeqp	f1, [r4], #-8
    4df0:	00001fad 	andeq	r1, r0, sp, lsr #31
    4df4:	01dd4e01 	bicseq	r4, sp, r1, lsl #28
    4df8:	91020000 	mrsls	r0, (UNDEF: 2)
    4dfc:	756e1170 	strbvc	r1, [lr, #-368]!	; 0xfffffe90
    4e00:	4f01006d 	svcmi	0x0001006d
    4e04:	00000283 	andeq	r0, r0, r3, lsl #5
    4e08:	0c6d9102 	stfeqp	f1, [sp], #-8
    4e0c:	0000209d 	muleq	r0, sp, r0
    4e10:	02834f01 	addeq	r4, r3, #1, 30
    4e14:	91020000 	mrsls	r0, (UNDEF: 2)
    4e18:	0b510c6c 	bleq	1447fd0 <__bss_end__+0x1441e90>
    4e1c:	4f010000 	svcmi	0x00010000
    4e20:	00000283 	andeq	r0, r0, r3, lsl #5
    4e24:	0c6e9102 	stfeqp	f1, [lr], #-8
    4e28:	0000208a 	andeq	r2, r0, sl, lsl #1
    4e2c:	02834f01 	addeq	r4, r3, #1, 30
    4e30:	91020000 	mrsls	r0, (UNDEF: 2)
    4e34:	7573116b 	ldrbvc	r1, [r3, #-363]!	; 0xfffffe95
    4e38:	4f01006d 	svcmi	0x0001006d
    4e3c:	00000283 	andeq	r0, r0, r3, lsl #5
    4e40:	006f9102 	rsbeq	r9, pc, r2, lsl #2
	...

Disassembly of section .debug_abbrev:

00000000 <.debug_abbrev>:
   0:	25011101 	strcs	r1, [r1, #-257]	; 0xfffffeff
   4:	030b130e 	movweq	r1, #45838	; 0xb30e
   8:	110e1b0e 	tstne	lr, lr, lsl #22
   c:	10011201 	andne	r1, r1, r1, lsl #4
  10:	02000006 	andeq	r0, r0, #6
  14:	0b0b0024 	bleq	2c00ac <__bss_end__+0x2b9f6c>
  18:	0e030b3e 	vmoveq.16	d3[0], r0
  1c:	24030000 	strcs	r0, [r3], #-0
  20:	3e0b0b00 	vmlacc.f64	d0, d11, d0
  24:	0008030b 	andeq	r0, r8, fp, lsl #6
  28:	000f0400 	andeq	r0, pc, r0, lsl #8
  2c:	13490b0b 	movtne	r0, #39691	; 0x9b0b
  30:	2e050000 	cdpcs	0, 0, cr0, cr5, cr0, {0}
  34:	030c3f01 	movweq	r3, #52993	; 0xcf01
  38:	3b0b3a0e 	blcc	2ce878 <__bss_end__+0x2c8738>
  3c:	490c270b 	stmdbmi	ip, {r0, r1, r3, r8, r9, sl, sp}
  40:	12011113 	andne	r1, r1, #-1073741820	; 0xc0000004
  44:	01064001 	tsteq	r6, r1
  48:	06000013 			; <UNDEFINED> instruction: 0x06000013
  4c:	08030034 	stmdaeq	r3, {r2, r4, r5}
  50:	0b3b0b3a 	bleq	ec2d40 <__bss_end__+0xebcc00>
  54:	0a021349 	beq	84d80 <__bss_end__+0x7ec40>
  58:	34070000 	strcc	r0, [r7], #-0
  5c:	3a0e0300 	bcc	380c64 <__bss_end__+0x37ab24>
  60:	490b3b0b 	stmdbmi	fp, {r0, r1, r3, r8, r9, fp, ip, sp}
  64:	000a0213 	andeq	r0, sl, r3, lsl r2
  68:	010b0800 	tsteq	fp, r0, lsl #16
  6c:	01120111 	tsteq	r2, r1, lsl r1
  70:	2e090000 	cdpcs	0, 0, cr0, cr9, cr0, {0}
  74:	030c3f01 	movweq	r3, #52993	; 0xcf01
  78:	3b0b3a0e 	blcc	2ce8b8 <__bss_end__+0x2c8778>
  7c:	3c13490b 	ldccc	9, cr4, [r3], {11}
  80:	0a00000c 	beq	b8 <irq_handler+0x34>
  84:	00000018 	andeq	r0, r0, r8, lsl r0
  88:	4900350b 	stmdbmi	r0, {r0, r1, r3, r8, sl, ip, sp}
  8c:	0c000013 	stceq	0, cr0, [r0], {19}
  90:	0c3f012e 	ldfeqs	f0, [pc], #-184	; ffffffe0 <__bss_end__+0xffff9ea0>
  94:	0b3a0e03 	bleq	e838a8 <__bss_end__+0xe7d768>
  98:	13490b3b 	movtne	r0, #39739	; 0x9b3b
  9c:	13010c3c 	movwne	r0, #7228	; 0x1c3c
  a0:	010d0000 	mrseq	r0, (UNDEF: 13)
  a4:	01134901 	tsteq	r3, r1, lsl #18
  a8:	0e000013 	mcreq	0, 0, r0, cr0, cr3, {0}
  ac:	13490021 	movtne	r0, #36897	; 0x9021
  b0:	00000b2f 	andeq	r0, r0, pc, lsr #22
  b4:	0300340f 	movweq	r3, #1039	; 0x40f
  b8:	3b0b3a0e 	blcc	2ce8f8 <__bss_end__+0x2c87b8>
  bc:	3f13490b 	svccc	0x0013490b
  c0:	000c3c0c 	andeq	r3, ip, ip, lsl #24
  c4:	00341000 	eorseq	r1, r4, r0
  c8:	0b3a0e03 	bleq	e838dc <__bss_end__+0xe7d79c>
  cc:	13490b3b 	movtne	r0, #39739	; 0x9b3b
  d0:	0a020c3f 	beq	831d4 <__bss_end__+0x7d094>
  d4:	01000000 	mrseq	r0, (UNDEF: 0)
  d8:	0e250111 	mcreq	1, 1, r0, cr5, cr1, {0}
  dc:	0e030b13 	vmoveq.32	d3[0], r0
  e0:	01110e1b 	tsteq	r1, fp, lsl lr
  e4:	06100112 			; <UNDEFINED> instruction: 0x06100112
  e8:	16020000 	strne	r0, [r2], -r0
  ec:	3a0e0300 	bcc	380cf4 <__bss_end__+0x37abb4>
  f0:	490b3b0b 	stmdbmi	fp, {r0, r1, r3, r8, r9, fp, ip, sp}
  f4:	03000013 	movweq	r0, #19
  f8:	0b0b0024 	bleq	2c0190 <__bss_end__+0x2ba050>
  fc:	0e030b3e 	vmoveq.16	d3[0], r0
 100:	13040000 	movwne	r0, #16384	; 0x4000
 104:	3a0b0b01 	bcc	2c2d10 <__bss_end__+0x2bcbd0>
 108:	01053b0b 	tsteq	r5, fp, lsl #22
 10c:	05000013 	streq	r0, [r0, #-19]	; 0xffffffed
 110:	0e03000d 	cdpeq	0, 0, cr0, cr3, cr13, {0}
 114:	053b0b3a 	ldreq	r0, [fp, #-2874]!	; 0xfffff4c6
 118:	0a381349 	beq	e04e44 <__bss_end__+0xdfed04>
 11c:	17060000 	strne	r0, [r6, -r0]
 120:	3a0b0b01 	bcc	2c2d2c <__bss_end__+0x2bcbec>
 124:	01053b0b 	tsteq	r5, fp, lsl #22
 128:	07000013 	smladeq	r0, r3, r0, r0
 12c:	0803000d 	stmdaeq	r3, {r0, r2, r3}
 130:	053b0b3a 	ldreq	r0, [fp, #-2874]!	; 0xfffff4c6
 134:	00001349 	andeq	r1, r0, r9, asr #6
 138:	03001608 	movweq	r1, #1544	; 0x608
 13c:	3b0b3a0e 	blcc	2ce97c <__bss_end__+0x2c883c>
 140:	00134905 	andseq	r4, r3, r5, lsl #18
 144:	01130900 	tsteq	r3, r0, lsl #18
 148:	0b3a0b0b 	bleq	e82d7c <__bss_end__+0xe7cc3c>
 14c:	13010b3b 	movwne	r0, #6971	; 0x1b3b
 150:	0d0a0000 	stceq	0, cr0, [sl, #-0]
 154:	3a0e0300 	bcc	380d5c <__bss_end__+0x37ac1c>
 158:	490b3b0b 	stmdbmi	fp, {r0, r1, r3, r8, r9, fp, ip, sp}
 15c:	0d0b0b13 	vstreq	d0, [fp, #-76]	; 0xffffffb4
 160:	380b0c0b 	stmdacc	fp, {r0, r1, r3, sl, fp}
 164:	0b00000a 	bleq	194 <irq_handler+0x110>
 168:	0b0b0117 	bleq	2c05cc <__bss_end__+0x2ba48c>
 16c:	0b3b0b3a 	bleq	ec2e5c <__bss_end__+0xebcd1c>
 170:	00001301 	andeq	r1, r0, r1, lsl #6
 174:	03000d0c 	movweq	r0, #3340	; 0xd0c
 178:	3b0b3a08 	blcc	2ce9a0 <__bss_end__+0x2c8860>
 17c:	0013490b 	andseq	r4, r3, fp, lsl #18
 180:	000d0d00 	andeq	r0, sp, r0, lsl #26
 184:	0b3a0e03 	bleq	e83998 <__bss_end__+0xe7d858>
 188:	1349053b 	movtne	r0, #38203	; 0x953b
 18c:	0b0d0b0b 	bleq	342dc0 <__bss_end__+0x33cc80>
 190:	0a380b0c 	beq	e02dc8 <__bss_end__+0xdfcc88>
 194:	0d0e0000 	stceq	0, cr0, [lr, #-0]
 198:	3a080300 	bcc	200da0 <__bss_end__+0x1fac60>
 19c:	49053b0b 	stmdbmi	r5, {r0, r1, r3, r8, r9, fp, ip, sp}
 1a0:	0d0b0b13 	vstreq	d0, [fp, #-76]	; 0xffffffb4
 1a4:	380b0c0b 	stmdacc	fp, {r0, r1, r3, sl, fp}
 1a8:	0f00000a 	svceq	0x0000000a
 1ac:	0e03000d 	cdpeq	0, 0, cr0, cr3, cr13, {0}
 1b0:	0b3b0b3a 	bleq	ec2ea0 <__bss_end__+0xebcd60>
 1b4:	0a381349 	beq	e04ee0 <__bss_end__+0xdfeda0>
 1b8:	0d100000 	ldceq	0, cr0, [r0, #-0]
 1bc:	3a080300 	bcc	200dc4 <__bss_end__+0x1fac84>
 1c0:	490b3b0b 	stmdbmi	fp, {r0, r1, r3, r8, r9, fp, ip, sp}
 1c4:	0d0b0b13 	vstreq	d0, [fp, #-76]	; 0xffffffb4
 1c8:	380b0c0b 	stmdacc	fp, {r0, r1, r3, sl, fp}
 1cc:	1100000a 	tstne	r0, sl
 1d0:	0b0b0024 	bleq	2c0268 <__bss_end__+0x2ba128>
 1d4:	08030b3e 	stmdaeq	r3, {r1, r2, r3, r4, r5, r8, r9, fp}
 1d8:	04120000 	ldreq	r0, [r2], #-0
 1dc:	0b0e0301 	bleq	380de8 <__bss_end__+0x37aca8>
 1e0:	3b0b3a0b 	blcc	2cea14 <__bss_end__+0x2c88d4>
 1e4:	0013010b 	andseq	r0, r3, fp, lsl #2
 1e8:	00281300 	eoreq	r1, r8, r0, lsl #6
 1ec:	0d1c0e03 	ldceq	14, cr0, [ip, #-12]
 1f0:	04140000 	ldreq	r0, [r4], #-0
 1f4:	3a0b0b01 	bcc	2c2e00 <__bss_end__+0x2bccc0>
 1f8:	010b3b0b 	tsteq	fp, fp, lsl #22
 1fc:	15000013 	strne	r0, [r0, #-19]	; 0xffffffed
 200:	0b0b0104 	bleq	2c0618 <__bss_end__+0x2ba4d8>
 204:	053b0b3a 	ldreq	r0, [fp, #-2874]!	; 0xfffff4c6
 208:	00001301 	andeq	r1, r0, r1, lsl #6
 20c:	03011316 	movweq	r1, #4886	; 0x1316
 210:	3a0b0b0e 	bcc	2c2e50 <__bss_end__+0x2bcd10>
 214:	01053b0b 	tsteq	r5, fp, lsl #22
 218:	17000013 	smladne	r0, r3, r0, r0
 21c:	08030028 	stmdaeq	r3, {r3, r5}
 220:	00000d1c 	andeq	r0, r0, ip, lsl sp
 224:	03010418 	movweq	r0, #5144	; 0x1418
 228:	3a0b0b0e 	bcc	2c2e68 <__bss_end__+0x2bcd28>
 22c:	01053b0b 	tsteq	r5, fp, lsl #22
 230:	19000013 	stmdbne	r0, {r0, r1, r4}
 234:	0c3f002e 	ldceq	0, cr0, [pc], #-184	; 184 <irq_handler+0x100>
 238:	0b3a0e03 	bleq	e83a4c <__bss_end__+0xe7d90c>
 23c:	0c270b3b 	stceq	11, cr0, [r7], #-236	; 0xffffff14
 240:	01111349 	tsteq	r1, r9, asr #6
 244:	06400112 			; <UNDEFINED> instruction: 0x06400112
 248:	2e1a0000 	cdpcs	0, 1, cr0, cr10, cr0, {0}
 24c:	030c3f00 	movweq	r3, #52992	; 0xcf00
 250:	3b0b3a0e 	blcc	2cea90 <__bss_end__+0x2c8950>
 254:	1201110b 	andne	r1, r1, #-1073741822	; 0xc0000002
 258:	00064001 	andeq	r4, r6, r1
 25c:	002e1b00 	eoreq	r1, lr, r0, lsl #22
 260:	0e030c3f 	mcreq	12, 0, r0, cr3, cr15, {1}
 264:	0b3b0b3a 	bleq	ec2f54 <__bss_end__+0xebce14>
 268:	01110c27 	tsteq	r1, r7, lsr #24
 26c:	06400112 			; <UNDEFINED> instruction: 0x06400112
 270:	2e1c0000 	cdpcs	0, 1, cr0, cr12, cr0, {0}
 274:	030c3f01 	movweq	r3, #52993	; 0xcf01
 278:	3b0b3a0e 	blcc	2ceab8 <__bss_end__+0x2c8978>
 27c:	490c270b 	stmdbmi	ip, {r0, r1, r3, r8, r9, sl, sp}
 280:	12011113 	andne	r1, r1, #-1073741820	; 0xc0000004
 284:	01064001 	tsteq	r6, r1
 288:	1d000013 	stcne	0, cr0, [r0, #-76]	; 0xffffffb4
 28c:	0e030005 	cdpeq	0, 0, cr0, cr3, cr5, {0}
 290:	0b3b0b3a 	bleq	ec2f80 <__bss_end__+0xebce40>
 294:	0a021349 	beq	84fc0 <__bss_end__+0x7ee80>
 298:	2e1e0000 	cdpcs	0, 1, cr0, cr14, cr0, {0}
 29c:	030c3f01 	movweq	r3, #52993	; 0xcf01
 2a0:	3b0b3a0e 	blcc	2ceae0 <__bss_end__+0x2c89a0>
 2a4:	110c270b 	tstne	ip, fp, lsl #14
 2a8:	40011201 	andmi	r1, r1, r1, lsl #4
 2ac:	00130106 	andseq	r0, r3, r6, lsl #2
 2b0:	002e1f00 	eoreq	r1, lr, r0, lsl #30
 2b4:	0b3a0e03 	bleq	e83ac8 <__bss_end__+0xe7d988>
 2b8:	0c27053b 	cfstr32eq	mvfx0, [r7], #-236	; 0xffffff14
 2bc:	01120111 	tsteq	r2, r1, lsl r1
 2c0:	00000640 	andeq	r0, r0, r0, asr #12
 2c4:	3f002e20 	svccc	0x00002e20
 2c8:	3a0e030c 	bcc	380f00 <__bss_end__+0x37adc0>
 2cc:	27053b0b 	strcs	r3, [r5, -fp, lsl #22]
 2d0:	1201110c 	andne	r1, r1, #12, 2
 2d4:	00064001 	andeq	r4, r6, r1
 2d8:	012e2100 	teqeq	lr, r0, lsl #2
 2dc:	0e030c3f 	mcreq	12, 0, r0, cr3, cr15, {1}
 2e0:	053b0b3a 	ldreq	r0, [fp, #-2874]!	; 0xfffff4c6
 2e4:	01110c27 	tsteq	r1, r7, lsr #24
 2e8:	06400112 			; <UNDEFINED> instruction: 0x06400112
 2ec:	00001301 	andeq	r1, r0, r1, lsl #6
 2f0:	03000522 	movweq	r0, #1314	; 0x522
 2f4:	3b0b3a0e 	blcc	2ceb34 <__bss_end__+0x2c89f4>
 2f8:	02134905 	andseq	r4, r3, #81920	; 0x14000
 2fc:	2300000a 	movwcs	r0, #10
 300:	0e030034 	mcreq	0, 0, r0, cr3, cr4, {1}
 304:	053b0b3a 	ldreq	r0, [fp, #-2874]!	; 0xfffff4c6
 308:	0a021349 	beq	85034 <__bss_end__+0x7eef4>
 30c:	2e240000 	cdpcs	0, 2, cr0, cr4, cr0, {0}
 310:	030c3f01 	movweq	r3, #52993	; 0xcf01
 314:	3b0b3a0e 	blcc	2ceb54 <__bss_end__+0x2c8a14>
 318:	11134905 	tstne	r3, r5, lsl #18
 31c:	40011201 	andmi	r1, r1, r1, lsl #4
 320:	00130106 	andseq	r0, r3, r6, lsl #2
 324:	012e2500 	teqeq	lr, r0, lsl #10
 328:	0e030c3f 	mcreq	12, 0, r0, cr3, cr15, {1}
 32c:	053b0b3a 	ldreq	r0, [fp, #-2874]!	; 0xfffff4c6
 330:	13490c27 	movtne	r0, #39975	; 0x9c27
 334:	01120111 	tsteq	r2, r1, lsl r1
 338:	13010640 	movwne	r0, #5696	; 0x1640
 33c:	34260000 	strtcc	r0, [r6], #-0
 340:	3a080300 	bcc	200f48 <__bss_end__+0x1fae08>
 344:	49053b0b 	stmdbmi	r5, {r0, r1, r3, r8, r9, fp, ip, sp}
 348:	000a0213 	andeq	r0, sl, r3, lsl r2
 34c:	000f2700 	andeq	r2, pc, r0, lsl #14
 350:	13490b0b 	movtne	r0, #39691	; 0x9b0b
 354:	35280000 	strcc	r0, [r8, #-0]!
 358:	00134900 	andseq	r4, r3, r0, lsl #18
 35c:	002e2900 	eoreq	r2, lr, r0, lsl #18
 360:	0e030c3f 	mcreq	12, 0, r0, cr3, cr15, {1}
 364:	053b0b3a 	ldreq	r0, [fp, #-2874]!	; 0xfffff4c6
 368:	13490c27 	movtne	r0, #39975	; 0x9c27
 36c:	01120111 	tsteq	r2, r1, lsl r1
 370:	00000640 	andeq	r0, r0, r0, asr #12
 374:	3f012e2a 	svccc	0x00012e2a
 378:	3a0e030c 	bcc	380fb0 <__bss_end__+0x37ae70>
 37c:	11053b0b 	tstne	r5, fp, lsl #22
 380:	40011201 	andmi	r1, r1, r1, lsl #4
 384:	00130106 	andseq	r0, r3, r6, lsl #2
 388:	00052b00 	andeq	r2, r5, r0, lsl #22
 38c:	0b3a0803 	bleq	e823a0 <__bss_end__+0xe7c260>
 390:	1349053b 	movtne	r0, #38203	; 0x953b
 394:	00000a02 	andeq	r0, r0, r2, lsl #20
 398:	4901012c 	stmdbmi	r1, {r2, r3, r5, r8}
 39c:	00130113 	andseq	r0, r3, r3, lsl r1
 3a0:	00212d00 	eoreq	r2, r1, r0, lsl #26
 3a4:	0b2f1349 	bleq	bc50d0 <__bss_end__+0xbbef90>
 3a8:	2e2e0000 	cdpcs	0, 2, cr0, cr14, cr0, {0}
 3ac:	030c3f00 	movweq	r3, #52992	; 0xcf00
 3b0:	3b0b3a0e 	blcc	2cebf0 <__bss_end__+0x2c8ab0>
 3b4:	12011105 	andne	r1, r1, #1073741825	; 0x40000001
 3b8:	00064001 	andeq	r4, r6, r1
 3bc:	00342f00 	eorseq	r2, r4, r0, lsl #30
 3c0:	0b3a0e03 	bleq	e83bd4 <__bss_end__+0xe7da94>
 3c4:	13490b3b 	movtne	r0, #39739	; 0x9b3b
 3c8:	00000a02 	andeq	r0, r0, r2, lsl #20
 3cc:	03003430 	movweq	r3, #1072	; 0x430
 3d0:	3b0b3a0e 	blcc	2cec10 <__bss_end__+0x2c8ad0>
 3d4:	3f13490b 	svccc	0x0013490b
 3d8:	000c3c0c 	andeq	r3, ip, ip, lsl #24
 3dc:	00343100 	eorseq	r3, r4, r0, lsl #2
 3e0:	0b3a0e03 	bleq	e83bf4 <__bss_end__+0xe7dab4>
 3e4:	13490b3b 	movtne	r0, #39739	; 0x9b3b
 3e8:	0a020c3f 	beq	834ec <__bss_end__+0x7d3ac>
 3ec:	26320000 	ldrtcs	r0, [r2], -r0
 3f0:	00134900 	andseq	r4, r3, r0, lsl #18
 3f4:	000f3300 	andeq	r3, pc, r0, lsl #6
 3f8:	00000b0b 	andeq	r0, r0, fp, lsl #22
 3fc:	01110100 	tsteq	r1, r0, lsl #2
 400:	0b130e25 	bleq	4c3c9c <__bss_end__+0x4bdb5c>
 404:	0e1b0e03 	cdpeq	14, 1, cr0, cr11, cr3, {0}
 408:	01120111 	tsteq	r2, r1, lsl r1
 40c:	00000610 	andeq	r0, r0, r0, lsl r6
 410:	0b002402 	bleq	9420 <__bss_end__+0x32e0>
 414:	030b3e0b 	movweq	r3, #48651	; 0xbe0b
 418:	0300000e 	movweq	r0, #14
 41c:	08030016 	stmdaeq	r3, {r1, r2, r4}
 420:	0b3b0b3a 	bleq	ec3110 <__bss_end__+0xebcfd0>
 424:	00001349 	andeq	r1, r0, r9, asr #6
 428:	3f002e04 	svccc	0x00002e04
 42c:	3a0e030c 	bcc	381064 <__bss_end__+0x37af24>
 430:	270b3b0b 	strcs	r3, [fp, -fp, lsl #22]
 434:	1201110c 	andne	r1, r1, #12, 2
 438:	00064001 	andeq	r4, r6, r1
 43c:	012e0500 	teqeq	lr, r0, lsl #10
 440:	0e030c3f 	mcreq	12, 0, r0, cr3, cr15, {1}
 444:	0b3b0b3a 	bleq	ec3134 <__bss_end__+0xebcff4>
 448:	01110c27 	tsteq	r1, r7, lsr #24
 44c:	06400112 			; <UNDEFINED> instruction: 0x06400112
 450:	00001301 	andeq	r1, r0, r1, lsl #6
 454:	03003406 	movweq	r3, #1030	; 0x406
 458:	3b0b3a08 	blcc	2cec80 <__bss_end__+0x2c8b40>
 45c:	0213490b 	andseq	r4, r3, #180224	; 0x2c000
 460:	0700000a 	streq	r0, [r0, -sl]
 464:	0c3f012e 	ldfeqs	f0, [pc], #-184	; 3b4 <irq_handler+0x330>
 468:	0b3a0e03 	bleq	e83c7c <__bss_end__+0xe7db3c>
 46c:	0c270b3b 	stceq	11, cr0, [r7], #-236	; 0xffffff14
 470:	01120111 	tsteq	r2, r1, lsl r1
 474:	00000640 	andeq	r0, r0, r0, asr #12
 478:	03003408 	movweq	r3, #1032	; 0x408
 47c:	3b0b3a0e 	blcc	2cecbc <__bss_end__+0x2c8b7c>
 480:	0213490b 	andseq	r4, r3, #180224	; 0x2c000
 484:	0000000a 	andeq	r0, r0, sl
 488:	25011101 	strcs	r1, [r1, #-257]	; 0xfffffeff
 48c:	030b130e 	movweq	r1, #45838	; 0xb30e
 490:	110e1b0e 	tstne	lr, lr, lsl #22
 494:	10011201 	andne	r1, r1, r1, lsl #4
 498:	02000006 	andeq	r0, r0, #6
 49c:	0b0b0024 	bleq	2c0534 <__bss_end__+0x2ba3f4>
 4a0:	0e030b3e 	vmoveq.16	d3[0], r0
 4a4:	16030000 	strne	r0, [r3], -r0
 4a8:	3a0e0300 	bcc	3810b0 <__bss_end__+0x37af70>
 4ac:	490b3b0b 	stmdbmi	fp, {r0, r1, r3, r8, r9, fp, ip, sp}
 4b0:	04000013 	streq	r0, [r0], #-19	; 0xffffffed
 4b4:	0b0b0024 	bleq	2c054c <__bss_end__+0x2ba40c>
 4b8:	08030b3e 	stmdaeq	r3, {r1, r2, r3, r4, r5, r8, r9, fp}
 4bc:	13050000 	movwne	r0, #20480	; 0x5000
 4c0:	0b0e0301 	bleq	3810cc <__bss_end__+0x37af8c>
 4c4:	3b0b3a0b 	blcc	2cecf8 <__bss_end__+0x2c8bb8>
 4c8:	0013010b 	andseq	r0, r3, fp, lsl #2
 4cc:	000d0600 	andeq	r0, sp, r0, lsl #12
 4d0:	0b3a0e03 	bleq	e83ce4 <__bss_end__+0xe7dba4>
 4d4:	13490b3b 	movtne	r0, #39739	; 0x9b3b
 4d8:	00000a38 	andeq	r0, r0, r8, lsr sl
 4dc:	03000d07 	movweq	r0, #3335	; 0xd07
 4e0:	3b0b3a08 	blcc	2ced08 <__bss_end__+0x2c8bc8>
 4e4:	3813490b 	ldmdacc	r3, {r0, r1, r3, r8, fp, lr}
 4e8:	0800000a 	stmdaeq	r0, {r1, r3}
 4ec:	13490101 	movtne	r0, #37121	; 0x9101
 4f0:	00001301 	andeq	r1, r0, r1, lsl #6
 4f4:	49002109 	stmdbmi	r0, {r0, r3, r8, sp}
 4f8:	000b2f13 	andeq	r2, fp, r3, lsl pc
 4fc:	01170a00 	tsteq	r7, r0, lsl #20
 500:	0b3a0b0b 	bleq	e83134 <__bss_end__+0xe7cff4>
 504:	13010b3b 	movwne	r0, #6971	; 0x1b3b
 508:	0d0b0000 	stceq	0, cr0, [fp, #-0]
 50c:	3a0e0300 	bcc	381114 <__bss_end__+0x37afd4>
 510:	490b3b0b 	stmdbmi	fp, {r0, r1, r3, r8, r9, fp, ip, sp}
 514:	0c000013 	stceq	0, cr0, [r0], {19}
 518:	0803000d 	stmdaeq	r3, {r0, r2, r3}
 51c:	0b3b0b3a 	bleq	ec320c <__bss_end__+0xebd0cc>
 520:	00001349 	andeq	r1, r0, r9, asr #6
 524:	0301130d 	movweq	r1, #4877	; 0x130d
 528:	3a0b0b08 	bcc	2c3150 <__bss_end__+0x2bd010>
 52c:	010b3b0b 	tsteq	fp, fp, lsl #22
 530:	0e000013 	mcreq	0, 0, r0, cr0, cr3, {0}
 534:	0c3f012e 	ldfeqs	f0, [pc], #-184	; 484 <irq_handler+0x400>
 538:	0b3a0e03 	bleq	e83d4c <__bss_end__+0xe7dc0c>
 53c:	0c270b3b 	stceq	11, cr0, [r7], #-236	; 0xffffff14
 540:	01120111 	tsteq	r2, r1, lsl r1
 544:	13010640 	movwne	r0, #5696	; 0x1640
 548:	050f0000 	streq	r0, [pc, #-0]	; 550 <irq_handler+0x4cc>
 54c:	3a0e0300 	bcc	381154 <__bss_end__+0x37b014>
 550:	490b3b0b 	stmdbmi	fp, {r0, r1, r3, r8, r9, fp, ip, sp}
 554:	000a0213 	andeq	r0, sl, r3, lsl r2
 558:	00341000 	eorseq	r1, r4, r0
 55c:	0b3a0803 	bleq	e82570 <__bss_end__+0xe7c430>
 560:	13490b3b 	movtne	r0, #39739	; 0x9b3b
 564:	00000a02 	andeq	r0, r0, r2, lsl #20
 568:	03003411 	movweq	r3, #1041	; 0x411
 56c:	3b0b3a0e 	blcc	2cedac <__bss_end__+0x2c8c6c>
 570:	3f13490b 	svccc	0x0013490b
 574:	000c3c0c 	andeq	r3, ip, ip, lsl #24
 578:	00341200 	eorseq	r1, r4, r0, lsl #4
 57c:	0b3a0803 	bleq	e82590 <__bss_end__+0xe7c450>
 580:	13490b3b 	movtne	r0, #39739	; 0x9b3b
 584:	0c3c0c3f 	ldceq	12, cr0, [ip], #-252	; 0xffffff04
 588:	0f130000 	svceq	0x00130000
 58c:	490b0b00 	stmdbmi	fp, {r8, r9, fp}
 590:	14000013 	strne	r0, [r0], #-19	; 0xffffffed
 594:	0e030034 	mcreq	0, 0, r0, cr3, cr4, {1}
 598:	0b3b0b3a 	bleq	ec3288 <__bss_end__+0xebd148>
 59c:	0c3f1349 	ldceq	3, cr1, [pc], #-292	; 480 <irq_handler+0x3fc>
 5a0:	00000a02 	andeq	r0, r0, r2, lsl #20
 5a4:	03003415 	movweq	r3, #1045	; 0x415
 5a8:	3b0b3a08 	blcc	2cedd0 <__bss_end__+0x2c8c90>
 5ac:	3f13490b 	svccc	0x0013490b
 5b0:	000a020c 	andeq	r0, sl, ip, lsl #4
 5b4:	11010000 	mrsne	r0, (UNDEF: 1)
 5b8:	130e2501 	movwne	r2, #58625	; 0xe501
 5bc:	1b0e030b 	blne	3811f0 <__bss_end__+0x37b0b0>
 5c0:	1201110e 	andne	r1, r1, #-2147483645	; 0x80000003
 5c4:	00061001 	andeq	r1, r6, r1
 5c8:	00240200 	eoreq	r0, r4, r0, lsl #4
 5cc:	0b3e0b0b 	bleq	f83200 <__bss_end__+0xf7d0c0>
 5d0:	00000e03 	andeq	r0, r0, r3, lsl #28
 5d4:	3f012e03 	svccc	0x00012e03
 5d8:	3a0e030c 	bcc	381210 <__bss_end__+0x37b0d0>
 5dc:	270b3b0b 	strcs	r3, [fp, -fp, lsl #22]
 5e0:	1113490c 	tstne	r3, ip, lsl #18
 5e4:	40011201 	andmi	r1, r1, r1, lsl #4
 5e8:	00130106 	andseq	r0, r3, r6, lsl #2
 5ec:	00050400 	andeq	r0, r5, r0, lsl #8
 5f0:	0b3a0e03 	bleq	e83e04 <__bss_end__+0xe7dcc4>
 5f4:	13490b3b 	movtne	r0, #39739	; 0x9b3b
 5f8:	00000a02 	andeq	r0, r0, r2, lsl #20
 5fc:	03000505 	movweq	r0, #1285	; 0x505
 600:	3b0b3a08 	blcc	2cee28 <__bss_end__+0x2c8ce8>
 604:	0213490b 	andseq	r4, r3, #180224	; 0x2c000
 608:	0600000a 	streq	r0, [r0], -sl
 60c:	08030034 	stmdaeq	r3, {r2, r4, r5}
 610:	0b3b0b3a 	bleq	ec3300 <__bss_end__+0xebd1c0>
 614:	0a021349 	beq	85340 <__bss_end__+0x7f200>
 618:	0f070000 	svceq	0x00070000
 61c:	490b0b00 	stmdbmi	fp, {r8, r9, fp}
 620:	08000013 	stmdaeq	r0, {r0, r1, r4}
 624:	13490026 	movtne	r0, #36902	; 0x9026
 628:	0f090000 	svceq	0x00090000
 62c:	000b0b00 	andeq	r0, fp, r0, lsl #22
 630:	00260a00 	eoreq	r0, r6, r0, lsl #20
 634:	240b0000 	strcs	r0, [fp], #-0
 638:	3e0b0b00 	vmlacc.f64	d0, d11, d0
 63c:	0008030b 	andeq	r0, r8, fp, lsl #6
 640:	00340c00 	eorseq	r0, r4, r0, lsl #24
 644:	0b3a0e03 	bleq	e83e58 <__bss_end__+0xe7dd18>
 648:	13490b3b 	movtne	r0, #39739	; 0x9b3b
 64c:	00000a02 	andeq	r0, r0, r2, lsl #20
 650:	4901010d 	stmdbmi	r1, {r0, r2, r3, r8}
 654:	00130113 	andseq	r0, r3, r3, lsl r1
 658:	00210e00 	eoreq	r0, r1, r0, lsl #28
 65c:	0b2f1349 	bleq	bc5388 <__bss_end__+0xbbf248>
 660:	2e0f0000 	cdpcs	0, 0, cr0, cr15, cr0, {0}
 664:	030c3f01 	movweq	r3, #52993	; 0xcf01
 668:	3b0b3a0e 	blcc	2ceea8 <__bss_end__+0x2c8d68>
 66c:	490c270b 	stmdbmi	ip, {r0, r1, r3, r8, r9, sl, sp}
 670:	12011113 	andne	r1, r1, #-1073741820	; 0xc0000004
 674:	00064001 	andeq	r4, r6, r1
 678:	11010000 	mrsne	r0, (UNDEF: 1)
 67c:	130e2501 	movwne	r2, #58625	; 0xe501
 680:	1b0e030b 	blne	3812b4 <__bss_end__+0x37b174>
 684:	1201110e 	andne	r1, r1, #-2147483645	; 0x80000003
 688:	00061001 	andeq	r1, r6, r1
 68c:	00240200 	eoreq	r0, r4, r0, lsl #4
 690:	0b3e0b0b 	bleq	f832c4 <__bss_end__+0xf7d184>
 694:	00000e03 	andeq	r0, r0, r3, lsl #28
 698:	0b002403 	bleq	96ac <__bss_end__+0x356c>
 69c:	030b3e0b 	movweq	r3, #48651	; 0xbe0b
 6a0:	04000008 	streq	r0, [r0], #-8
 6a4:	0b0b000f 	bleq	2c06e8 <__bss_end__+0x2ba5a8>
 6a8:	00001349 	andeq	r1, r0, r9, asr #6
 6ac:	3f012e05 	svccc	0x00012e05
 6b0:	3a0e030c 	bcc	3812e8 <__bss_end__+0x37b1a8>
 6b4:	270b3b0b 	strcs	r3, [fp, -fp, lsl #22]
 6b8:	1113490c 	tstne	r3, ip, lsl #18
 6bc:	40011201 	andmi	r1, r1, r1, lsl #4
 6c0:	00130106 	andseq	r0, r3, r6, lsl #2
 6c4:	00050600 	andeq	r0, r5, r0, lsl #12
 6c8:	0b3a0e03 	bleq	e83edc <__bss_end__+0xe7dd9c>
 6cc:	13490b3b 	movtne	r0, #39739	; 0x9b3b
 6d0:	00000a02 	andeq	r0, r0, r2, lsl #20
 6d4:	3f012e07 	svccc	0x00012e07
 6d8:	3a08030c 	bcc	201310 <__bss_end__+0x1fb1d0>
 6dc:	490b3b0b 	stmdbmi	fp, {r0, r1, r3, r8, r9, fp, ip, sp}
 6e0:	000c3c13 	andeq	r3, ip, r3, lsl ip
 6e4:	00180800 	andseq	r0, r8, r0, lsl #16
 6e8:	2e090000 	cdpcs	0, 0, cr0, cr9, cr0, {0}
 6ec:	030c3f01 	movweq	r3, #52993	; 0xcf01
 6f0:	3b0b3a08 	blcc	2cef18 <__bss_end__+0x2c8dd8>
 6f4:	490c270b 	stmdbmi	ip, {r0, r1, r3, r8, r9, sl, sp}
 6f8:	12011113 	andne	r1, r1, #-1073741820	; 0xc0000004
 6fc:	01064001 	tsteq	r6, r1
 700:	0a000013 	beq	754 <irq_handler+0x6d0>
 704:	08030005 	stmdaeq	r3, {r0, r2}
 708:	0b3b0b3a 	bleq	ec33f8 <__bss_end__+0xebd2b8>
 70c:	0a021349 	beq	85438 <__bss_end__+0x7f2f8>
 710:	340b0000 	strcc	r0, [fp], #-0
 714:	3a080300 	bcc	20131c <__bss_end__+0x1fb1dc>
 718:	490b3b0b 	stmdbmi	fp, {r0, r1, r3, r8, r9, fp, ip, sp}
 71c:	000a0213 	andeq	r0, sl, r3, lsl r2
 720:	012e0c00 	teqeq	lr, r0, lsl #24
 724:	0e030c3f 	mcreq	12, 0, r0, cr3, cr15, {1}
 728:	0b3b0b3a 	bleq	ec3418 <__bss_end__+0xebd2d8>
 72c:	01110c27 	tsteq	r1, r7, lsr #24
 730:	06400112 			; <UNDEFINED> instruction: 0x06400112
 734:	00001301 	andeq	r1, r0, r1, lsl #6
 738:	3f012e0d 	svccc	0x00012e0d
 73c:	3a0e030c 	bcc	381374 <__bss_end__+0x37b234>
 740:	490b3b0b 	stmdbmi	fp, {r0, r1, r3, r8, r9, fp, ip, sp}
 744:	010c3c13 	tsteq	ip, r3, lsl ip
 748:	0e000013 	mcreq	0, 0, r0, cr0, cr3, {0}
 74c:	0111010b 	tsteq	r1, fp, lsl #2
 750:	00000112 	andeq	r0, r0, r2, lsl r1
 754:	3f012e0f 	svccc	0x00012e0f
 758:	3a0e030c 	bcc	381390 <__bss_end__+0x37b250>
 75c:	490b3b0b 	stmdbmi	fp, {r0, r1, r3, r8, r9, fp, ip, sp}
 760:	000c3c13 	andeq	r3, ip, r3, lsl ip
 764:	01151000 	tsteq	r5, r0
 768:	13010c27 	movwne	r0, #7207	; 0x1c27
 76c:	05110000 	ldreq	r0, [r1, #-0]
 770:	00134900 	andseq	r4, r3, r0, lsl #18
 774:	01011200 	mrseq	r1, R9_usr
 778:	13011349 	movwne	r1, #4937	; 0x1349
 77c:	21130000 	tstcs	r3, r0
 780:	2f134900 	svccs	0x00134900
 784:	1400000b 	strne	r0, [r0], #-11
 788:	0e030034 	mcreq	0, 0, r0, cr3, cr4, {1}
 78c:	0b3b0b3a 	bleq	ec347c <__bss_end__+0xebd33c>
 790:	0c3f1349 	ldceq	3, cr1, [pc], #-292	; 674 <irq_handler+0x5f0>
 794:	00000c3c 	andeq	r0, r0, ip, lsr ip
 798:	03003415 	movweq	r3, #1045	; 0x415
 79c:	3b0b3a0e 	blcc	2cefdc <__bss_end__+0x2c8e9c>
 7a0:	3f13490b 	svccc	0x0013490b
 7a4:	000a020c 	andeq	r0, sl, ip, lsl #4
 7a8:	11010000 	mrsne	r0, (UNDEF: 1)
 7ac:	130e2501 	movwne	r2, #58625	; 0xe501
 7b0:	1b0e030b 	blne	3813e4 <__bss_end__+0x37b2a4>
 7b4:	1201110e 	andne	r1, r1, #-2147483645	; 0x80000003
 7b8:	00061001 	andeq	r1, r6, r1
 7bc:	00160200 	andseq	r0, r6, r0, lsl #4
 7c0:	0b3a0e03 	bleq	e83fd4 <__bss_end__+0xe7de94>
 7c4:	13490b3b 	movtne	r0, #39739	; 0x9b3b
 7c8:	24030000 	strcs	r0, [r3], #-0
 7cc:	3e0b0b00 	vmlacc.f64	d0, d11, d0
 7d0:	000e030b 	andeq	r0, lr, fp, lsl #6
 7d4:	01130400 	tsteq	r3, r0, lsl #8
 7d8:	0b3a0b0b 	bleq	e8340c <__bss_end__+0xe7d2cc>
 7dc:	1301053b 	movwne	r0, #5435	; 0x153b
 7e0:	0d050000 	stceq	0, cr0, [r5, #-0]
 7e4:	3a0e0300 	bcc	3813ec <__bss_end__+0x37b2ac>
 7e8:	49053b0b 	stmdbmi	r5, {r0, r1, r3, r8, r9, fp, ip, sp}
 7ec:	000a3813 	andeq	r3, sl, r3, lsl r8
 7f0:	01170600 	tsteq	r7, r0, lsl #12
 7f4:	0b3a0b0b 	bleq	e83428 <__bss_end__+0xe7d2e8>
 7f8:	1301053b 	movwne	r0, #5435	; 0x153b
 7fc:	0d070000 	stceq	0, cr0, [r7, #-0]
 800:	3a080300 	bcc	201408 <__bss_end__+0x1fb2c8>
 804:	49053b0b 	stmdbmi	r5, {r0, r1, r3, r8, r9, fp, ip, sp}
 808:	08000013 	stmdaeq	r0, {r0, r1, r4}
 80c:	0e030016 	mcreq	0, 0, r0, cr3, cr6, {0}
 810:	053b0b3a 	ldreq	r0, [fp, #-2874]!	; 0xfffff4c6
 814:	00001349 	andeq	r1, r0, r9, asr #6
 818:	0b002409 	bleq	9844 <__bss_end__+0x3704>
 81c:	030b3e0b 	movweq	r3, #48651	; 0xbe0b
 820:	0a000008 	beq	848 <irq_handler+0x7c4>
 824:	0c3f012e 	ldfeqs	f0, [pc], #-184	; 774 <irq_handler+0x6f0>
 828:	0b3a0e03 	bleq	e8403c <__bss_end__+0xe7defc>
 82c:	0c270b3b 	stceq	11, cr0, [r7], #-236	; 0xffffff14
 830:	01120111 	tsteq	r2, r1, lsl r1
 834:	13010640 	movwne	r0, #5696	; 0x1640
 838:	050b0000 	streq	r0, [fp, #-0]
 83c:	3a0e0300 	bcc	381444 <__bss_end__+0x37b304>
 840:	490b3b0b 	stmdbmi	fp, {r0, r1, r3, r8, r9, fp, ip, sp}
 844:	000a0213 	andeq	r0, sl, r3, lsl r2
 848:	00340c00 	eorseq	r0, r4, r0, lsl #24
 84c:	0b3a0e03 	bleq	e84060 <__bss_end__+0xe7df20>
 850:	13490b3b 	movtne	r0, #39739	; 0x9b3b
 854:	00000a02 	andeq	r0, r0, r2, lsl #20
 858:	3f012e0d 	svccc	0x00012e0d
 85c:	3a0e030c 	bcc	381494 <__bss_end__+0x37b354>
 860:	270b3b0b 	strcs	r3, [fp, -fp, lsl #22]
 864:	1201110c 	andne	r1, r1, #12, 2
 868:	00064001 	andeq	r4, r6, r1
 86c:	11010000 	mrsne	r0, (UNDEF: 1)
 870:	11061000 	mrsne	r1, (UNDEF: 6)
 874:	03011201 	movweq	r1, #4609	; 0x1201
 878:	25081b08 	strcs	r1, [r8, #-2824]	; 0xfffff4f8
 87c:	00051308 	andeq	r1, r5, r8, lsl #6
 880:	11010000 	mrsne	r0, (UNDEF: 1)
 884:	130e2501 	movwne	r2, #58625	; 0xe501
 888:	1b0e030b 	blne	3814bc <__bss_end__+0x37b37c>
 88c:	1201110e 	andne	r1, r1, #-2147483645	; 0x80000003
 890:	00061001 	andeq	r1, r6, r1
 894:	00240200 	eoreq	r0, r4, r0, lsl #4
 898:	0b3e0b0b 	bleq	f834cc <__bss_end__+0xf7d38c>
 89c:	00000e03 	andeq	r0, r0, r3, lsl #28
 8a0:	03001603 	movweq	r1, #1539	; 0x603
 8a4:	3b0b3a08 	blcc	2cf0cc <__bss_end__+0x2c8f8c>
 8a8:	0013490b 	andseq	r4, r3, fp, lsl #18
 8ac:	00350400 	eorseq	r0, r5, r0, lsl #8
 8b0:	00001349 	andeq	r1, r0, r9, asr #6
 8b4:	0b011305 	bleq	454d0 <__bss_end__+0x3f390>
 8b8:	3b0b3a0b 	blcc	2cf0ec <__bss_end__+0x2c8fac>
 8bc:	0013010b 	andseq	r0, r3, fp, lsl #2
 8c0:	000d0600 	andeq	r0, sp, r0, lsl #12
 8c4:	0b3a0803 	bleq	e828d8 <__bss_end__+0xe7c798>
 8c8:	13490b3b 	movtne	r0, #39739	; 0x9b3b
 8cc:	00000a38 	andeq	r0, r0, r8, lsr sl
 8d0:	03001607 	movweq	r1, #1543	; 0x607
 8d4:	3b0b3a0e 	blcc	2cf114 <__bss_end__+0x2c8fd4>
 8d8:	0013490b 	andseq	r4, r3, fp, lsl #18
 8dc:	000d0800 	andeq	r0, sp, r0, lsl #16
 8e0:	0b3a0e03 	bleq	e840f4 <__bss_end__+0xe7dfb4>
 8e4:	13490b3b 	movtne	r0, #39739	; 0x9b3b
 8e8:	00000a38 	andeq	r0, r0, r8, lsr sl
 8ec:	03000d09 	movweq	r0, #3337	; 0xd09
 8f0:	3b0b3a08 	blcc	2cf118 <__bss_end__+0x2c8fd8>
 8f4:	0b13490b 	bleq	4d2d28 <__bss_end__+0x4ccbe8>
 8f8:	0c0b0d0b 	stceq	13, cr0, [fp], {11}
 8fc:	000a380b 	andeq	r3, sl, fp, lsl #16
 900:	000d0a00 	andeq	r0, sp, r0, lsl #20
 904:	0b3a0e03 	bleq	e84118 <__bss_end__+0xe7dfd8>
 908:	13490b3b 	movtne	r0, #39739	; 0x9b3b
 90c:	0b0d0b0b 	bleq	343540 <__bss_end__+0x33d400>
 910:	0a380b0c 	beq	e03548 <__bss_end__+0xdfd408>
 914:	170b0000 	strne	r0, [fp, -r0]
 918:	3a0b0b01 	bcc	2c3524 <__bss_end__+0x2bd3e4>
 91c:	010b3b0b 	tsteq	fp, fp, lsl #22
 920:	0c000013 	stceq	0, cr0, [r0], {19}
 924:	0803000d 	stmdaeq	r3, {r0, r2, r3}
 928:	0b3b0b3a 	bleq	ec3618 <__bss_end__+0xebd4d8>
 92c:	00001349 	andeq	r1, r0, r9, asr #6
 930:	0b000f0d 	bleq	456c <PowerSetCharger+0x30>
 934:	0e00000b 	cdpeq	0, 0, cr0, cr0, cr11, {0}
 938:	1349000d 	movtne	r0, #36877	; 0x900d
 93c:	010f0000 	mrseq	r0, CPSR
 940:	01134901 	tsteq	r3, r1, lsl #18
 944:	10000013 	andne	r0, r0, r3, lsl r0
 948:	13490021 	movtne	r0, #36897	; 0x9021
 94c:	00000b2f 	andeq	r0, r0, pc, lsr #22
 950:	03011311 	movweq	r1, #4881	; 0x1311
 954:	3a0b0b0e 	bcc	2c3594 <__bss_end__+0x2bd454>
 958:	010b3b0b 	tsteq	fp, fp, lsl #22
 95c:	12000013 	andne	r0, r0, #19
 960:	1349000d 	movtne	r0, #36877	; 0x900d
 964:	00000a38 	andeq	r0, r0, r8, lsr sl
 968:	0b000f13 	bleq	45bc <PowerStopCharger+0xc>
 96c:	0013490b 	andseq	r4, r3, fp, lsl #18
 970:	012e1400 	teqeq	lr, r0, lsl #8
 974:	0e030c3f 	mcreq	12, 0, r0, cr3, cr15, {1}
 978:	0b3b0b3a 	bleq	ec3668 <__bss_end__+0xebd528>
 97c:	13490c27 	movtne	r0, #39975	; 0x9c27
 980:	01120111 	tsteq	r2, r1, lsl r1
 984:	13010640 	movwne	r0, #5696	; 0x1640
 988:	05150000 	ldreq	r0, [r5, #-0]
 98c:	3a080300 	bcc	201594 <__bss_end__+0x1fb454>
 990:	490b3b0b 	stmdbmi	fp, {r0, r1, r3, r8, r9, fp, ip, sp}
 994:	000a0213 	andeq	r0, sl, r3, lsl r2
 998:	00341600 	eorseq	r1, r4, r0, lsl #12
 99c:	0b3a0e03 	bleq	e841b0 <__bss_end__+0xe7e070>
 9a0:	13490b3b 	movtne	r0, #39739	; 0x9b3b
 9a4:	00000a02 	andeq	r0, r0, r2, lsl #20
 9a8:	0b002417 	bleq	9a0c <__bss_end__+0x38cc>
 9ac:	030b3e0b 	movweq	r3, #48651	; 0xbe0b
 9b0:	18000008 	stmdane	r0, {r3}
 9b4:	0e030005 	cdpeq	0, 0, cr0, cr3, cr5, {0}
 9b8:	0b3b0b3a 	bleq	ec36a8 <__bss_end__+0xebd568>
 9bc:	0a021349 	beq	856e8 <__bss_end__+0x7f5a8>
 9c0:	2e190000 	cdpcs	0, 1, cr0, cr9, cr0, {0}
 9c4:	030c3f01 	movweq	r3, #52993	; 0xcf01
 9c8:	3b0b3a0e 	blcc	2cf208 <__bss_end__+0x2c90c8>
 9cc:	110c270b 	tstne	ip, fp, lsl #14
 9d0:	40011201 	andmi	r1, r1, r1, lsl #4
 9d4:	00130106 	andseq	r0, r3, r6, lsl #2
 9d8:	00341a00 	eorseq	r1, r4, r0, lsl #20
 9dc:	0b3a0e03 	bleq	e841f0 <__bss_end__+0xe7e0b0>
 9e0:	13490b3b 	movtne	r0, #39739	; 0x9b3b
 9e4:	0c3c0c3f 	ldceq	12, cr0, [ip], #-252	; 0xffffff04
 9e8:	341b0000 	ldrcc	r0, [fp], #-0
 9ec:	3a0e0300 	bcc	3815f4 <__bss_end__+0x37b4b4>
 9f0:	490b3b0b 	stmdbmi	fp, {r0, r1, r3, r8, r9, fp, ip, sp}
 9f4:	020c3f13 	andeq	r3, ip, #19, 30	; 0x4c
 9f8:	0000000a 	andeq	r0, r0, sl
 9fc:	25011101 	strcs	r1, [r1, #-257]	; 0xfffffeff
 a00:	030b130e 	movweq	r1, #45838	; 0xb30e
 a04:	110e1b0e 	tstne	lr, lr, lsl #22
 a08:	10011201 	andne	r1, r1, r1, lsl #4
 a0c:	02000006 	andeq	r0, r0, #6
 a10:	0e030016 	mcreq	0, 0, r0, cr3, cr6, {0}
 a14:	0b3b0b3a 	bleq	ec3704 <__bss_end__+0xebd5c4>
 a18:	00001349 	andeq	r1, r0, r9, asr #6
 a1c:	0b002403 	bleq	9a30 <__bss_end__+0x38f0>
 a20:	030b3e0b 	movweq	r3, #48651	; 0xbe0b
 a24:	0400000e 	streq	r0, [r0], #-14
 a28:	0b0b0113 	bleq	2c0e7c <__bss_end__+0x2bad3c>
 a2c:	0b3b0b3a 	bleq	ec371c <__bss_end__+0xebd5dc>
 a30:	00001301 	andeq	r1, r0, r1, lsl #6
 a34:	03000d05 	movweq	r0, #3333	; 0xd05
 a38:	3b0b3a0e 	blcc	2cf278 <__bss_end__+0x2c9138>
 a3c:	3813490b 	ldmdacc	r3, {r0, r1, r3, r8, fp, lr}
 a40:	0600000a 	streq	r0, [r0], -sl
 a44:	0803000d 	stmdaeq	r3, {r0, r2, r3}
 a48:	0b3b0b3a 	bleq	ec3738 <__bss_end__+0xebd5f8>
 a4c:	0b0b1349 	bleq	2c5778 <__bss_end__+0x2bf638>
 a50:	0b0c0b0d 	bleq	30368c <__bss_end__+0x2fd54c>
 a54:	00000a38 	andeq	r0, r0, r8, lsr sl
 a58:	03000d07 	movweq	r0, #3335	; 0xd07
 a5c:	3b0b3a0e 	blcc	2cf29c <__bss_end__+0x2c915c>
 a60:	0b13490b 	bleq	4d2e94 <__bss_end__+0x4ccd54>
 a64:	0c0b0d0b 	stceq	13, cr0, [fp], {11}
 a68:	000a380b 	andeq	r3, sl, fp, lsl #16
 a6c:	01170800 	tsteq	r7, r0, lsl #16
 a70:	0b3a0b0b 	bleq	e836a4 <__bss_end__+0xe7d564>
 a74:	13010b3b 	movwne	r0, #6971	; 0x1b3b
 a78:	0d090000 	stceq	0, cr0, [r9, #-0]
 a7c:	3a080300 	bcc	201684 <__bss_end__+0x1fb544>
 a80:	490b3b0b 	stmdbmi	fp, {r0, r1, r3, r8, r9, fp, ip, sp}
 a84:	0a000013 	beq	ad8 <irq_handler+0xa54>
 a88:	0b0b0024 	bleq	2c0b20 <__bss_end__+0x2ba9e0>
 a8c:	08030b3e 	stmdaeq	r3, {r1, r2, r3, r4, r5, r8, r9, fp}
 a90:	2e0b0000 	cdpcs	0, 0, cr0, cr11, cr0, {0}
 a94:	030c3f01 	movweq	r3, #52993	; 0xcf01
 a98:	3b0b3a0e 	blcc	2cf2d8 <__bss_end__+0x2c9198>
 a9c:	1113490b 	tstne	r3, fp, lsl #18
 aa0:	40011201 	andmi	r1, r1, r1, lsl #4
 aa4:	00130106 	andseq	r0, r3, r6, lsl #2
 aa8:	00340c00 	eorseq	r0, r4, r0, lsl #24
 aac:	0b3a0e03 	bleq	e842c0 <__bss_end__+0xe7e180>
 ab0:	13490b3b 	movtne	r0, #39739	; 0x9b3b
 ab4:	00000a02 	andeq	r0, r0, r2, lsl #20
 ab8:	3f012e0d 	svccc	0x00012e0d
 abc:	3a0e030c 	bcc	3816f4 <__bss_end__+0x37b5b4>
 ac0:	270b3b0b 	strcs	r3, [fp, -fp, lsl #22]
 ac4:	1201110c 	andne	r1, r1, #12, 2
 ac8:	01064001 	tsteq	r6, r1
 acc:	0e000013 	mcreq	0, 0, r0, cr0, cr3, {0}
 ad0:	0e030005 	cdpeq	0, 0, cr0, cr3, cr5, {0}
 ad4:	0b3b0b3a 	bleq	ec37c4 <__bss_end__+0xebd684>
 ad8:	0a021349 	beq	85804 <__bss_end__+0x7f6c4>
 adc:	2e0f0000 	cdpcs	0, 0, cr0, cr15, cr0, {0}
 ae0:	030c3f01 	movweq	r3, #52993	; 0xcf01
 ae4:	3b0b3a0e 	blcc	2cf324 <__bss_end__+0x2c91e4>
 ae8:	490c270b 	stmdbmi	ip, {r0, r1, r3, r8, r9, sl, sp}
 aec:	12011113 	andne	r1, r1, #-1073741820	; 0xc0000004
 af0:	01064001 	tsteq	r6, r1
 af4:	10000013 	andne	r0, r0, r3, lsl r0
 af8:	08030005 	stmdaeq	r3, {r0, r2}
 afc:	0b3b0b3a 	bleq	ec37ec <__bss_end__+0xebd6ac>
 b00:	0a021349 	beq	8582c <__bss_end__+0x7f6ec>
 b04:	34110000 	ldrcc	r0, [r1], #-0
 b08:	3a080300 	bcc	201710 <__bss_end__+0x1fb5d0>
 b0c:	490b3b0b 	stmdbmi	fp, {r0, r1, r3, r8, r9, fp, ip, sp}
 b10:	000a0213 	andeq	r0, sl, r3, lsl r2
 b14:	000f1200 	andeq	r1, pc, r0, lsl #4
 b18:	13490b0b 	movtne	r0, #39691	; 0x9b0b
 b1c:	26130000 	ldrcs	r0, [r3], -r0
 b20:	00134900 	andseq	r4, r3, r0, lsl #18
 b24:	012e1400 	teqeq	lr, r0, lsl #8
 b28:	0e030c3f 	mcreq	12, 0, r0, cr3, cr15, {1}
 b2c:	0b3b0b3a 	bleq	ec381c <__bss_end__+0xebd6dc>
 b30:	13490c27 	movtne	r0, #39975	; 0x9c27
 b34:	01120111 	tsteq	r2, r1, lsl r1
 b38:	00000640 	andeq	r0, r0, r0, asr #12
	...

Disassembly of section .debug_line:

00000000 <.debug_line>:
   0:	000000a6 	andeq	r0, r0, r6, lsr #1
   4:	001d0002 	andseq	r0, sp, r2
   8:	01020000 	mrseq	r0, (UNDEF: 2)
   c:	000d0efb 	strdeq	r0, [sp], -fp
  10:	01010101 	tsteq	r1, r1, lsl #2
  14:	01000000 	mrseq	r0, (UNDEF: 0)
  18:	00010000 	andeq	r0, r1, r0
  1c:	6e69616d 	powvsez	f6, f1, #5.0
  20:	0000632e 	andeq	r6, r0, lr, lsr #6
  24:	00000000 	andeq	r0, r0, r0
  28:	10000205 	andne	r0, r0, r5, lsl #4
  2c:	0b030000 	bleq	c0034 <__bss_end__+0xb9ef4>
  30:	4e4b6701 	cdpmi	7, 4, cr6, cr11, cr1, {0}
  34:	02040200 	andeq	r0, r4, #0, 4
  38:	00660903 	rsbeq	r0, r6, r3, lsl #18
  3c:	03020402 	movweq	r0, #9218	; 0x2402
  40:	0200d677 	andeq	sp, r0, #124780544	; 0x7700000
  44:	66060104 	strvs	r0, [r6], -r4, lsl #2
  48:	820c0306 	andhi	r0, ip, #402653184	; 0x18000000
  4c:	4b5a086a 	blmi	16821fc <__bss_end__+0x167c0bc>
  50:	4a76034d 	bmi	1d80d8c <__bss_end__+0x1d7ac4c>
  54:	01040200 	mrseq	r0, R12_usr
  58:	03066606 	movweq	r6, #26118	; 0x6606
  5c:	032f8210 	teqeq	pc, #16, 4
  60:	2f6bba09 	svccs	0x006bba09
  64:	4b4d832f 	blmi	1360d28 <__bss_end__+0x135abe8>
  68:	04020083 	streq	r0, [r2], #-131	; 0xffffff7d
  6c:	06660601 	strbteq	r0, [r6], -r1, lsl #12
  70:	040200da 	streq	r0, [r2], #-218	; 0xffffff26
  74:	02006802 	andeq	r6, r0, #131072	; 0x20000
  78:	004b0204 	subeq	r0, fp, r4, lsl #4
  7c:	9b020402 	blls	8108c <__bss_end__+0x7af4c>
  80:	01040200 	mrseq	r0, R12_usr
  84:	6c066606 	stcvs	6, cr6, [r6], {6}
  88:	01040200 	mrseq	r0, R12_usr
  8c:	d8066606 	stmdale	r6, {r1, r2, r9, sl, sp, lr}
  90:	04020068 	streq	r0, [r2], #-104	; 0xffffff98
  94:	06660601 	strbteq	r0, [r6], -r1, lsl #12
  98:	020068d8 	andeq	r6, r0, #216, 16	; 0xd80000
  9c:	66060104 	strvs	r0, [r6], -r4, lsl #2
  a0:	4b30d806 	blmi	c360c0 <__bss_end__+0xc2ff80>
  a4:	0010024c 	andseq	r0, r0, ip, asr #4
  a8:	05870101 	streq	r0, [r7, #257]	; 0x101
  ac:	00020000 	andeq	r0, r2, r0
  b0:	000000b1 	strheq	r0, [r0], -r1
  b4:	0efb0102 	cdpeq	1, 15, cr0, cr11, cr2, {0}
  b8:	0101000d 	tsteq	r1, sp
  bc:	00000101 	andeq	r0, r0, r1, lsl #2
  c0:	00000100 	andeq	r0, r0, r0, lsl #2
  c4:	6c780001 	ldclvs	0, cr0, [r8], #-4
  c8:	632e7264 	teqvs	lr, #100, 4	; 0x40000006
  cc:	00000000 	andeq	r0, r0, r0
  d0:	5f636f73 	svcpl	0x00636f73
  d4:	65707974 	ldrbvs	r7, [r0, #-2420]!	; 0xfffff68c
  d8:	00682e73 	rsbeq	r2, r8, r3, ror lr
  dc:	72000000 	andvc	r0, r0, #0
  e0:	64736765 	ldrbtvs	r6, [r3], #-1893	; 0xfffff89b
  e4:	74636769 	strbtvc	r6, [r3], #-1897	; 0xfffff897
  e8:	00682e6c 	rsbeq	r2, r8, ip, ror #28
  ec:	72000000 	andvc	r0, r0, #0
  f0:	65736765 	ldrbvs	r6, [r3, #-1893]!	; 0xfffff89b
  f4:	682e696d 	stmdavs	lr!, {r0, r2, r3, r5, r6, r8, fp, sp, lr}
  f8:	00000000 	andeq	r0, r0, r0
  fc:	73676572 	cmnvc	r7, #478150656	; 0x1c800000
 100:	6d617264 	sfmvs	f7, 2, [r1, #-400]!	; 0xfffffe70
 104:	0000682e 	andeq	r6, r0, lr, lsr #16
 108:	65720000 	ldrbvs	r0, [r2, #-0]!
 10c:	6c637367 	stclvs	3, cr7, [r3], #-412	; 0xfffffe64
 110:	7274636b 	rsbsvc	r6, r4, #-1409286143	; 0xac000001
 114:	00682e6c 	rsbeq	r2, r8, ip, ror #28
 118:	72000000 	andvc	r0, r0, #0
 11c:	70736765 	rsbsvc	r6, r3, r5, ror #14
 120:	7265776f 	rsbvc	r7, r5, #29097984	; 0x1bc0000
 124:	0000682e 	andeq	r6, r0, lr, lsr #16
 128:	65720000 	ldrbvs	r0, [r2, #-0]!
 12c:	61757367 	cmnvs	r5, r7, ror #6
 130:	62647472 	rsbvs	r7, r4, #1912602624	; 0x72000000
 134:	00682e67 	rsbeq	r2, r8, r7, ror #28
 138:	72000000 	andvc	r0, r0, #0
 13c:	75736765 	ldrbvc	r6, [r3, #-1893]!	; 0xfffff89b
 140:	68706273 	ldmdavs	r0!, {r0, r1, r4, r5, r6, r9, sp, lr}^
 144:	00682e79 	rsbeq	r2, r8, r9, ror lr
 148:	72000000 	andvc	r0, r0, #0
 14c:	6c736765 	ldclvs	7, cr6, [r3], #-404	; 0xfffffe6c
 150:	63646172 	cmnvs	r4, #-2147483620	; 0x8000001c
 154:	0000682e 	andeq	r6, r0, lr, lsr #16
 158:	6c780000 	ldclvs	0, cr0, [r8], #-0
 15c:	682e7264 	stmdavs	lr!, {r2, r5, r6, r9, ip, sp, lr}
 160:	00000000 	andeq	r0, r0, r0
 164:	02050000 	andeq	r0, r5, #0
 168:	00001258 	andeq	r1, r0, r8, asr r2
 16c:	0100d103 	tsteq	r0, r3, lsl #2
 170:	0a039f4b 	beq	e7ea4 <__bss_end__+0xe1d64>
 174:	0a034b9e 	beq	d2ff4 <__bss_end__+0xcceb4>
 178:	4c9f4b66 	vldmiami	pc, {d4-<overflow reg d54>}
 17c:	9e0a032f 	cdpls	3, 0, cr0, cr10, cr15, {1}
 180:	0367674b 	cmneq	r7, #19660800	; 0x12c0000
 184:	9f888215 	svcls	0x00888215
 188:	08529f4d 	ldmdaeq	r2, {r0, r2, r3, r6, r8, r9, sl, fp, ip, pc}^
 18c:	1503305a 	strne	r3, [r3, #-90]	; 0xffffffa6
 190:	a36784d6 	cmnge	r7, #-704643072	; 0xd6000000
 194:	0200a12b 	andeq	sl, r0, #-1073741814	; 0xc000000a
 198:	2e060104 	adfcss	f0, f6, f4
 19c:	17039f06 	strne	r9, [r3, -r6, lsl #30]
 1a0:	2602a382 	strcs	sl, [r2], -r2, lsl #7
 1a4:	4f9f6d15 	svcmi	0x009f6d15
 1a8:	9f4f9f69 	svcls	0x004f9f69
 1ac:	4f9f6d51 	svcmi	0x009f6d51
 1b0:	694f9f6d 	stmdbvs	pc, {r0, r2, r3, r5, r6, r8, r9, sl, fp, ip, pc}^	; <UNPREDICTABLE>
 1b4:	034a0a03 	movteq	r0, #43523	; 0xaa03
 1b8:	0f034a45 	svceq	0x00034a45
 1bc:	820f0382 	andhi	r0, pc, #134217730	; 0x8000002
 1c0:	03820d03 	orreq	r0, r2, #3, 26	; 0xc0
 1c4:	0b03820d 	bleq	e0a00 <__bss_end__+0xda8c0>
 1c8:	6884672e 	stmvs	r4, {r1, r2, r3, r5, r8, r9, sl, sp, lr}
 1cc:	0813032f 	ldmdaeq	r3, {r0, r1, r2, r3, r5, r8, r9}
 1d0:	83834bc8 	orrhi	r4, r3, #200, 22	; 0x32000
 1d4:	83838383 	orrhi	r8, r3, #201326594	; 0xc000002
 1d8:	83838383 	orrhi	r8, r3, #201326594	; 0xc000002
 1dc:	83848383 	orrhi	r8, r4, #201326594	; 0xc000002
 1e0:	020c0383 	andeq	r0, ip, #201326594	; 0xc000002
 1e4:	4b4b0126 	blmi	12c0684 <__bss_end__+0x12ba544>
 1e8:	0a03674b 	beq	d9f1c <__bss_end__+0xd3ddc>
 1ec:	c069834a 	rsbgt	r8, r9, sl, asr #6
 1f0:	820a03a0 	andhi	r0, sl, #160, 6	; 0x80000002
 1f4:	69bc6983 	ldmibvs	ip!, {r0, r1, r7, r8, fp, sp, lr}
 1f8:	0c039fbd 	stceq	15, cr9, [r3], {189}	; 0xbd
 1fc:	4b4b4b9e 	blmi	12d307c <__bss_end__+0x12ccf3c>
 200:	4a0c0367 	bmi	300fa4 <__bss_end__+0x2fae64>
 204:	83a09f4b 	movhi	r9, #300	; 0x12c
 208:	84838483 	strhi	r8, [r3], #1155	; 0x483
 20c:	87f20a03 	ldrbhi	r0, [r2, r3, lsl #20]!
 210:	034c686d 	movteq	r6, #51309	; 0xc86d
 214:	6b88660a 	blvs	fe219a44 <__bss_end__+0xfe213904>
 218:	01040200 	mrseq	r0, R12_usr
 21c:	bc062e06 	stclt	14, cr2, [r6], {6}
 220:	83660b03 	cmnhi	r6, #3072	; 0xc00
 224:	9fa09f69 	svcls	0x00a09f69
 228:	a4bf4ca0 	ldrtge	r4, [pc], #3232	; 230 <irq_handler+0x1ac>
 22c:	83820b03 	orrhi	r0, r2, #3072	; 0xc00
 230:	9fa09f69 	svcls	0x00a09f69
 234:	a4bf4ca0 	ldrtge	r4, [pc], #3232	; 23c <irq_handler+0x1b8>
 238:	4c4c678a 	mcrrmi	7, 8, r6, ip, cr10
 23c:	4a0d034c 	bmi	340f74 <__bss_end__+0x33ae34>
 240:	30a33030 	adccc	r3, r3, r0, lsr r0
 244:	be661103 	powlts	f1, f6, f3
 248:	67676a4e 	strbvs	r6, [r7, -lr, asr #20]!
 24c:	686c6767 	stmdavs	ip!, {r0, r1, r2, r5, r6, r8, r9, sl, sp, lr}^
 250:	4b68684b 	blmi	1a1a384 <__bss_end__+0x1a14244>
 254:	644a0b03 	strbvs	r0, [sl], #-2819	; 0xfffff4fd
 258:	0402004c 	streq	r0, [r2], #-76	; 0xffffffb4
 25c:	02009f01 	andeq	r9, r0, #1, 30
 260:	4b650104 	blmi	1940678 <__bss_end__+0x193a538>
 264:	2f30a1a1 	svccs	0x0030a1a1
 268:	684f2f30 	stmdavs	pc, {r4, r5, r8, r9, sl, fp, sp}^	; <UNPREDICTABLE>
 26c:	63f3684e 	mvnsvs	r6, #5111808	; 0x4e0000
 270:	01040200 	mrseq	r0, R12_usr
 274:	6c066606 	stcvs	6, cr6, [r6], {6}
 278:	4b675267 	blmi	19d4c1c <__bss_end__+0x19ceadc>
 27c:	4e84314d 	rmfmism	f3, f4, #5.0
 280:	08090369 	stmdaeq	r9, {r0, r3, r5, r6, r8, r9}
 284:	0a03693c 	beq	da77c <__bss_end__+0xd463c>
 288:	03693c08 	cmneq	r9, #8, 24	; 0x800
 28c:	693c080a 	ldmdbvs	ip!, {r1, r3, fp}
 290:	20080c03 	andcs	r0, r8, r3, lsl #24
 294:	322f6931 	eorcc	r6, pc, #802816	; 0xc4000
 298:	03684b31 	cmneq	r8, #50176	; 0xc400
 29c:	4b6a4a23 	blmi	1a92b30 <__bss_end__+0x1a8c9f0>
 2a0:	4b4b4c4b 	blmi	12d33d4 <__bss_end__+0x12cd294>
 2a4:	4c2f684b 	stcmi	8, cr6, [pc], #-300	; 180 <irq_handler+0xfc>
 2a8:	4c4b4b6b 	mcrrmi	11, 6, r4, fp, cr11
 2ac:	684b4b4b 	stmdavs	fp, {r0, r1, r3, r6, r8, r9, fp, lr}^
 2b0:	67400831 	smlaldxvs	r0, r0, r1, r8	; <UNPREDICTABLE>
 2b4:	9f68a168 	svcls	0x0068a168
 2b8:	bc9f68bc 	ldclt	8, cr6, [pc], {188}	; 0xbc
 2bc:	68bc9f68 	ldmvs	ip!, {r3, r5, r6, r8, r9, sl, fp, ip, pc}
 2c0:	9f68bc9f 	svcls	0x0068bc9f
 2c4:	a29f68a0 	addsge	r6, pc, #160, 16	; 0xa00000
 2c8:	0402004f 	streq	r0, [r2], #-79	; 0xffffffb1
 2cc:	02006701 	andeq	r6, r0, #262144	; 0x40000
 2d0:	4d490104 	stfmie	f0, [r9, #-16]
 2d4:	004d8487 	subeq	r8, sp, r7, lsl #9
 2d8:	06010402 	streq	r0, [r1], -r2, lsl #8
 2dc:	bdbf062e 	ldclt	6, cr0, [pc, #184]!	; 39c <irq_handler+0x318>
 2e0:	3033504e 	eorscc	r5, r3, lr, asr #32
 2e4:	032f4c30 	teqeq	pc, #48, 24	; 0x3000
 2e8:	0122020a 	teqeq	r2, sl, lsl #4
 2ec:	1b032f83 	blne	cc100 <__bss_end__+0xc5fc0>
 2f0:	1703da82 	strne	sp, [r3, -r2, lsl #21]
 2f4:	66090366 	strvs	r0, [r9], -r6, ror #6
 2f8:	72020b03 	andvc	r0, r2, #3072	; 0xc00
 2fc:	660a0301 	strvs	r0, [sl], -r1, lsl #6
 300:	80020c03 	andhi	r0, r2, r3, lsl #24
 304:	036e0101 	cmneq	lr, #1073741824	; 0x40000000
 308:	01600209 	cmneq	r0, r9, lsl #4
 30c:	03660a03 	cmneq	r6, #12288	; 0x3000
 310:	0a036619 	beq	d9b7c <__bss_end__+0xd3a3c>
 314:	020c0366 	andeq	r0, ip, #-1744830463	; 0x98000001
 318:	03010180 	movweq	r0, #4480	; 0x1180
 31c:	0c03660a 	stceq	6, cr6, [r3], {10}
 320:	01018002 	tsteq	r1, r2
 324:	0209036e 	andeq	r0, r9, #-1207959551	; 0xb8000001
 328:	13030160 	movwne	r0, #12640	; 0x3160
 32c:	0c036e66 	stceq	14, cr6, [r3], {102}	; 0x66
 330:	4d013402 	cfstrsmi	mvf3, [r1, #-8]
 334:	66140369 	ldrvs	r0, [r4], -r9, ror #6
 338:	4bba0c03 	blmi	fee8334c <__bss_end__+0xfee7d20c>
 33c:	03674b4b 	cmneq	r7, #76800	; 0x12c00
 340:	0b034a0c 	bleq	d2b78 <__bss_end__+0xcca38>
 344:	0c03304a 	stceq	0, cr3, [r3], {74}	; 0x4a
 348:	4c4c692e 	mcrrmi	9, 2, r6, ip, cr14
 34c:	0200bc30 	andeq	fp, r0, #48, 24	; 0x3000
 350:	89460104 	stmdbhi	r6, {r2, r8}^
 354:	820a032f 	andhi	r0, sl, #-1140850688	; 0xbc000000
 358:	67846784 	strvs	r6, [r4, r4, lsl #15]
 35c:	889e0903 	ldmhi	lr, {r0, r1, r8, fp}
 360:	03688467 	cmneq	r8, #1728053248	; 0x67000000
 364:	9f849e0a 	svcls	0x00849e0a
 368:	2f5a084d 	svccs	0x005a084d
 36c:	88ba0903 	ldmhi	sl!, {r0, r1, r8, fp}
 370:	529f4d9f 	addspl	r4, pc, #10176	; 0x27c0
 374:	03303f08 	teqeq	r0, #8, 30
 378:	4c67f209 	sfmmi	f7, 3, [r7], #-36	; 0xffffffdc
 37c:	83838367 	orrhi	r8, r3, #-1677721599	; 0x9c000001
 380:	83838383 	orrhi	r8, r3, #201326594	; 0xc000002
 384:	83838383 	orrhi	r8, r3, #201326594	; 0xc000002
 388:	83838383 	orrhi	r8, r3, #201326594	; 0xc000002
 38c:	83838383 	orrhi	r8, r3, #201326594	; 0xc000002
 390:	83838383 	orrhi	r8, r3, #201326594	; 0xc000002
 394:	83838383 	orrhi	r8, r3, #201326594	; 0xc000002
 398:	83838383 	orrhi	r8, r3, #201326594	; 0xc000002
 39c:	83838383 	orrhi	r8, r3, #201326594	; 0xc000002
 3a0:	83838383 	orrhi	r8, r3, #201326594	; 0xc000002
 3a4:	020a0383 	andeq	r0, sl, #201326594	; 0xc000002
 3a8:	4c670130 	stfmie	f0, [r7], #-192	; 0xffffff40
 3ac:	83838383 	orrhi	r8, r3, #201326594	; 0xc000002
 3b0:	83838383 	orrhi	r8, r3, #201326594	; 0xc000002
 3b4:	83838383 	orrhi	r8, r3, #201326594	; 0xc000002
 3b8:	83838383 	orrhi	r8, r3, #201326594	; 0xc000002
 3bc:	e4080f03 	str	r0, [r8], #-3843	; 0xfffff0fd
 3c0:	83674c67 	cmnhi	r7, #26368	; 0x6700
 3c4:	83838383 	orrhi	r8, r3, #201326594	; 0xc000002
 3c8:	83838383 	orrhi	r8, r3, #201326594	; 0xc000002
 3cc:	83838383 	orrhi	r8, r3, #201326594	; 0xc000002
 3d0:	83838383 	orrhi	r8, r3, #201326594	; 0xc000002
 3d4:	83838383 	orrhi	r8, r3, #201326594	; 0xc000002
 3d8:	83838383 	orrhi	r8, r3, #201326594	; 0xc000002
 3dc:	83838383 	orrhi	r8, r3, #201326594	; 0xc000002
 3e0:	83838383 	orrhi	r8, r3, #201326594	; 0xc000002
 3e4:	84838383 	strhi	r8, [r3], #899	; 0x383
 3e8:	03838383 	orreq	r8, r3, #201326594	; 0xc000002
 3ec:	01360210 	teqeq	r6, r0, lsl r2
 3f0:	83674c67 	cmnhi	r7, #26368	; 0x6700
 3f4:	83838383 	orrhi	r8, r3, #201326594	; 0xc000002
 3f8:	83838383 	orrhi	r8, r3, #201326594	; 0xc000002
 3fc:	83838383 	orrhi	r8, r3, #201326594	; 0xc000002
 400:	83838383 	orrhi	r8, r3, #201326594	; 0xc000002
 404:	83838383 	orrhi	r8, r3, #201326594	; 0xc000002
 408:	83838383 	orrhi	r8, r3, #201326594	; 0xc000002
 40c:	83838383 	orrhi	r8, r3, #201326594	; 0xc000002
 410:	83838383 	orrhi	r8, r3, #201326594	; 0xc000002
 414:	84838383 	strhi	r8, [r3], #899	; 0x383
 418:	02838383 	addeq	r8, r3, #201326594	; 0xc000002
 41c:	4b4b1834 	blmi	12c64f4 <__bss_end__+0x12c03b4>
 420:	4c4c69a1 	mcrrmi	9, 10, r6, ip, cr1
 424:	0200bc30 	andeq	fp, r0, #48, 24	; 0x3000
 428:	89460104 	stmdbhi	r6, {r2, r8}^
 42c:	67a2882f 	strvs	r8, [r2, pc, lsr #16]!
 430:	02008484 	andeq	r8, r0, #132, 8	; 0x84000000
 434:	82060204 	andhi	r0, r6, #4, 4	; 0x40000000
 438:	01040200 	mrseq	r0, R12_usr
 43c:	04020082 	streq	r0, [r2], #-130	; 0xffffff7e
 440:	4e066603 	cfmadd32mi	mvax0, mvfx6, mvfx6, mvfx3
 444:	01040200 	mrseq	r0, R12_usr
 448:	02008206 	andeq	r8, r0, #1610612736	; 0x60000000
 44c:	00ba0204 	adcseq	r0, sl, r4, lsl #4
 450:	2e030402 	cdpcs	4, 0, cr0, cr3, cr2, {0}
 454:	032f3106 	teqeq	pc, #-2147483647	; 0x80000001
 458:	67839e09 	strvs	r9, [r3, r9, lsl #28]
 45c:	09039fbc 	stmdbeq	r3, {r2, r3, r4, r5, r7, r8, r9, sl, fp, ip, pc}
 460:	bc698382 	stcllt	3, cr8, [r9], #-520	; 0xfffffdf8
 464:	039fbd69 	orrseq	fp, pc, #6720	; 0x1a40
 468:	686a9e09 	stmdavs	sl!, {r0, r3, r9, sl, fp, ip, pc}^
 46c:	6a676769 	bvs	19da218 <__bss_end__+0x19d40d8>
 470:	0a03f6d7 	beq	fdfd4 <__bss_end__+0xf7e94>
 474:	02003066 	andeq	r3, r0, #102	; 0x66
 478:	a4640104 	strbtge	r0, [r4], #-260	; 0xfffffefc
 47c:	03696aa1 	cmneq	r9, #659456	; 0xa1000
 480:	9fe40809 	svcls	0x00e40809
 484:	0200304b 	andeq	r3, r0, #75	; 0x4b
 488:	00640104 	rsbeq	r0, r4, r4, lsl #2
 48c:	06020402 	streq	r0, [r2], -r2, lsl #8
 490:	9f89069e 	svcls	0x0089069e
 494:	ba0a0367 	blt	281238 <__bss_end__+0x27b0f8>
 498:	4c4b8367 	mcrrmi	3, 6, r8, fp, cr7
 49c:	bd696767 	stcllt	7, cr6, [r9, #-412]!	; 0xfffffe64
 4a0:	0402004d 	streq	r0, [r2], #-77	; 0xffffffb3
 4a4:	062e0601 	strteq	r0, [lr], -r1, lsl #12
 4a8:	4dbdbea0 	ldcmi	14, cr11, [sp, #640]!	; 0x280
 4ac:	01040200 	mrseq	r0, R12_usr
 4b0:	a0062e06 	andge	r2, r6, r6, lsl #28
 4b4:	4c689fbf 	stclmi	15, cr9, [r8], #-764	; 0xfffffd04
 4b8:	6767694d 	strbvs	r6, [r7, -sp, asr #18]!
 4bc:	68686767 	stmdavs	r8!, {r0, r1, r2, r5, r6, r8, r9, sl, sp, lr}^
 4c0:	02002f68 	andeq	r2, r0, #104, 30	; 0x1a0
 4c4:	a2490104 	subge	r0, r9, #4, 2
 4c8:	f468689f 	vld2.32	{d22-d23}, [r8 :64]
 4cc:	4b4b2308 	blmi	12c90f4 <__bss_end__+0x12c2fb4>
 4d0:	4b4b4b4b 	blmi	12d3204 <__bss_end__+0x12cd0c4>
 4d4:	4c4b4b4c 	mcrrmi	11, 4, r4, fp, cr12
 4d8:	4b846883 	blmi	fe11a6ec <__bss_end__+0xfe1145ac>
 4dc:	4b844d4b 	blmi	fe113a10 <__bss_end__+0xfe10d8d0>
 4e0:	4b844d4b 	blmi	fe113a14 <__bss_end__+0xfe10d8d4>
 4e4:	4a0b034b 	bmi	2c1218 <__bss_end__+0x2bb0d8>
 4e8:	84696784 	strbthi	r6, [r9], #-1924	; 0xfffff87c
 4ec:	9f686730 	svcls	0x00686730
 4f0:	68a09f9f 	stmiavs	r0!, {r0, r1, r2, r3, r4, r7, r8, r9, sl, fp, ip, pc}
 4f4:	00d0036e 	sbcseq	r0, r0, lr, ror #6
 4f8:	0402002e 	streq	r0, [r2], #-46	; 0xffffffd2
 4fc:	06820601 	streq	r0, [r2], r1, lsl #12
 500:	4b4b4cf4 	blmi	12d38d8 <__bss_end__+0x12cd798>
 504:	4b4b4b4b 	blmi	12d3238 <__bss_end__+0x12cd0f8>
 508:	4b4b4b4b 	blmi	12d323c <__bss_end__+0x12cd0fc>
 50c:	4b4b4b4b 	blmi	12d3240 <__bss_end__+0x12cd100>
 510:	4b4b4b4b 	blmi	12d3244 <__bss_end__+0x12cd104>
 514:	324b4b4b 	subcc	r4, fp, #76800	; 0x12c00
 518:	0200672f 	andeq	r6, r0, #12320768	; 0xbc0000
 51c:	2e060104 	adfcss	f0, f6, f4
 520:	0068d806 	rsbeq	sp, r8, r6, lsl #16
 524:	06010402 	streq	r0, [r1], -r2, lsl #8
 528:	089f062e 	ldmeq	pc, {r1, r2, r3, r5, r9, sl}	; <UNPREDICTABLE>
 52c:	4b4b4b22 	blmi	12d31bc <__bss_end__+0x12cd07c>
 530:	4b4b4b4b 	blmi	12d3264 <__bss_end__+0x12cd124>
 534:	674c4b4b 	strbvs	r4, [ip, -fp, asr #22]
 538:	4b304b4c 	blmi	c13270 <__bss_end__+0xc0d130>
 53c:	4b4b4b4b 	blmi	12d3270 <__bss_end__+0x12cd130>
 540:	4b4b4b4b 	blmi	12d3274 <__bss_end__+0x12cd134>
 544:	02004b4b 	andeq	r4, r0, #76800	; 0x12c00
 548:	73030104 	movwvc	r0, #12548	; 0x3104
 54c:	0402004a 	streq	r0, [r2], #-74	; 0xffffffb6
 550:	08660301 	stmdaeq	r6!, {r0, r8, r9}^
 554:	822a033c 	eorhi	r0, sl, #60, 6	; 0xf0000000
 558:	04020067 	streq	r0, [r2], #-103	; 0xffffff99
 55c:	4a530301 	bmi	14c1168 <__bss_end__+0x14bb028>
 560:	30662f03 	rsbcc	r2, r6, r3, lsl #30
 564:	9f9f6867 	svcls	0x009f6867
 568:	6e68a09f 	mcrvs	0, 3, sl, cr8, cr15, {4}
 56c:	020a0331 	andeq	r0, sl, #-1006632960	; 0xc4000000
 570:	4b83013c 	blmi	fe0c0a68 <__bss_end__+0xfe0ba928>
 574:	d7f49f4c 	ldrble	r9, [r4, ip, asr #30]!
 578:	f32208bb 	vceq.i32	d0, d18, d27
 57c:	f32208bb 	vceq.i32	d0, d18, d27
 580:	f32208bb 	vceq.i32	d0, d18, d27
 584:	f32208bb 	vceq.i32	d0, d18, d27
 588:	f32208bb 	vceq.i32	d0, d18, d27
 58c:	f32208bb 	vceq.i32	d0, d18, d27
 590:	f422089f 	vld2.32	{d0-d1}, [r2 :64]
 594:	0b034c4b 	bleq	d36c8 <__bss_end__+0xcd588>
 598:	4cbb834a 	ldcmi	3, cr8, [fp], #296	; 0x128
 59c:	0859089f 	ldmdaeq	r9, {r0, r1, r2, r3, r4, r7, fp}^
 5a0:	4b67685a 	blmi	19da710 <__bss_end__+0x19d45d0>
 5a4:	4b152802 	blmi	54a5b4 <__bss_end__+0x544474>
 5a8:	4b304b30 	blmi	c13270 <__bss_end__+0xc0d130>
 5ac:	4b304b30 	blmi	c13274 <__bss_end__+0xc0d134>
 5b0:	4b304b30 	blmi	c13278 <__bss_end__+0xc0d138>
 5b4:	4b304b30 	blmi	c1327c <__bss_end__+0xc0d13c>
 5b8:	03304b30 	teqeq	r0, #48, 22	; 0xc000
 5bc:	02002e5b 	andeq	r2, r0, #1456	; 0x5b0
 5c0:	66060104 	strvs	r0, [r6], -r4, lsl #2
 5c4:	66280306 	strtvs	r0, [r8], -r6, lsl #6
 5c8:	314ca64b 	cmpcc	ip, fp, asr #12
 5cc:	2e11034e 	cdpcs	3, 1, cr0, cr1, cr14, {2}
 5d0:	6ca0a04b 	stcvs	0, cr10, [r0], #300	; 0x12c
 5d4:	11036868 	tstne	r3, r8, ror #16
 5d8:	866883d6 			; <UNDEFINED> instruction: 0x866883d6
 5dc:	9e100368 	cdpls	3, 1, cr0, cr0, cr8, {3}
 5e0:	676b6783 	strbvs	r6, [fp, -r3, lsl #15]!
 5e4:	036b6787 	cmneq	fp, #35389440	; 0x21c0000
 5e8:	674bba0f 	strbvs	fp, [fp, -pc, lsl #20]
 5ec:	036c6767 	cmneq	ip, #27000832	; 0x19c0000
 5f0:	6785ba10 	usada8vs	r5, r0, sl, fp
 5f4:	02008488 	andeq	r8, r0, #136, 8	; 0x88000000
 5f8:	2e060104 	adfcss	f0, f6, f4
 5fc:	0200a006 	andeq	sl, r0, #6
 600:	4a060104 	bmi	180a18 <__bss_end__+0x17a8d8>
 604:	10039f06 	andne	r9, r3, r6, lsl #30
 608:	696a6c82 	stmdbvs	sl!, {r1, r7, sl, fp, sp, lr}^
 60c:	004dbd9f 	umaaleq	fp, sp, pc, sp	; <UNPREDICTABLE>
 610:	06010402 	streq	r0, [r1], -r2, lsl #8
 614:	68a1062e 	stmiavs	r1!, {r1, r2, r3, r5, r9, sl}
 618:	020083bd 	andeq	r8, r0, #-201326590	; 0xf4000002
 61c:	2e060104 	adfcss	f0, f6, f4
 620:	036da206 	cmneq	sp, #1610612736	; 0x60000000
 624:	0068660b 	rsbeq	r6, r8, fp, lsl #12
 628:	06010402 	streq	r0, [r1], -r2, lsl #8
 62c:	3e080666 	cfmadd32cc	mvax3, mvfx0, mvfx8, mvfx6
 630:	01001802 	tsteq	r0, r2, lsl #16
 634:	00006601 	andeq	r6, r0, r1, lsl #12
 638:	28000200 	stmdacs	r0, {r9}
 63c:	02000000 	andeq	r0, r0, #0
 640:	0d0efb01 	vstreq	d15, [lr, #-4]
 644:	01010100 	mrseq	r0, (UNDEF: 17)
 648:	00000001 	andeq	r0, r0, r1
 64c:	01000001 	tsteq	r0, r1
 650:	696e6900 	stmdbvs	lr!, {r8, fp, sp, lr}^
 654:	00632e74 	rsbeq	r2, r3, r4, ror lr
 658:	74000000 	strvc	r0, [r0], #-0
 65c:	73657079 	cmnvc	r5, #121	; 0x79
 660:	0000682e 	andeq	r6, r0, lr, lsr #16
 664:	00000000 	andeq	r0, r0, r0
 668:	47c40205 	strbmi	r0, [r4, r5, lsl #4]
 66c:	35030000 	strcc	r0, [r3, #-0]
 670:	302f4b01 	eorcc	r4, pc, r1, lsl #22
 674:	67693134 			; <UNDEFINED> instruction: 0x67693134
 678:	be686767 	cdplt	7, 6, cr6, cr8, cr7, {3}
 67c:	67674ba1 	strbvs	r4, [r7, -r1, lsr #23]!
 680:	67676767 	strbvs	r6, [r7, -r7, ror #14]!
 684:	6af46d67 	bvs	ffd1bc28 <__bss_end__+0xffd15ae8>
 688:	67674c67 	strbvs	r4, [r7, -r7, ror #24]!
 68c:	02008369 	andeq	r8, r0, #-1543503871	; 0xa4000001
 690:	2e060104 	adfcss	f0, f6, f4
 694:	676a9f06 	strbvs	r9, [sl, -r6, lsl #30]!
 698:	14026768 	strne	r6, [r2], #-1896	; 0xfffff898
 69c:	d2010100 	andle	r0, r1, #0, 2
 6a0:	02000000 	andeq	r0, r0, #0
 6a4:	00008d00 	andeq	r8, r0, r0, lsl #26
 6a8:	fb010200 	blx	40eb2 <__bss_end__+0x3ad72>
 6ac:	01000d0e 	tsteq	r0, lr, lsl #26
 6b0:	00010101 	andeq	r0, r1, r1, lsl #2
 6b4:	00010000 	andeq	r0, r1, r0
 6b8:	682f0100 	stmdavs	pc!, {r8}	; <UNPREDICTABLE>
 6bc:	2f656d6f 	svccs	0x00656d6f
 6c0:	63657362 	cmnvs	r5, #-2013265919	; 0x88000001
 6c4:	6d72612f 	ldfvse	f6, [r2, #-188]!	; 0xffffff44
 6c8:	6d72612f 	ldfvse	f6, [r2, #-188]!	; 0xffffff44
 6cc:	3130322d 	teqcc	r0, sp, lsr #4
 6d0:	33302e31 	teqcc	r0, #784	; 0x310
 6d4:	6e69622f 	cdpvs	2, 6, cr6, cr9, cr15, {1}
 6d8:	2f2e2e2f 	svccs	0x002e2e2f
 6dc:	2d6d7261 	sfmcs	f7, 2, [sp, #-388]!	; 0xfffffe7c
 6e0:	656e6f6e 	strbvs	r6, [lr, #-3950]!	; 0xfffff092
 6e4:	6e696c2d 	cdpvs	12, 6, cr6, cr9, cr13, {1}
 6e8:	672d7875 			; <UNDEFINED> instruction: 0x672d7875
 6ec:	6165756e 	cmnvs	r5, lr, ror #10
 6f0:	6c2f6962 	stcvs	9, cr6, [pc], #-392	; 570 <irq_handler+0x4ec>
 6f4:	2f636269 	svccs	0x00636269
 6f8:	2f727375 	svccs	0x00727375
 6fc:	6c636e69 	stclvs	14, cr6, [r3], #-420	; 0xfffffe5c
 700:	2f656475 	svccs	0x00656475
 704:	2d6d7361 	stclcs	3, cr7, [sp, #-388]!	; 0xfffffe7c
 708:	656e6567 	strbvs	r6, [lr, #-1383]!	; 0xfffffa99
 70c:	00636972 	rsbeq	r6, r3, r2, ror r9
 710:	6e696c00 	cdpvs	12, 6, cr6, cr9, cr0, {0}
 714:	632e7875 	teqvs	lr, #7667712	; 0x750000
 718:	00000000 	andeq	r0, r0, r0
 71c:	2d746e69 	ldclcs	14, cr6, [r4, #-420]!	; 0xfffffe5c
 720:	34366c6c 	ldrtcc	r6, [r6], #-3180	; 0xfffff394
 724:	0100682e 	tsteq	r0, lr, lsr #16
 728:	65730000 	ldrbvs	r0, [r3, #-0]!
 72c:	2e707574 	mrccs	5, 3, r7, cr0, cr4, {3}
 730:	00000068 	andeq	r0, r0, r8, rrx
 734:	05000000 	streq	r0, [r0, #-0]
 738:	00499002 	subeq	r9, r9, r2
 73c:	67841a00 	strvs	r1, [r4, r0, lsl #20]
 740:	83838383 	orrhi	r8, r3, #201326594	; 0xc000002
 744:	83210884 	teqhi	r1, #132, 16	; 0x840000
 748:	04020083 	streq	r0, [r2], #-131	; 0xffffff7d
 74c:	02006802 	andeq	r6, r0, #131072	; 0x20000
 750:	56080204 	strpl	r0, [r8], -r4, lsl #4
 754:	01040200 	mrseq	r0, R12_usr
 758:	03066606 	movweq	r6, #26118	; 0x6606
 75c:	2108660b 	tstcs	r8, fp, lsl #12
 760:	84838383 	strhi	r8, [r3], #899	; 0x383
 764:	84832108 	strhi	r2, [r3], #264	; 0x108
 768:	820b0383 	andhi	r0, fp, #201326594	; 0xc000002
 76c:	84832108 	strhi	r2, [r3], #264	; 0x108
 770:	01001402 	tsteq	r0, r2, lsl #8
 774:	00012101 	andeq	r2, r1, r1, lsl #2
 778:	1c000200 	sfmne	f0, 4, [r0], {-0}
 77c:	02000000 	andeq	r0, r0, #0
 780:	0d0efb01 	vstreq	d15, [lr, #-4]
 784:	01010100 	mrseq	r0, (UNDEF: 17)
 788:	00000001 	andeq	r0, r0, r1
 78c:	01000001 	tsteq	r0, r1
 790:	72747300 	rsbsvc	r7, r4, #0, 6
 794:	0000632e 	andeq	r6, r0, lr, lsr #6
 798:	00000000 	andeq	r0, r0, r0
 79c:	4bc40205 	blmi	ff100fb8 <__bss_end__+0xff0fae78>
 7a0:	9f190000 	svcls	0x00190000
 7a4:	0200304c 	andeq	r3, r0, #76	; 0x4c
 7a8:	3a080104 	bcc	200bc0 <__bss_end__+0x1faa80>
 7ac:	bb852f87 	bllt	fe14c5d0 <__bss_end__+0xfe146490>
 7b0:	08304c4b 	ldmdaeq	r0!, {r0, r1, r3, r6, sl, fp, lr}
 7b4:	0402003d 	streq	r0, [r2], #-61	; 0xffffffc3
 7b8:	2f6c6301 	svccs	0x006c6301
 7bc:	bb309f85 	bllt	c285d8 <__bss_end__+0xc22498>
 7c0:	020067d9 	andeq	r6, r0, #56885248	; 0x3640000
 7c4:	79030104 	stmdbvc	r3, {r2, r8}
 7c8:	04020066 	streq	r0, [r2], #-102	; 0xffffff9a
 7cc:	06820602 	streq	r0, [r2], r2, lsl #12
 7d0:	2f820b03 	svccs	0x00820b03
 7d4:	304c8385 	subcc	r8, ip, r5, lsl #7
 7d8:	01040200 	mrseq	r0, R12_usr
 7dc:	85678764 	strbhi	r8, [r7, #-1892]!	; 0xfffff89c
 7e0:	4b674c9f 	blmi	19d3a64 <__bss_end__+0x19cd924>
 7e4:	02040200 	andeq	r0, r4, #0, 4
 7e8:	04020068 	streq	r0, [r2], #-104	; 0xffffff98
 7ec:	02008002 	andeq	r8, r0, #2
 7f0:	66060104 	strvs	r0, [r6], -r4, lsl #2
 7f4:	852f8906 	strhi	r8, [pc, #-2310]!	; fffffef6 <__bss_end__+0xffff9db6>
 7f8:	68684c83 	stmdavs	r8!, {r0, r1, r7, sl, fp, lr}^
 7fc:	01040200 	mrseq	r0, R12_usr
 800:	d806d606 	stmdale	r6, {r1, r2, r9, sl, ip, lr, pc}
 804:	0278034e 	rsbseq	r0, r8, #939524097	; 0x38000001
 808:	02000122 	andeq	r0, r0, #-2147483640	; 0x80000008
 80c:	66060104 	strvs	r0, [r6], -r4, lsl #2
 810:	660c0306 	strvs	r0, [ip], -r6, lsl #6
 814:	4c83692f 	stcmi	9, cr6, [r3], {47}	; 0x2f
 818:	02006868 	andeq	r6, r0, #104, 16	; 0x680000
 81c:	d6060104 	strle	r0, [r6], -r4, lsl #2
 820:	2402d806 	strcs	sp, [r2], #-2054	; 0xfffff7fa
 824:	04020014 	streq	r0, [r2], #-20	; 0xffffffec
 828:	06d60601 	ldrbeq	r0, [r6], r1, lsl #12
 82c:	142402d8 	strtne	r0, [r4], #-728	; 0xfffffd28
 830:	01040200 	mrseq	r0, R12_usr
 834:	d806d606 	stmdale	r6, {r1, r2, r9, sl, ip, lr, pc}
 838:	03162402 	tsteq	r6, #33554432	; 0x2000000
 83c:	02004a70 	andeq	r4, r0, #112, 20	; 0x70000
 840:	66060104 	strvs	r0, [r6], -r4, lsl #2
 844:	66140306 	ldrvs	r0, [r4], -r6, lsl #6
 848:	0083692f 	addeq	r6, r3, pc, lsr #18
 84c:	06010402 	streq	r0, [r1], -r2, lsl #8
 850:	24020682 	strcs	r0, [r2], #-1666	; 0xfffff97e
 854:	696abe14 	stmdbvs	sl!, {r2, r4, r9, sl, fp, ip, sp, pc}^
 858:	00a0d885 	adceq	sp, r0, r5, lsl #17
 85c:	06010402 	streq	r0, [r1], -r2, lsl #8
 860:	06122802 	ldreq	r2, [r2], -r2, lsl #16
 864:	009a6767 	addseq	r6, sl, r7, ror #14
 868:	06010402 	streq	r0, [r1], -r2, lsl #8
 86c:	2f6d0666 	svccs	0x006d0666
 870:	004ca1bd 	strheq	sl, [ip], #-29	; 0xffffffe3
 874:	06020402 	streq	r0, [r2], -r2, lsl #8
 878:	04020066 	streq	r0, [r2], #-102	; 0xffffff9a
 87c:	08066601 	stmdaeq	r6, {r0, r9, sl, sp, lr}
 880:	04020041 	streq	r0, [r2], #-65	; 0xffffffbf
 884:	02006802 	andeq	r6, r0, #131072	; 0x20000
 888:	00800204 	addeq	r0, r0, r4, lsl #4
 88c:	06010402 	streq	r0, [r1], -r2, lsl #8
 890:	a06c06ba 	strhtge	r0, [ip], #-106	; 0xffffff96
 894:	0008022f 	andeq	r0, r8, pc, lsr #4
 898:	00760101 	rsbseq	r0, r6, r1, lsl #2
 89c:	00020000 	andeq	r0, r2, r0
 8a0:	0000001c 	andeq	r0, r0, ip, lsl r0
 8a4:	0efb0102 	cdpeq	1, 15, cr0, cr11, cr2, {0}
 8a8:	0101000d 	tsteq	r1, sp
 8ac:	00000101 	andeq	r0, r0, r1, lsl #2
 8b0:	00000100 	andeq	r0, r0, r0, lsl #2
 8b4:	6d630001 	stclvs	0, cr0, [r3, #-4]!
 8b8:	00632e64 	rsbeq	r2, r3, r4, ror #28
 8bc:	00000000 	andeq	r0, r0, r0
 8c0:	20020500 	andcs	r0, r2, r0, lsl #10
 8c4:	19000053 	stmdbne	r0, {r0, r1, r4, r6}
 8c8:	87834c84 	strhi	r4, [r3, r4, lsl #25]
 8cc:	6616039f 			; <UNDEFINED> instruction: 0x6616039f
 8d0:	002e6e03 	eoreq	r6, lr, r3, lsl #28
 8d4:	83010402 	movwhi	r0, #5122	; 0x1402
 8d8:	821203d7 	andshi	r0, r2, #1543503875	; 0x5c000003
 8dc:	826f032f 	rsbhi	r0, pc, #-1140850688	; 0xbc000000
 8e0:	67842fbc 			; <UNDEFINED> instruction: 0x67842fbc
 8e4:	01040200 	mrseq	r0, R12_usr
 8e8:	845f082a 	ldrbhi	r0, [pc], #-2090	; 8f0 <irq_handler+0x86c>
 8ec:	85346883 	ldrhi	r6, [r4, #-2179]!	; 0xfffff77d
 8f0:	02004b4b 	andeq	r4, r0, #76800	; 0x12c00
 8f4:	00680204 	rsbeq	r0, r8, r4, lsl #4
 8f8:	4b020402 	blmi	81908 <__bss_end__+0x7b7c8>
 8fc:	02040200 	andeq	r0, r4, #0, 4
 900:	04020047 	streq	r0, [r2], #-71	; 0xffffffb9
 904:	06660601 	strbteq	r0, [r6], -r1, lsl #12
 908:	8385a16b 	orrhi	sl, r5, #-1073741798	; 0xc000001a
 90c:	029f834b 	addseq	r8, pc, #738197505	; 0x2c000001
 910:	01010006 	tsteq	r1, r6
 914:	0000006e 	andeq	r0, r0, lr, rrx
 918:	00470002 	subeq	r0, r7, r2
 91c:	01020000 	mrseq	r0, (UNDEF: 2)
 920:	000d0efb 	strdeq	r0, [sp], -fp
 924:	01010101 	tsteq	r1, r1, lsl #2
 928:	01000000 	mrseq	r0, (UNDEF: 0)
 92c:	00010000 	andeq	r0, r1, r0
 930:	616c6564 	cmnvs	ip, r4, ror #10
 934:	00632e79 	rsbeq	r2, r3, r9, ror lr
 938:	72000000 	andvc	r0, r0, #0
 93c:	64736765 	ldrbtvs	r6, [r3], #-1893	; 0xfffff89b
 940:	74636769 	strbtvc	r6, [r3], #-1897	; 0xfffff897
 944:	00682e6c 	rsbeq	r2, r8, ip, ror #28
 948:	73000000 	movwvc	r0, #0
 94c:	745f636f 	ldrbvc	r6, [pc], #-879	; 954 <irq_handler+0x8d0>
 950:	73657079 	cmnvc	r5, #121	; 0x79
 954:	0000682e 	andeq	r6, r0, lr, lsr #16
 958:	6c780000 	ldclvs	0, cr0, [r8], #-0
 95c:	682e7264 	stmdavs	lr!, {r2, r5, r6, r9, ip, sp, lr}
 960:	00000000 	andeq	r0, r0, r0
 964:	02050000 	andeq	r0, r5, #0
 968:	00005524 	andeq	r5, r0, r4, lsr #10
 96c:	0067841a 	rsbeq	r8, r7, sl, lsl r4
 970:	06010402 	streq	r0, [r1], -r2, lsl #8
 974:	85da062e 	ldrbhi	r0, [sl, #1582]	; 0x62e
 978:	02003083 	andeq	r3, r0, #131	; 0x83
 97c:	08480104 	stmdaeq	r8, {r2, r8}^
 980:	00040240 	andeq	r0, r4, r0, asr #4
 984:	00540101 	subseq	r0, r4, r1, lsl #2
 988:	00020000 	andeq	r0, r2, r0
 98c:	0000001e 	andeq	r0, r0, lr, lsl r0
 990:	0efb0102 	cdpeq	1, 15, cr0, cr11, cr2, {0}
 994:	0101000d 	tsteq	r1, sp
 998:	00000101 	andeq	r0, r0, r1, lsl #2
 99c:	00000100 	andeq	r0, r0, r0, lsl #2
 9a0:	6e650001 	cdpvs	0, 6, cr0, cr5, cr1, {0}
 9a4:	2e797274 	mrccs	2, 3, r7, cr9, cr4, {3}
 9a8:	00000053 	andeq	r0, r0, r3, asr r0
 9ac:	05000000 	streq	r0, [r0, #-0]
 9b0:	00000002 	andeq	r0, r0, r2
 9b4:	2f2f1800 	svccs	0x002f1800
 9b8:	2f2f2f2f 	svccs	0x002f2f2f
 9bc:	2f30312f 	svccs	0x0030312f
 9c0:	2f2f2f2f 	svccs	0x002f2f2f
 9c4:	302f2f2f 	eorcc	r2, pc, pc, lsr #30
 9c8:	302f2f2f 	eorcc	r2, pc, pc, lsr #30
 9cc:	2f2f2f31 	svccs	0x002f2f31
 9d0:	2f2f312f 	svccs	0x002f312f
 9d4:	2f312f2f 	svccs	0x00312f2f
 9d8:	00060230 	andeq	r0, r6, r0, lsr r2
 9dc:	00760101 	rsbseq	r0, r6, r1, lsl #2
 9e0:	00020000 	andeq	r0, r2, r0
 9e4:	0000003c 	andeq	r0, r0, ip, lsr r0
 9e8:	0efb0102 	cdpeq	1, 15, cr0, cr11, cr2, {0}
 9ec:	0101000d 	tsteq	r1, sp
 9f0:	00000101 	andeq	r0, r0, r1, lsl #2
 9f4:	00000100 	andeq	r0, r0, r0, lsl #2
 9f8:	70670001 	rsbvc	r0, r7, r1
 9fc:	632e696d 	teqvs	lr, #1785856	; 0x1b4000
 a00:	00000000 	andeq	r0, r0, r0
 a04:	65707974 	ldrbvs	r7, [r0, #-2420]!	; 0xfffff68c
 a08:	00682e73 	rsbeq	r2, r8, r3, ror lr
 a0c:	72000000 	andvc	r0, r0, #0
 a10:	2e736765 	cdpcs	7, 7, cr6, cr3, cr5, {3}
 a14:	00000068 	andeq	r0, r0, r8, rrx
 a18:	6d706700 	ldclvs	7, cr6, [r0, #-0]
 a1c:	00682e69 	rsbeq	r2, r8, r9, ror #28
 a20:	00000000 	andeq	r0, r0, r0
 a24:	bc020500 	cfstr32lt	mvfx0, [r2], {-0}
 a28:	03000055 	movweq	r0, #85	; 0x55
 a2c:	4ba1010a 	blmi	fe840e5c <__bss_end__+0xfe83ad1c>
 a30:	a04c4b4b 	subge	r4, ip, fp, asr #22
 a34:	4b6aa12f 	blmi	1aa8ef8 <__bss_end__+0x1aa2db8>
 a38:	a04c4b4b 	subge	r4, ip, fp, asr #22
 a3c:	4ba1a12f 	blmi	fe868f00 <__bss_end__+0xfe862dc0>
 a40:	9f4c4b4b 	svcls	0x004c4b4b
 a44:	3d08bba0 	vstrcc	d11, [r8, #-640]	; 0xfffffd80
 a48:	02003e08 	andeq	r3, r0, #8, 28	; 0x80
 a4c:	2e060104 	adfcss	f0, f6, f4
 a50:	029ff306 	addseq	pc, pc, #402653184	; 0x18000000
 a54:	0101000c 	tsteq	r1, ip
 a58:	000000c5 	andeq	r0, r0, r5, asr #1
 a5c:	00470002 	subeq	r0, r7, r2
 a60:	01020000 	mrseq	r0, (UNDEF: 2)
 a64:	000d0efb 	strdeq	r0, [sp], -fp
 a68:	01010101 	tsteq	r1, r1, lsl #2
 a6c:	01000000 	mrseq	r0, (UNDEF: 0)
 a70:	00010000 	andeq	r0, r1, r0
 a74:	74726175 	ldrbtvc	r6, [r2], #-373	; 0xfffffe8b
 a78:	0000632e 	andeq	r6, r0, lr, lsr #6
 a7c:	6f730000 	svcvs	0x00730000
 a80:	79745f63 	ldmdbvc	r4!, {r0, r1, r5, r6, r8, r9, sl, fp, ip, lr}^
 a84:	2e736570 	mrccs	5, 3, r6, cr3, cr0, {3}
 a88:	00000068 	andeq	r0, r0, r8, rrx
 a8c:	67657200 	strbvs	r7, [r5, -r0, lsl #4]!
 a90:	72617573 	rsbvc	r7, r1, #482344960	; 0x1cc00000
 a94:	67626474 			; <UNDEFINED> instruction: 0x67626474
 a98:	0000682e 	andeq	r6, r0, lr, lsr #16
 a9c:	6c780000 	ldclvs	0, cr0, [r8], #-0
 aa0:	682e7264 	stmdavs	lr!, {r2, r5, r6, r9, ip, sp, lr}
 aa4:	00000000 	andeq	r0, r0, r0
 aa8:	02050000 	andeq	r0, r5, #0
 aac:	00005788 	andeq	r5, r0, r8, lsl #15
 ab0:	67010903 	strvs	r0, [r1, -r3, lsl #18]
 ab4:	0402004c 	streq	r0, [r2], #-76	; 0xffffffb4
 ab8:	062e0601 	strteq	r0, [lr], -r1, lsl #12
 abc:	bd2f689f 	stclt	8, cr6, [pc, #-636]!	; 848 <irq_handler+0x7c4>
 ac0:	0402009f 	streq	r0, [r2], #-159	; 0xffffff61
 ac4:	062e0601 	strteq	r0, [lr], -r1, lsl #12
 ac8:	85a167a0 	strhi	r6, [r1, #1952]!	; 0x7a0
 acc:	0083304c 	addeq	r3, r3, ip, asr #32
 ad0:	63010402 	movwvs	r0, #5122	; 0x1402
 ad4:	8569678a 	strbhi	r6, [r9, #-1930]!	; 0xfffff876
 ad8:	84849f4e 	strhi	r9, [r4], #3918	; 0xf4e
 adc:	684b4b4b 	stmdavs	fp, {r0, r1, r3, r6, r8, r9, fp, lr}^
 ae0:	032e0903 	teqeq	lr, #49152	; 0xc000
 ae4:	84842e79 	strhi	r2, [r4], #3705	; 0xe79
 ae8:	612f6886 	smlawbvs	pc, r6, r8, r6	; <UNPREDICTABLE>
 aec:	4b833567 	blmi	fe0ce090 <__bss_end__+0xfe0c7f50>
 af0:	68304b4c 	ldmdavs	r0!, {r2, r3, r6, r8, r9, fp, lr}
 af4:	02006767 	andeq	r6, r0, #27000832	; 0x19c0000
 af8:	00680204 	rsbeq	r0, r8, r4, lsl #4
 afc:	f3020402 	vshl.u8	d0, d2, d2
 b00:	02040200 	andeq	r0, r4, #0, 4
 b04:	040200b7 	streq	r0, [r2], #-183	; 0xffffff49
 b08:	06660601 	strbteq	r0, [r6], -r1, lsl #12
 b0c:	034b676b 	movteq	r6, #46955	; 0xb76b
 b10:	02008276 	andeq	r8, r0, #1610612743	; 0x60000007
 b14:	032b0104 	teqeq	fp, #4, 2
 b18:	2f4cba1b 	svccs	0x004cba1b
 b1c:	01000602 	tsteq	r0, r2, lsl #12
 b20:	Address 0x00000b20 is out of bounds.


Disassembly of section .debug_frame:

00000000 <.debug_frame>:
   0:	0000000c 	andeq	r0, r0, ip
   4:	ffffffff 			; <UNDEFINED> instruction: 0xffffffff
   8:	7c020001 	stcvc	0, cr0, [r2], {1}
   c:	000d0c0e 	andeq	r0, sp, lr, lsl #24
  10:	00000018 	andeq	r0, r0, r8, lsl r0
  14:	00000000 	andeq	r0, r0, r0
  18:	00001000 	andeq	r1, r0, r0
  1c:	000000e8 	andeq	r0, r0, r8, ror #1
  20:	42080e42 	andmi	r0, r8, #1056	; 0x420
  24:	028b018e 	addeq	r0, fp, #-2147483613	; 0x80000023
  28:	00040b0c 	andeq	r0, r4, ip, lsl #22
  2c:	00000018 	andeq	r0, r0, r8, lsl r0
  30:	00000000 	andeq	r0, r0, r0
  34:	000010e8 	andeq	r1, r0, r8, ror #1
  38:	00000170 	andeq	r0, r0, r0, ror r1
  3c:	42080e42 	andmi	r0, r8, #1056	; 0x420
  40:	028b018e 	addeq	r0, fp, #-2147483613	; 0x80000023
  44:	00040b0c 	andeq	r0, r4, ip, lsl #22
  48:	0000000c 	andeq	r0, r0, ip
  4c:	ffffffff 			; <UNDEFINED> instruction: 0xffffffff
  50:	7c020001 	stcvc	0, cr0, [r2], {1}
  54:	000d0c0e 	andeq	r0, sp, lr, lsl #24
  58:	00000014 	andeq	r0, r0, r4, lsl r0
  5c:	00000048 	andeq	r0, r0, r8, asr #32
  60:	00001258 	andeq	r1, r0, r8, asr r2
  64:	00000030 	andeq	r0, r0, r0, lsr r0
  68:	42040e42 	andmi	r0, r4, #1056	; 0x420
  6c:	0b0d018b 	bleq	3406a0 <__bss_end__+0x33a560>
  70:	00000014 	andeq	r0, r0, r4, lsl r0
  74:	00000048 	andeq	r0, r0, r8, asr #32
  78:	00001288 	andeq	r1, r0, r8, lsl #5
  7c:	00000014 	andeq	r0, r0, r4, lsl r0
  80:	42040e42 	andmi	r0, r4, #1056	; 0x420
  84:	0b0d018b 	bleq	3406b8 <__bss_end__+0x33a578>
  88:	00000014 	andeq	r0, r0, r4, lsl r0
  8c:	00000048 	andeq	r0, r0, r8, asr #32
  90:	0000129c 	muleq	r0, ip, r2
  94:	0000003c 	andeq	r0, r0, ip, lsr r0
  98:	42040e42 	andmi	r0, r4, #1056	; 0x420
  9c:	0b0d018b 	bleq	3406d0 <__bss_end__+0x33a590>
  a0:	00000014 	andeq	r0, r0, r4, lsl r0
  a4:	00000048 	andeq	r0, r0, r8, asr #32
  a8:	000012d8 	ldrdeq	r1, [r0], -r8
  ac:	00000030 	andeq	r0, r0, r0, lsr r0
  b0:	42040e42 	andmi	r0, r4, #1056	; 0x420
  b4:	0b0d018b 	bleq	3406e8 <__bss_end__+0x33a5a8>
  b8:	00000014 	andeq	r0, r0, r4, lsl r0
  bc:	00000048 	andeq	r0, r0, r8, asr #32
  c0:	00001308 	andeq	r1, r0, r8, lsl #6
  c4:	00000094 	muleq	r0, r4, r0
  c8:	42040e42 	andmi	r0, r4, #1056	; 0x420
  cc:	0b0d018b 	bleq	340700 <__bss_end__+0x33a5c0>
  d0:	00000014 	andeq	r0, r0, r4, lsl r0
  d4:	00000048 	andeq	r0, r0, r8, asr #32
  d8:	0000139c 	muleq	r0, ip, r3
  dc:	00000070 	andeq	r0, r0, r0, ror r0
  e0:	42040e42 	andmi	r0, r4, #1056	; 0x420
  e4:	0b0d018b 	bleq	340718 <__bss_end__+0x33a5d8>
  e8:	00000014 	andeq	r0, r0, r4, lsl r0
  ec:	00000048 	andeq	r0, r0, r8, asr #32
  f0:	0000140c 	andeq	r1, r0, ip, lsl #8
  f4:	000001e4 	andeq	r0, r0, r4, ror #3
  f8:	42040e42 	andmi	r0, r4, #1056	; 0x420
  fc:	0b0d018b 	bleq	340730 <__bss_end__+0x33a5f0>
 100:	00000014 	andeq	r0, r0, r4, lsl r0
 104:	00000048 	andeq	r0, r0, r8, asr #32
 108:	000015f0 	strdeq	r1, [r0], -r0
 10c:	00000144 	andeq	r0, r0, r4, asr #2
 110:	42040e42 	andmi	r0, r4, #1056	; 0x420
 114:	0b0d018b 	bleq	340748 <__bss_end__+0x33a608>
 118:	00000018 	andeq	r0, r0, r8, lsl r0
 11c:	00000048 	andeq	r0, r0, r8, asr #32
 120:	00001734 	andeq	r1, r0, r4, lsr r7
 124:	0000002c 	andeq	r0, r0, ip, lsr #32
 128:	42080e42 	andmi	r0, r8, #1056	; 0x420
 12c:	028b018e 	addeq	r0, fp, #-2147483613	; 0x80000023
 130:	00040b0c 	andeq	r0, r4, ip, lsl #22
 134:	00000014 	andeq	r0, r0, r4, lsl r0
 138:	00000048 	andeq	r0, r0, r8, asr #32
 13c:	00001760 	andeq	r1, r0, r0, ror #14
 140:	00000058 	andeq	r0, r0, r8, asr r0
 144:	42040e42 	andmi	r0, r4, #1056	; 0x420
 148:	0b0d018b 	bleq	34077c <__bss_end__+0x33a63c>
 14c:	00000014 	andeq	r0, r0, r4, lsl r0
 150:	00000048 	andeq	r0, r0, r8, asr #32
 154:	000017b8 			; <UNDEFINED> instruction: 0x000017b8
 158:	00000080 	andeq	r0, r0, r0, lsl #1
 15c:	42040e42 	andmi	r0, r4, #1056	; 0x420
 160:	0b0d018b 	bleq	340794 <__bss_end__+0x33a654>
 164:	00000018 	andeq	r0, r0, r8, lsl r0
 168:	00000048 	andeq	r0, r0, r8, asr #32
 16c:	00001838 	andeq	r1, r0, r8, lsr r8
 170:	0000002c 	andeq	r0, r0, ip, lsr #32
 174:	42080e42 	andmi	r0, r8, #1056	; 0x420
 178:	028b018e 	addeq	r0, fp, #-2147483613	; 0x80000023
 17c:	00040b0c 	andeq	r0, r4, ip, lsl #22
 180:	00000014 	andeq	r0, r0, r4, lsl r0
 184:	00000048 	andeq	r0, r0, r8, asr #32
 188:	00001864 	andeq	r1, r0, r4, ror #16
 18c:	000000a0 	andeq	r0, r0, r0, lsr #1
 190:	42040e42 	andmi	r0, r4, #1056	; 0x420
 194:	0b0d018b 	bleq	3407c8 <__bss_end__+0x33a688>
 198:	00000018 	andeq	r0, r0, r8, lsl r0
 19c:	00000048 	andeq	r0, r0, r8, asr #32
 1a0:	00001904 	andeq	r1, r0, r4, lsl #18
 1a4:	0000003c 	andeq	r0, r0, ip, lsr r0
 1a8:	42080e42 	andmi	r0, r8, #1056	; 0x420
 1ac:	028b018e 	addeq	r0, fp, #-2147483613	; 0x80000023
 1b0:	00040b0c 	andeq	r0, r4, ip, lsl #22
 1b4:	00000018 	andeq	r0, r0, r8, lsl r0
 1b8:	00000048 	andeq	r0, r0, r8, asr #32
 1bc:	00001940 	andeq	r1, r0, r0, asr #18
 1c0:	00000044 	andeq	r0, r0, r4, asr #32
 1c4:	42080e42 	andmi	r0, r8, #1056	; 0x420
 1c8:	028b018e 	addeq	r0, fp, #-2147483613	; 0x80000023
 1cc:	00040b0c 	andeq	r0, r4, ip, lsl #22
 1d0:	00000018 	andeq	r0, r0, r8, lsl r0
 1d4:	00000048 	andeq	r0, r0, r8, asr #32
 1d8:	00001984 	andeq	r1, r0, r4, lsl #19
 1dc:	000000b0 	strheq	r0, [r0], -r0	; <UNPREDICTABLE>
 1e0:	42080e42 	andmi	r0, r8, #1056	; 0x420
 1e4:	028b018e 	addeq	r0, fp, #-2147483613	; 0x80000023
 1e8:	00040b0c 	andeq	r0, r4, ip, lsl #22
 1ec:	00000018 	andeq	r0, r0, r8, lsl r0
 1f0:	00000048 	andeq	r0, r0, r8, asr #32
 1f4:	00001a34 	andeq	r1, r0, r4, lsr sl
 1f8:	000000b0 	strheq	r0, [r0], -r0	; <UNPREDICTABLE>
 1fc:	42080e42 	andmi	r0, r8, #1056	; 0x420
 200:	028b018e 	addeq	r0, fp, #-2147483613	; 0x80000023
 204:	00040b0c 	andeq	r0, r4, ip, lsl #22
 208:	00000018 	andeq	r0, r0, r8, lsl r0
 20c:	00000048 	andeq	r0, r0, r8, asr #32
 210:	00001ae4 	andeq	r1, r0, r4, ror #21
 214:	00000058 	andeq	r0, r0, r8, asr r0
 218:	42080e42 	andmi	r0, r8, #1056	; 0x420
 21c:	028b018e 	addeq	r0, fp, #-2147483613	; 0x80000023
 220:	00040b0c 	andeq	r0, r4, ip, lsl #22
 224:	00000018 	andeq	r0, r0, r8, lsl r0
 228:	00000048 	andeq	r0, r0, r8, asr #32
 22c:	00001b3c 	andeq	r1, r0, ip, lsr fp
 230:	000005fc 	strdeq	r0, [r0], -ip
 234:	42080e42 	andmi	r0, r8, #1056	; 0x420
 238:	028b018e 	addeq	r0, fp, #-2147483613	; 0x80000023
 23c:	00040b0c 	andeq	r0, r4, ip, lsl #22
 240:	00000014 	andeq	r0, r0, r4, lsl r0
 244:	00000048 	andeq	r0, r0, r8, asr #32
 248:	00002138 	andeq	r2, r0, r8, lsr r1
 24c:	00000024 	andeq	r0, r0, r4, lsr #32
 250:	42040e42 	andmi	r0, r4, #1056	; 0x420
 254:	0b0d018b 	bleq	340888 <__bss_end__+0x33a748>
 258:	00000014 	andeq	r0, r0, r4, lsl r0
 25c:	00000048 	andeq	r0, r0, r8, asr #32
 260:	0000215c 	andeq	r2, r0, ip, asr r1
 264:	0000066c 	andeq	r0, r0, ip, ror #12
 268:	42040e42 	andmi	r0, r4, #1056	; 0x420
 26c:	0b0d018b 	bleq	3408a0 <__bss_end__+0x33a760>
 270:	00000014 	andeq	r0, r0, r4, lsl r0
 274:	00000048 	andeq	r0, r0, r8, asr #32
 278:	000027c8 	andeq	r2, r0, r8, asr #15
 27c:	00000038 	andeq	r0, r0, r8, lsr r0
 280:	42040e42 	andmi	r0, r4, #1056	; 0x420
 284:	0b0d018b 	bleq	3408b8 <__bss_end__+0x33a778>
 288:	00000018 	andeq	r0, r0, r8, lsl r0
 28c:	00000048 	andeq	r0, r0, r8, asr #32
 290:	00002800 	andeq	r2, r0, r0, lsl #16
 294:	0000002c 	andeq	r0, r0, ip, lsr #32
 298:	42080e42 	andmi	r0, r8, #1056	; 0x420
 29c:	028b018e 	addeq	r0, fp, #-2147483613	; 0x80000023
 2a0:	00040b0c 	andeq	r0, r4, ip, lsl #22
 2a4:	00000018 	andeq	r0, r0, r8, lsl r0
 2a8:	00000048 	andeq	r0, r0, r8, asr #32
 2ac:	0000282c 	andeq	r2, r0, ip, lsr #16
 2b0:	00000010 	andeq	r0, r0, r0, lsl r0
 2b4:	42080e42 	andmi	r0, r8, #1056	; 0x420
 2b8:	028b018e 	addeq	r0, fp, #-2147483613	; 0x80000023
 2bc:	00040b0c 	andeq	r0, r4, ip, lsl #22
 2c0:	00000018 	andeq	r0, r0, r8, lsl r0
 2c4:	00000048 	andeq	r0, r0, r8, asr #32
 2c8:	0000283c 	andeq	r2, r0, ip, lsr r8
 2cc:	00000064 	andeq	r0, r0, r4, rrx
 2d0:	42080e42 	andmi	r0, r8, #1056	; 0x420
 2d4:	028b018e 	addeq	r0, fp, #-2147483613	; 0x80000023
 2d8:	00040b0c 	andeq	r0, r4, ip, lsl #22
 2dc:	00000014 	andeq	r0, r0, r4, lsl r0
 2e0:	00000048 	andeq	r0, r0, r8, asr #32
 2e4:	000028a0 	andeq	r2, r0, r0, lsr #17
 2e8:	0000004c 	andeq	r0, r0, ip, asr #32
 2ec:	42040e42 	andmi	r0, r4, #1056	; 0x420
 2f0:	0b0d018b 	bleq	340924 <__bss_end__+0x33a7e4>
 2f4:	00000014 	andeq	r0, r0, r4, lsl r0
 2f8:	00000048 	andeq	r0, r0, r8, asr #32
 2fc:	000028ec 	andeq	r2, r0, ip, ror #17
 300:	0000004c 	andeq	r0, r0, ip, asr #32
 304:	42040e42 	andmi	r0, r4, #1056	; 0x420
 308:	0b0d018b 	bleq	34093c <__bss_end__+0x33a7fc>
 30c:	00000014 	andeq	r0, r0, r4, lsl r0
 310:	00000048 	andeq	r0, r0, r8, asr #32
 314:	00002938 	andeq	r2, r0, r8, lsr r9
 318:	00000074 	andeq	r0, r0, r4, ror r0
 31c:	42040e42 	andmi	r0, r4, #1056	; 0x420
 320:	0b0d018b 	bleq	340954 <__bss_end__+0x33a814>
 324:	00000014 	andeq	r0, r0, r4, lsl r0
 328:	00000048 	andeq	r0, r0, r8, asr #32
 32c:	000029ac 	andeq	r2, r0, ip, lsr #19
 330:	00000094 	muleq	r0, r4, r0
 334:	42040e42 	andmi	r0, r4, #1056	; 0x420
 338:	0b0d018b 	bleq	34096c <__bss_end__+0x33a82c>
 33c:	00000014 	andeq	r0, r0, r4, lsl r0
 340:	00000048 	andeq	r0, r0, r8, asr #32
 344:	00002a40 	andeq	r2, r0, r0, asr #20
 348:	00000300 	andeq	r0, r0, r0, lsl #6
 34c:	42040e42 	andmi	r0, r4, #1056	; 0x420
 350:	0b0d018b 	bleq	340984 <__bss_end__+0x33a844>
 354:	00000014 	andeq	r0, r0, r4, lsl r0
 358:	00000048 	andeq	r0, r0, r8, asr #32
 35c:	00002d40 	andeq	r2, r0, r0, asr #26
 360:	00000154 	andeq	r0, r0, r4, asr r1
 364:	42040e42 	andmi	r0, r4, #1056	; 0x420
 368:	0b0d018b 	bleq	34099c <__bss_end__+0x33a85c>
 36c:	00000014 	andeq	r0, r0, r4, lsl r0
 370:	00000048 	andeq	r0, r0, r8, asr #32
 374:	00002e94 	muleq	r0, r4, lr
 378:	0000030c 	andeq	r0, r0, ip, lsl #6
 37c:	42040e42 	andmi	r0, r4, #1056	; 0x420
 380:	0b0d018b 	bleq	3409b4 <__bss_end__+0x33a874>
 384:	00000014 	andeq	r0, r0, r4, lsl r0
 388:	00000048 	andeq	r0, r0, r8, asr #32
 38c:	000031a0 	andeq	r3, r0, r0, lsr #3
 390:	00000308 	andeq	r0, r0, r8, lsl #6
 394:	42040e42 	andmi	r0, r4, #1056	; 0x420
 398:	0b0d018b 	bleq	3409cc <__bss_end__+0x33a88c>
 39c:	00000014 	andeq	r0, r0, r4, lsl r0
 3a0:	00000048 	andeq	r0, r0, r8, asr #32
 3a4:	000034a8 	andeq	r3, r0, r8, lsr #9
 3a8:	00000024 	andeq	r0, r0, r4, lsr #32
 3ac:	42040e42 	andmi	r0, r4, #1056	; 0x420
 3b0:	0b0d018b 	bleq	3409e4 <__bss_end__+0x33a8a4>
 3b4:	00000018 	andeq	r0, r0, r8, lsl r0
 3b8:	00000048 	andeq	r0, r0, r8, asr #32
 3bc:	000034cc 	andeq	r3, r0, ip, asr #9
 3c0:	00000064 	andeq	r0, r0, r4, rrx
 3c4:	42080e42 	andmi	r0, r8, #1056	; 0x420
 3c8:	028b018e 	addeq	r0, fp, #-2147483613	; 0x80000023
 3cc:	00040b0c 	andeq	r0, r4, ip, lsl #22
 3d0:	00000014 	andeq	r0, r0, r4, lsl r0
 3d4:	00000048 	andeq	r0, r0, r8, asr #32
 3d8:	00003530 	andeq	r3, r0, r0, lsr r5
 3dc:	000000bc 	strheq	r0, [r0], -ip
 3e0:	42040e42 	andmi	r0, r4, #1056	; 0x420
 3e4:	0b0d018b 	bleq	340a18 <__bss_end__+0x33a8d8>
 3e8:	00000014 	andeq	r0, r0, r4, lsl r0
 3ec:	00000048 	andeq	r0, r0, r8, asr #32
 3f0:	000035ec 	andeq	r3, r0, ip, ror #11
 3f4:	00000058 	andeq	r0, r0, r8, asr r0
 3f8:	42040e42 	andmi	r0, r4, #1056	; 0x420
 3fc:	0b0d018b 	bleq	340a30 <__bss_end__+0x33a8f0>
 400:	00000014 	andeq	r0, r0, r4, lsl r0
 404:	00000048 	andeq	r0, r0, r8, asr #32
 408:	00003644 	andeq	r3, r0, r4, asr #12
 40c:	00000080 	andeq	r0, r0, r0, lsl #1
 410:	42040e42 	andmi	r0, r4, #1056	; 0x420
 414:	0b0d018b 	bleq	340a48 <__bss_end__+0x33a908>
 418:	00000014 	andeq	r0, r0, r4, lsl r0
 41c:	00000048 	andeq	r0, r0, r8, asr #32
 420:	000036c4 	andeq	r3, r0, r4, asr #13
 424:	00000120 	andeq	r0, r0, r0, lsr #2
 428:	42040e42 	andmi	r0, r4, #1056	; 0x420
 42c:	0b0d018b 	bleq	340a60 <__bss_end__+0x33a920>
 430:	00000014 	andeq	r0, r0, r4, lsl r0
 434:	00000048 	andeq	r0, r0, r8, asr #32
 438:	000037e4 	andeq	r3, r0, r4, ror #15
 43c:	00000088 	andeq	r0, r0, r8, lsl #1
 440:	42040e42 	andmi	r0, r4, #1056	; 0x420
 444:	0b0d018b 	bleq	340a78 <__bss_end__+0x33a938>
 448:	00000018 	andeq	r0, r0, r8, lsl r0
 44c:	00000048 	andeq	r0, r0, r8, asr #32
 450:	0000386c 	andeq	r3, r0, ip, ror #16
 454:	00000738 	andeq	r0, r0, r8, lsr r7
 458:	42080e42 	andmi	r0, r8, #1056	; 0x420
 45c:	028b018e 	addeq	r0, fp, #-2147483613	; 0x80000023
 460:	00040b0c 	andeq	r0, r4, ip, lsl #22
 464:	00000018 	andeq	r0, r0, r8, lsl r0
 468:	00000048 	andeq	r0, r0, r8, asr #32
 46c:	00003fa4 	andeq	r3, r0, r4, lsr #31
 470:	00000308 	andeq	r0, r0, r8, lsl #6
 474:	42080e42 	andmi	r0, r8, #1056	; 0x420
 478:	028b018e 	addeq	r0, fp, #-2147483613	; 0x80000023
 47c:	00040b0c 	andeq	r0, r4, ip, lsl #22
 480:	00000018 	andeq	r0, r0, r8, lsl r0
 484:	00000048 	andeq	r0, r0, r8, asr #32
 488:	000042ac 	andeq	r4, r0, ip, lsr #5
 48c:	000001bc 			; <UNDEFINED> instruction: 0x000001bc
 490:	42080e42 	andmi	r0, r8, #1056	; 0x420
 494:	028b018e 	addeq	r0, fp, #-2147483613	; 0x80000023
 498:	00040b0c 	andeq	r0, r4, ip, lsl #22
 49c:	00000018 	andeq	r0, r0, r8, lsl r0
 4a0:	00000048 	andeq	r0, r0, r8, asr #32
 4a4:	00004468 	andeq	r4, r0, r8, ror #8
 4a8:	00000018 	andeq	r0, r0, r8, lsl r0
 4ac:	42080e42 	andmi	r0, r8, #1056	; 0x420
 4b0:	028b018e 	addeq	r0, fp, #-2147483613	; 0x80000023
 4b4:	00040b0c 	andeq	r0, r4, ip, lsl #22
 4b8:	00000014 	andeq	r0, r0, r4, lsl r0
 4bc:	00000048 	andeq	r0, r0, r8, asr #32
 4c0:	00004480 	andeq	r4, r0, r0, lsl #9
 4c4:	00000070 	andeq	r0, r0, r0, ror r0
 4c8:	42040e42 	andmi	r0, r4, #1056	; 0x420
 4cc:	0b0d018b 	bleq	340b00 <__bss_end__+0x33a9c0>
 4d0:	00000014 	andeq	r0, r0, r4, lsl r0
 4d4:	00000048 	andeq	r0, r0, r8, asr #32
 4d8:	000044f0 	strdeq	r4, [r0], -r0
 4dc:	0000004c 	andeq	r0, r0, ip, asr #32
 4e0:	42040e42 	andmi	r0, r4, #1056	; 0x420
 4e4:	0b0d018b 	bleq	340b18 <__bss_end__+0x33a9d8>
 4e8:	00000014 	andeq	r0, r0, r4, lsl r0
 4ec:	00000048 	andeq	r0, r0, r8, asr #32
 4f0:	0000453c 	andeq	r4, r0, ip, lsr r5
 4f4:	00000074 	andeq	r0, r0, r4, ror r0
 4f8:	42040e42 	andmi	r0, r4, #1056	; 0x420
 4fc:	0b0d018b 	bleq	340b30 <__bss_end__+0x33a9f0>
 500:	00000014 	andeq	r0, r0, r4, lsl r0
 504:	00000048 	andeq	r0, r0, r8, asr #32
 508:	000045b0 			; <UNDEFINED> instruction: 0x000045b0
 50c:	00000050 	andeq	r0, r0, r0, asr r0
 510:	42040e42 	andmi	r0, r4, #1056	; 0x420
 514:	0b0d018b 	bleq	340b48 <__bss_end__+0x33aa08>
 518:	00000014 	andeq	r0, r0, r4, lsl r0
 51c:	00000048 	andeq	r0, r0, r8, asr #32
 520:	00004600 	andeq	r4, r0, r0, lsl #12
 524:	00000080 	andeq	r0, r0, r0, lsl #1
 528:	42040e42 	andmi	r0, r4, #1056	; 0x420
 52c:	0b0d018b 	bleq	340b60 <__bss_end__+0x33aa20>
 530:	00000018 	andeq	r0, r0, r8, lsl r0
 534:	00000048 	andeq	r0, r0, r8, asr #32
 538:	00004680 	andeq	r4, r0, r0, lsl #13
 53c:	00000144 	andeq	r0, r0, r4, asr #2
 540:	42080e42 	andmi	r0, r8, #1056	; 0x420
 544:	028b018e 	addeq	r0, fp, #-2147483613	; 0x80000023
 548:	00040b0c 	andeq	r0, r4, ip, lsl #22
 54c:	0000000c 	andeq	r0, r0, ip
 550:	ffffffff 			; <UNDEFINED> instruction: 0xffffffff
 554:	7c020001 	stcvc	0, cr0, [r2], {1}
 558:	000d0c0e 	andeq	r0, sp, lr, lsl #24
 55c:	00000018 	andeq	r0, r0, r8, lsl r0
 560:	0000054c 	andeq	r0, r0, ip, asr #10
 564:	000047c4 	andeq	r4, r0, r4, asr #15
 568:	00000018 	andeq	r0, r0, r8, lsl r0
 56c:	42080e42 	andmi	r0, r8, #1056	; 0x420
 570:	028b018e 	addeq	r0, fp, #-2147483613	; 0x80000023
 574:	00040b0c 	andeq	r0, r4, ip, lsl #22
 578:	00000014 	andeq	r0, r0, r4, lsl r0
 57c:	0000054c 	andeq	r0, r0, ip, asr #10
 580:	000047dc 	ldrdeq	r4, [r0], -ip
 584:	00000068 	andeq	r0, r0, r8, rrx
 588:	42040e42 	andmi	r0, r4, #1056	; 0x420
 58c:	0b0d018b 	bleq	340bc0 <__bss_end__+0x33aa80>
 590:	00000014 	andeq	r0, r0, r4, lsl r0
 594:	0000054c 	andeq	r0, r0, ip, asr #10
 598:	00004844 	andeq	r4, r0, r4, asr #16
 59c:	00000088 	andeq	r0, r0, r8, lsl #1
 5a0:	42040e42 	andmi	r0, r4, #1056	; 0x420
 5a4:	0b0d018b 	bleq	340bd8 <__bss_end__+0x33aa98>
 5a8:	00000018 	andeq	r0, r0, r8, lsl r0
 5ac:	0000054c 	andeq	r0, r0, ip, asr #10
 5b0:	000048cc 	andeq	r4, r0, ip, asr #17
 5b4:	000000c4 	andeq	r0, r0, r4, asr #1
 5b8:	42080e42 	andmi	r0, r8, #1056	; 0x420
 5bc:	028b018e 	addeq	r0, fp, #-2147483613	; 0x80000023
 5c0:	00040b0c 	andeq	r0, r4, ip, lsl #22
 5c4:	0000000c 	andeq	r0, r0, ip
 5c8:	ffffffff 			; <UNDEFINED> instruction: 0xffffffff
 5cc:	7c020001 	stcvc	0, cr0, [r2], {1}
 5d0:	000d0c0e 	andeq	r0, sp, lr, lsl #24
 5d4:	00000014 	andeq	r0, r0, r4, lsl r0
 5d8:	000005c4 	andeq	r0, r0, r4, asr #11
 5dc:	00004990 	muleq	r0, r0, r9
 5e0:	00000234 	andeq	r0, r0, r4, lsr r2
 5e4:	42040e42 	andmi	r0, r4, #1056	; 0x420
 5e8:	0b0d018b 	bleq	340c1c <__bss_end__+0x33aadc>
 5ec:	0000000c 	andeq	r0, r0, ip
 5f0:	ffffffff 			; <UNDEFINED> instruction: 0xffffffff
 5f4:	7c020001 	stcvc	0, cr0, [r2], {1}
 5f8:	000d0c0e 	andeq	r0, sp, lr, lsl #24
 5fc:	00000014 	andeq	r0, r0, r4, lsl r0
 600:	000005ec 	andeq	r0, r0, ip, ror #11
 604:	00004bc4 	andeq	r4, r0, r4, asr #23
 608:	0000006c 	andeq	r0, r0, ip, rrx
 60c:	42040e42 	andmi	r0, r4, #1056	; 0x420
 610:	0b0d018b 	bleq	340c44 <__bss_end__+0x33ab04>
 614:	00000014 	andeq	r0, r0, r4, lsl r0
 618:	000005ec 	andeq	r0, r0, ip, ror #11
 61c:	00004c30 	andeq	r4, r0, r0, lsr ip
 620:	00000080 	andeq	r0, r0, r0, lsl #1
 624:	42040e42 	andmi	r0, r4, #1056	; 0x420
 628:	0b0d018b 	bleq	340c5c <__bss_end__+0x33ab1c>
 62c:	00000014 	andeq	r0, r0, r4, lsl r0
 630:	000005ec 	andeq	r0, r0, ip, ror #11
 634:	00004cb0 			; <UNDEFINED> instruction: 0x00004cb0
 638:	00000098 	muleq	r0, r8, r0
 63c:	42040e42 	andmi	r0, r4, #1056	; 0x420
 640:	0b0d018b 	bleq	340c74 <__bss_end__+0x33ab34>
 644:	00000014 	andeq	r0, r0, r4, lsl r0
 648:	000005ec 	andeq	r0, r0, ip, ror #11
 64c:	00004d48 	andeq	r4, r0, r8, asr #26
 650:	00000054 	andeq	r0, r0, r4, asr r0
 654:	42040e42 	andmi	r0, r4, #1056	; 0x420
 658:	0b0d018b 	bleq	340c8c <__bss_end__+0x33ab4c>
 65c:	00000014 	andeq	r0, r0, r4, lsl r0
 660:	000005ec 	andeq	r0, r0, ip, ror #11
 664:	00004d9c 	muleq	r0, ip, sp
 668:	0000007c 	andeq	r0, r0, ip, ror r0
 66c:	42040e42 	andmi	r0, r4, #1056	; 0x420
 670:	0b0d018b 	bleq	340ca4 <__bss_end__+0x33ab64>
 674:	0000001c 	andeq	r0, r0, ip, lsl r0
 678:	000005ec 	andeq	r0, r0, ip, ror #11
 67c:	00004e18 	andeq	r4, r0, r8, lsl lr
 680:	000000dc 	ldrdeq	r0, [r0], -ip
 684:	420c0e42 	andmi	r0, ip, #1056	; 0x420
 688:	028b018e 	addeq	r0, fp, #-2147483613	; 0x80000023
 68c:	0b0c0384 	bleq	3014a4 <__bss_end__+0x2fb364>
 690:	00000004 	andeq	r0, r0, r4
 694:	0000001c 	andeq	r0, r0, ip, lsl r0
 698:	000005ec 	andeq	r0, r0, ip, ror #11
 69c:	00004ef4 	strdeq	r4, [r0], -r4	; <UNPREDICTABLE>
 6a0:	000001e0 	andeq	r0, r0, r0, ror #3
 6a4:	420c0e42 	andmi	r0, ip, #1056	; 0x420
 6a8:	028b018e 	addeq	r0, fp, #-2147483613	; 0x80000023
 6ac:	0b0c0384 	bleq	3014c4 <__bss_end__+0x2fb384>
 6b0:	00000004 	andeq	r0, r0, r4
 6b4:	00000018 	andeq	r0, r0, r8, lsl r0
 6b8:	000005ec 	andeq	r0, r0, ip, ror #11
 6bc:	000050d4 	ldrdeq	r5, [r0], -r4
 6c0:	00000098 	muleq	r0, r8, r0
 6c4:	42080e42 	andmi	r0, r8, #1056	; 0x420
 6c8:	028b018e 	addeq	r0, fp, #-2147483613	; 0x80000023
 6cc:	00040b0c 	andeq	r0, r4, ip, lsl #22
 6d0:	00000018 	andeq	r0, r0, r8, lsl r0
 6d4:	000005ec 	andeq	r0, r0, ip, ror #11
 6d8:	0000516c 	andeq	r5, r0, ip, ror #2
 6dc:	000000f0 	strdeq	r0, [r0], -r0	; <UNPREDICTABLE>
 6e0:	42080e42 	andmi	r0, r8, #1056	; 0x420
 6e4:	0284018b 	addeq	r0, r4, #-1073741790	; 0xc0000022
 6e8:	00040b0c 	andeq	r0, r4, ip, lsl #22
 6ec:	00000018 	andeq	r0, r0, r8, lsl r0
 6f0:	000005ec 	andeq	r0, r0, ip, ror #11
 6f4:	0000525c 	andeq	r5, r0, ip, asr r2
 6f8:	000000c4 	andeq	r0, r0, r4, asr #1
 6fc:	42080e42 	andmi	r0, r8, #1056	; 0x420
 700:	028b018e 	addeq	r0, fp, #-2147483613	; 0x80000023
 704:	00040b0c 	andeq	r0, r4, ip, lsl #22
 708:	0000000c 	andeq	r0, r0, ip
 70c:	ffffffff 			; <UNDEFINED> instruction: 0xffffffff
 710:	7c020001 	stcvc	0, cr0, [r2], {1}
 714:	000d0c0e 	andeq	r0, sp, lr, lsl #24
 718:	00000018 	andeq	r0, r0, r8, lsl r0
 71c:	00000708 	andeq	r0, r0, r8, lsl #14
 720:	00005320 	andeq	r5, r0, r0, lsr #6
 724:	00000038 	andeq	r0, r0, r8, lsr r0
 728:	42080e42 	andmi	r0, r8, #1056	; 0x420
 72c:	028b018e 	addeq	r0, fp, #-2147483613	; 0x80000023
 730:	00040b0c 	andeq	r0, r4, ip, lsl #22
 734:	00000014 	andeq	r0, r0, r4, lsl r0
 738:	00000708 	andeq	r0, r0, r8, lsl #14
 73c:	00005358 	andeq	r5, r0, r8, asr r3
 740:	0000010c 	andeq	r0, r0, ip, lsl #2
 744:	42040e42 	andmi	r0, r4, #1056	; 0x420
 748:	0b0d018b 	bleq	340d7c <__bss_end__+0x33ac3c>
 74c:	00000018 	andeq	r0, r0, r8, lsl r0
 750:	00000708 	andeq	r0, r0, r8, lsl #14
 754:	00005464 	andeq	r5, r0, r4, ror #8
 758:	00000078 	andeq	r0, r0, r8, ror r0
 75c:	42080e42 	andmi	r0, r8, #1056	; 0x420
 760:	028b018e 	addeq	r0, fp, #-2147483613	; 0x80000023
 764:	00040b0c 	andeq	r0, r4, ip, lsl #22
 768:	00000018 	andeq	r0, r0, r8, lsl r0
 76c:	00000708 	andeq	r0, r0, r8, lsl #14
 770:	000054dc 	ldrdeq	r5, [r0], -ip
 774:	00000048 	andeq	r0, r0, r8, asr #32
 778:	42080e42 	andmi	r0, r8, #1056	; 0x420
 77c:	028b018e 	addeq	r0, fp, #-2147483613	; 0x80000023
 780:	00040b0c 	andeq	r0, r4, ip, lsl #22
 784:	0000000c 	andeq	r0, r0, ip
 788:	ffffffff 			; <UNDEFINED> instruction: 0xffffffff
 78c:	7c020001 	stcvc	0, cr0, [r2], {1}
 790:	000d0c0e 	andeq	r0, sp, lr, lsl #24
 794:	00000014 	andeq	r0, r0, r4, lsl r0
 798:	00000784 	andeq	r0, r0, r4, lsl #15
 79c:	00005524 	andeq	r5, r0, r4, lsr #10
 7a0:	0000004c 	andeq	r0, r0, ip, asr #32
 7a4:	42040e42 	andmi	r0, r4, #1056	; 0x420
 7a8:	0b0d018b 	bleq	340ddc <__bss_end__+0x33ac9c>
 7ac:	00000018 	andeq	r0, r0, r8, lsl r0
 7b0:	00000784 	andeq	r0, r0, r4, lsl #15
 7b4:	00005570 	andeq	r5, r0, r0, ror r5
 7b8:	0000004c 	andeq	r0, r0, ip, asr #32
 7bc:	42080e42 	andmi	r0, r8, #1056	; 0x420
 7c0:	028b018e 	addeq	r0, fp, #-2147483613	; 0x80000023
 7c4:	00040b0c 	andeq	r0, r4, ip, lsl #22
 7c8:	0000000c 	andeq	r0, r0, ip
 7cc:	ffffffff 			; <UNDEFINED> instruction: 0xffffffff
 7d0:	7c020001 	stcvc	0, cr0, [r2], {1}
 7d4:	000d0c0e 	andeq	r0, sp, lr, lsl #24
 7d8:	00000018 	andeq	r0, r0, r8, lsl r0
 7dc:	000007c8 	andeq	r0, r0, r8, asr #15
 7e0:	000055bc 			; <UNDEFINED> instruction: 0x000055bc
 7e4:	00000060 	andeq	r0, r0, r0, rrx
 7e8:	42080e42 	andmi	r0, r8, #1056	; 0x420
 7ec:	028b018e 	addeq	r0, fp, #-2147483613	; 0x80000023
 7f0:	00040b0c 	andeq	r0, r4, ip, lsl #22
 7f4:	00000018 	andeq	r0, r0, r8, lsl r0
 7f8:	000007c8 	andeq	r0, r0, r8, asr #15
 7fc:	0000561c 	andeq	r5, r0, ip, lsl r6
 800:	00000058 	andeq	r0, r0, r8, asr r0
 804:	42080e42 	andmi	r0, r8, #1056	; 0x420
 808:	028b018e 	addeq	r0, fp, #-2147483613	; 0x80000023
 80c:	00040b0c 	andeq	r0, r4, ip, lsl #22
 810:	00000018 	andeq	r0, r0, r8, lsl r0
 814:	000007c8 	andeq	r0, r0, r8, asr #15
 818:	00005674 	andeq	r5, r0, r4, ror r6
 81c:	0000005c 	andeq	r0, r0, ip, asr r0
 820:	42080e42 	andmi	r0, r8, #1056	; 0x420
 824:	028b018e 	addeq	r0, fp, #-2147483613	; 0x80000023
 828:	00040b0c 	andeq	r0, r4, ip, lsl #22
 82c:	00000014 	andeq	r0, r0, r4, lsl r0
 830:	000007c8 	andeq	r0, r0, r8, asr #15
 834:	000056d0 	ldrdeq	r5, [r0], -r0
 838:	000000b8 	strheq	r0, [r0], -r8
 83c:	42040e42 	andmi	r0, r4, #1056	; 0x420
 840:	0b0d018b 	bleq	340e74 <__bss_end__+0x33ad34>
 844:	0000000c 	andeq	r0, r0, ip
 848:	ffffffff 			; <UNDEFINED> instruction: 0xffffffff
 84c:	7c020001 	stcvc	0, cr0, [r2], {1}
 850:	000d0c0e 	andeq	r0, sp, lr, lsl #24
 854:	00000014 	andeq	r0, r0, r4, lsl r0
 858:	00000844 	andeq	r0, r0, r4, asr #16
 85c:	00005788 	andeq	r5, r0, r8, lsl #15
 860:	00000054 	andeq	r0, r0, r4, asr r0
 864:	42040e42 	andmi	r0, r4, #1056	; 0x420
 868:	0b0d018b 	bleq	340e9c <__bss_end__+0x33ad5c>
 86c:	00000014 	andeq	r0, r0, r4, lsl r0
 870:	00000844 	andeq	r0, r0, r4, asr #16
 874:	000057dc 	ldrdeq	r5, [r0], -ip
 878:	0000004c 	andeq	r0, r0, ip, asr #32
 87c:	42040e42 	andmi	r0, r4, #1056	; 0x420
 880:	0b0d018b 	bleq	340eb4 <__bss_end__+0x33ad74>
 884:	00000018 	andeq	r0, r0, r8, lsl r0
 888:	00000844 	andeq	r0, r0, r4, asr #16
 88c:	00005828 	andeq	r5, r0, r8, lsr #16
 890:	00000060 	andeq	r0, r0, r0, rrx
 894:	42080e42 	andmi	r0, r8, #1056	; 0x420
 898:	028b018e 	addeq	r0, fp, #-2147483613	; 0x80000023
 89c:	00040b0c 	andeq	r0, r4, ip, lsl #22
 8a0:	00000018 	andeq	r0, r0, r8, lsl r0
 8a4:	00000844 	andeq	r0, r0, r4, asr #16
 8a8:	00005888 	andeq	r5, r0, r8, lsl #17
 8ac:	000000d4 	ldrdeq	r0, [r0], -r4
 8b0:	42080e42 	andmi	r0, r8, #1056	; 0x420
 8b4:	028b018e 	addeq	r0, fp, #-2147483613	; 0x80000023
 8b8:	00040b0c 	andeq	r0, r4, ip, lsl #22
 8bc:	00000018 	andeq	r0, r0, r8, lsl r0
 8c0:	00000844 	andeq	r0, r0, r4, asr #16
 8c4:	0000595c 	andeq	r5, r0, ip, asr r9
 8c8:	00000104 	andeq	r0, r0, r4, lsl #2
 8cc:	42080e42 	andmi	r0, r8, #1056	; 0x420
 8d0:	028b018e 	addeq	r0, fp, #-2147483613	; 0x80000023
 8d4:	00040b0c 	andeq	r0, r4, ip, lsl #22

Disassembly of section .debug_str:

00000000 <.debug_str>:
       0:	676e6f6c 	strbvs	r6, [lr, -ip, ror #30]!
       4:	6e6f6c20 	cdpvs	12, 6, cr6, cr15, cr0, {1}
       8:	6e692067 	cdpvs	0, 6, cr2, cr9, cr7, {3}
       c:	4e470074 	mcrmi	0, 2, r0, cr7, cr4, {3}
      10:	20432055 	subcs	r2, r3, r5, asr r0
      14:	2e352e34 	mrccs	14, 1, r2, cr5, cr4, {1}
      18:	6d630032 	stclvs	0, cr0, [r3, #-200]!	; 0xffffff38
      1c:	746e6364 	strbtvc	r6, [lr], #-868	; 0xfffffc9c
      20:	69616d00 	stmdbvs	r1!, {r8, sl, fp, sp, lr}^
      24:	00632e6e 	rsbeq	r2, r3, lr, ror #28
      28:	706d6574 	rsbvc	r6, sp, r4, ror r5
      2c:	69614d00 	stmdbvs	r1!, {r8, sl, fp, lr}^
      30:	6f6c006e 	svcvs	0x006c006e
      34:	6c20676e 	stcvs	7, cr6, [r0], #-440	; 0xfffffe48
      38:	20676e6f 	rsbcs	r6, r7, pc, ror #28
      3c:	69736e75 	ldmdbvs	r3!, {r0, r2, r4, r5, r6, r9, sl, fp, sp, lr}^
      40:	64656e67 	strbtvs	r6, [r5], #-3687	; 0xfffff199
      44:	746e6920 	strbtvc	r6, [lr], #-2336	; 0xfffff6e0
      48:	72646400 	rsbvc	r6, r4, #0, 8
      4c:	74736574 	ldrbtvc	r6, [r3], #-1396	; 0xfffffa8c
      50:	736e7500 	cmnvc	lr, #0, 10
      54:	656e6769 	strbvs	r6, [lr, #-1897]!	; 0xfffff897
      58:	68632064 	stmdavs	r3!, {r2, r5, r6, sp}^
      5c:	68007261 	stmdavs	r0, {r0, r5, r6, r9, ip, sp, lr}
      60:	00706c65 	rsbseq	r6, r0, r5, ror #24
      64:	6e697250 	mcrvs	2, 3, r7, cr9, cr0, {2}
      68:	78654874 	stmdavc	r5!, {r2, r4, r5, r6, fp, lr}^
      6c:	6f687300 	svcvs	0x00687300
      70:	75207472 	strvc	r7, [r0, #-1138]!	; 0xfffffb8e
      74:	6769736e 	strbvs	r7, [r9, -lr, ror #6]!
      78:	2064656e 	rsbcs	r6, r4, lr, ror #10
      7c:	00746e69 	rsbseq	r6, r4, r9, ror #28
      80:	6d6f682f 	stclvs	8, cr6, [pc, #-188]!	; ffffffcc <__bss_end__+0xffff9e8c>
      84:	73622f65 	cmnvc	r2, #404	; 0x194
      88:	612f6365 	teqvs	pc, r5, ror #6
      8c:	692f6d72 	stmdbvs	pc!, {r1, r4, r5, r6, r8, sl, fp, sp, lr}	; <UNPREDICTABLE>
      90:	3332584d 	teqcc	r2, #5046272	; 0x4d0000
      94:	53425f33 	movtpl	r5, #12083	; 0x2f33
      98:	2f325f50 	svccs	0x00325f50
      9c:	746f6f62 	strbtvc	r6, [pc], #-3938	; a4 <irq_handler+0x20>
      a0:	6372732f 	cmnvs	r2, #-1140850688	; 0xbc000000
      a4:	6f687300 	svcvs	0x00687300
      a8:	69207472 	stmdbvs	r0!, {r1, r4, r5, r6, sl, ip, sp, lr}
      ac:	6400746e 	strvs	r7, [r0], #-1134	; 0xfffffb92
      b0:	655f6964 	ldrbvs	r6, [pc, #-2404]	; fffff754 <__bss_end__+0xffff9614>
      b4:	505f696d 	subspl	r6, pc, sp, ror #18
      b8:	734f6572 	movtvc	r6, #62834	; 0xf572
      bc:	74696e49 	strbtvc	r6, [r9], #-3657	; 0xfffff1b7
      c0:	47455200 	strbmi	r5, [r5, -r0, lsl #4]
      c4:	4d49445f 	cfstrdmi	mvd4, [r9, #-380]	; 0xfffffe84
      c8:	4e455f4d 	cdpmi	15, 4, cr5, cr5, cr13, {2}
      cc:	454c4241 	strbmi	r4, [ip, #-577]	; 0xfffffdbf
      d0:	494d4500 	stmdbmi	sp, {r8, sl, lr}^
      d4:	4d36315f 	ldfmis	f3, [r6, #-380]!	; 0xfffffe84
      d8:	52445f42 	subpl	r5, r4, #264	; 0x108
      dc:	48004d41 	stmdami	r0, {r0, r6, r8, sl, fp, lr}
      e0:	52444145 	subpl	r4, r4, #1073741841	; 0x40000011
      e4:	5f4d4f4f 	svcpl	0x004d4f4f
      e8:	004a4441 	subeq	r4, sl, r1, asr #8
      ec:	535f4543 	cmppl	pc, #281018368	; 0x10c00000
      f0:	43454c45 	movtmi	r4, #23621	; 0x5c45
      f4:	77680054 			; <UNDEFINED> instruction: 0x77680054
      f8:	6b6c635f 	blvs	1b18e7c <__bss_end__+0x1b12d3c>
      fc:	6c727463 	cfldrdvs	mvd7, [r2], #-396	; 0xfffffe74
     100:	7570635f 	ldrbvc	r6, [r0, #-863]!	; 0xfffffca1
     104:	4c00745f 	cfstrsmi	mvf7, [r0], {95}	; 0x5f
     108:	43444152 	movtmi	r4, #16722	; 0x4152
     10c:	52495f35 	subpl	r5, r9, #53, 30	; 0xd4
     110:	414d0051 	qdaddmi	r0, r1, sp
     114:	4f525f58 	svcmi	0x00525f58
     118:	45525f57 	ldrbmi	r5, [r2, #-3927]	; 0xfffff0a9
     11c:	4c430047 	mcrrmi	0, 4, r0, r3, cr7
     120:	5441474b 	strbpl	r4, [r1], #-1867	; 0xfffff8b5
     124:	55504345 	ldrbpl	r4, [r0, #-837]	; 0xfffffcbb
     128:	554f5400 	strbpl	r5, [pc, #-1024]	; fffffd30 <__bss_end__+0xffff9bf0>
     12c:	445f4843 	ldrbmi	r4, [pc], #-2115	; 134 <irq_handler+0xb0>
     130:	43455445 	movtmi	r5, #21573	; 0x5445
     134:	52495f54 	subpl	r5, r9, #84, 30	; 0x150
     138:	4d450051 	stclmi	0, cr0, [r5, #-324]	; 0xfffffebc
     13c:	5f325352 	svcpl	0x00325352
     140:	41544144 	cmpmi	r4, r4, asr #2
     144:	4f00335f 	svcmi	0x0000335f
     148:	74534c41 	ldrbvc	r4, [r3], #-3137	; 0xfffff3bf
     14c:	006c6c61 	rsbeq	r6, ip, r1, ror #24
     150:	41505942 	cmpmi	r0, r2, asr #18
     154:	535f5353 	cmppl	pc, #1275068417	; 0x4c000001
     158:	00464941 	subeq	r4, r6, r1, asr #18
     15c:	655f7768 	ldrbvs	r7, [pc, #-1896]	; fffff9fc <__bss_end__+0xffff98bc>
     160:	435f696d 	cmpmi	pc, #1785856	; 0x1b4000
     164:	6b636f6c 	blvs	18dbf1c <__bss_end__+0x18d5ddc>
     168:	74617453 	strbtvc	r7, [r1], #-1107	; 0xfffffbad
     16c:	00745f65 	rsbseq	r5, r4, r5, ror #30
     170:	5f4c4c44 	svcpl	0x004c4c44
     174:	5f535144 	svcpl	0x00535144
     178:	414c4544 	cmpmi	ip, r4, asr #10
     17c:	59425f59 	stmdbpl	r2, {r0, r3, r4, r6, r8, r9, sl, fp, ip, lr}^
     180:	53534150 	cmppl	r3, #80, 2
     184:	4400305f 	strmi	r3, [r0], #-95	; 0xffffffa1
     188:	445f4c4c 	ldrbmi	r4, [pc], #-3148	; 190 <irq_handler+0x10c>
     18c:	445f5351 	ldrbmi	r5, [pc], #-849	; 194 <irq_handler+0x110>
     190:	59414c45 	stmdbpl	r1, {r0, r2, r6, sl, fp, lr}^
     194:	5059425f 	subspl	r4, r9, pc, asr r2
     198:	5f535341 	svcpl	0x00535341
     19c:	77680031 			; <UNDEFINED> instruction: 0x77680031
     1a0:	7261755f 	rsbvc	r7, r1, #398458880	; 0x17c00000
     1a4:	67626474 			; <UNDEFINED> instruction: 0x67626474
     1a8:	745f7264 	ldrbvc	r7, [pc], #-612	; 1b0 <irq_handler+0x12c>
     1ac:	61724400 	cmnvs	r2, r0, lsl #8
     1b0:	6765526d 	strbvs	r5, [r5, -sp, ror #4]!
     1b4:	44003231 	strmi	r3, [r0], #-561	; 0xfffffdcf
     1b8:	526d6172 	rsbpl	r6, sp, #-2147483620	; 0x8000001c
     1bc:	33316765 	teqcc	r1, #26476544	; 0x1940000
     1c0:	41524c00 	cmpmi	r2, r0, lsl #24
     1c4:	5f324344 	svcpl	0x00324344
     1c8:	5f515249 	svcpl	0x00515249
     1cc:	44004e45 	strmi	r4, [r0], #-3653	; 0xfffff1bb
     1d0:	526d6172 	rsbpl	r6, sp, #-2147483620	; 0x8000001c
     1d4:	35316765 	ldrcc	r6, [r1, #-1893]!	; 0xfffff89b
     1d8:	4e495400 	cdpmi	4, 4, cr5, cr9, cr0, {0}
     1dc:	44005449 	strmi	r5, [r0], #-1097	; 0xfffffbb7
     1e0:	526d6172 	rsbpl	r6, sp, #-2147483620	; 0x8000001c
     1e4:	38316765 	ldmdacc	r1!, {r0, r2, r5, r6, r8, r9, sl, sp, lr}
     1e8:	53594800 	cmppl	r9, #0, 16
     1ec:	48545f54 	ldmdami	r4, {r2, r4, r6, r8, r9, sl, fp, ip, lr}^
     1f0:	48534552 	ldmdami	r3, {r1, r4, r6, r8, sl, lr}^
     1f4:	5f574800 	svcpl	0x00574800
     1f8:	45574f50 	ldrbmi	r4, [r7, #-3920]	; 0xfffff0b0
     1fc:	56355f52 	shsaxpl	r5, r5, r2
     200:	5542565f 	strbpl	r5, [r2, #-1631]	; 0xfffff9a1
     204:	4c415653 	mcrrmi	6, 5, r5, r1, cr3
     208:	575f4449 	ldrbpl	r4, [pc, -r9, asr #8]
     20c:	5f485449 	svcpl	0x00485449
     210:	4c4c4f50 	mcrrmi	15, 5, r4, ip, cr0
     214:	00474e49 	subeq	r4, r7, r9, asr #28
     218:	55525750 	ldrbpl	r5, [r2, #-1872]	; 0xfffff8b0
     21c:	42565f50 	subsmi	r5, r6, #80, 30	; 0x140
     220:	435f5355 	cmpmi	pc, #1409286145	; 0x54000001
     224:	0053504d 	subseq	r5, r3, sp, asr #32
     228:	776f5062 	strbvc	r5, [pc, -r2, rrx]!
     22c:	6e4f7265 	cdpvs	2, 4, cr7, cr15, cr5, {3}
     230:	494d4500 	stmdbmi	sp, {r8, sl, lr}^
     234:	4b4c435f 	blmi	1310fb8 <__bss_end__+0x130ae78>
     238:	4d34325f 	lfmmi	f3, 4, [r4, #-380]!	; 0xfffffe84
     23c:	52007a48 	andpl	r7, r0, #72, 20	; 0x48000
     240:	54455345 	strbpl	r5, [r5], #-837	; 0xfffffcbb
     244:	54554f5f 	ldrbpl	r4, [r5], #-3935	; 0xfffff0a1
     248:	5f776800 	svcpl	0x00776800
     24c:	74726175 	ldrbtvc	r6, [r2], #-373	; 0xfffffe8b
     250:	66676264 	strbtvs	r6, [r7], -r4, ror #4
     254:	00745f72 	rsbseq	r5, r4, r2, ror pc
     258:	4c534143 	ldfmie	f4, [r3], {67}	; 0x43
     25c:	53005441 	movwpl	r5, #1089	; 0x441
     260:	53525446 	cmppl	r2, #1174405120	; 0x46000000
     264:	77680054 			; <UNDEFINED> instruction: 0x77680054
     268:	61726c5f 	cmnvs	r2, pc, asr ip
     26c:	635f6364 	cmpvs	pc, #100, 6	; 0x90000001
     270:	316c7274 	smccc	50980	; 0xc724
     274:	4100745f 	tstmi	r0, pc, asr r4
     278:	44584250 	ldrbmi	r4, [r8], #-592	; 0xfffffdb0
     27c:	415f414d 	cmpmi	pc, sp, asr #2
     280:	4e455f53 	mcrmi	15, 2, r5, cr5, cr3, {2}
     284:	454c4241 	strbmi	r4, [ip, #-577]	; 0xfffffdbf
     288:	53594800 	cmppl	r9, #0, 16
     28c:	49445f54 	stmdbmi	r4, {r2, r4, r6, r8, r9, sl, fp, ip, lr}^
     290:	42560052 	subsmi	r0, r6, #82	; 0x52
     294:	41565355 	cmpmi	r6, r5, asr r3
     298:	5f44494c 	svcpl	0x0044494c
     29c:	54415453 	strbpl	r5, [r1], #-1107	; 0xfffffbad
     2a0:	62005355 	andvs	r5, r0, #1409286145	; 0x54000001
     2a4:	74617453 	strbtvc	r7, [r1], #-1107	; 0xfffffbad
     2a8:	654d6369 	strbvs	r6, [sp, #-873]	; 0xfffffc97
     2ac:	79726f6d 	ldmdbvc	r2!, {r0, r2, r3, r5, r6, r8, r9, sl, fp, sp, lr}^
     2b0:	666c6553 			; <UNDEFINED> instruction: 0x666c6553
     2b4:	72666552 	rsbvc	r6, r6, #343932928	; 0x14800000
     2b8:	4d687365 	stclmi	3, cr7, [r8, #-404]!	; 0xfffffe6c
     2bc:	4565646f 	strbmi	r6, [r5, #-1135]!	; 0xfffffb91
     2c0:	6c62616e 	stfvse	f6, [r2], #-440	; 0xfffffe48
     2c4:	53006465 	movwpl	r6, #1125	; 0x465
     2c8:	45535345 	ldrbmi	r5, [r3, #-837]	; 0xfffffcbb
     2cc:	4400444e 	strmi	r4, [r0], #-1102	; 0xfffffbb2
     2d0:	526d6172 	rsbpl	r6, sp, #-2147483620	; 0x8000001c
     2d4:	30326765 	eorscc	r6, r2, r5, ror #14
     2d8:	61724400 	cmnvs	r2, r0, lsl #8
     2dc:	6765526d 	strbvs	r5, [r5, -sp, ror #4]!
     2e0:	41003132 	tstmi	r0, r2, lsr r1
     2e4:	5f314248 	svcpl	0x00314248
     2e8:	4f464946 	svcmi	0x00464946
     2ec:	5059545f 	subspl	r5, r9, pc, asr r4
     2f0:	45525f45 	ldrbmi	r5, [r2, #-3909]	; 0xfffff0bb
     2f4:	72440047 	subvc	r0, r4, #71	; 0x47
     2f8:	65526d61 	ldrbvs	r6, [r2, #-3425]	; 0xfffff29f
     2fc:	00363267 	eorseq	r3, r6, r7, ror #4
     300:	746e4962 	strbtvc	r4, [lr], #-2402	; 0xfffff69e
     304:	75727265 	ldrbvc	r7, [r2, #-613]!	; 0xfffffd9b
     308:	6e457470 	mcrvs	4, 2, r7, cr5, cr0, {3}
     30c:	656c6261 	strbvs	r6, [ip, #-609]!	; 0xfffffd9f
     310:	74617453 	strbtvc	r7, [r1], #-1107	; 0xfffffbad
     314:	77680065 	strbvc	r0, [r8, -r5, rrx]!
     318:	6172645f 	cmnvs	r2, pc, asr r4
     31c:	74635f6d 	strbtvc	r5, [r3], #-3949	; 0xfffff093
     320:	5f38306c 	svcpl	0x0038306c
     324:	79740074 	ldmdbvc	r4!, {r2, r4, r5, r6}^
     328:	68006570 	stmdavs	r0, {r4, r5, r6, r8, sl, sp, lr}
     32c:	69645f77 	stmdbvs	r4!, {r0, r1, r2, r4, r5, r6, r8, r9, sl, fp, ip, lr}^
     330:	6c746367 	ldclvs	3, cr6, [r4], #-412	; 0xfffffe64
     334:	63696d5f 	cmnvs	r9, #6080	; 0x17c0
     338:	65736f72 	ldrbvs	r6, [r3, #-3954]!	; 0xfffff08e
     33c:	646e6f63 	strbtvs	r6, [lr], #-3939	; 0xfffff09d
     340:	00745f73 	rsbseq	r5, r4, r3, ror pc
     344:	474b4c43 	strbmi	r4, [fp, -r3, asr #24]
     348:	00455441 	subeq	r5, r5, r1, asr #8
     34c:	535f5752 	cmppl	pc, #21495808	; 0x1480000
     350:	5f454d41 	svcpl	0x00454d41
     354:	4d004e45 	stcmi	14, cr4, [r0, #-276]	; 0xfffffeec
     358:	79546d65 	ldmdbvc	r4, {r0, r2, r5, r6, r8, sl, fp, sp, lr}^
     35c:	54006570 	strpl	r6, [r0], #-1392	; 0xfffffa90
     360:	566e6950 			; <UNDEFINED> instruction: 0x566e6950
     364:	61746c6f 	cmnvs	r4, pc, ror #24
     368:	72006567 	andvc	r6, r0, #432013312	; 0x19c00000
     36c:	36316765 	ldrtcc	r6, [r1], -r5, ror #14
     370:	4c00745f 	cfstrsmi	mvf7, [r0], {95}	; 0x5f
     374:	43444152 	movtmi	r4, #16722	; 0x4152
     378:	52495f31 	subpl	r5, r9, #49, 30	; 0xc4
     37c:	4e455f51 	mcrmi	15, 2, r5, cr5, cr1, {2}
     380:	6e697000 	cdpvs	0, 6, cr7, cr9, cr0, {0}
     384:	6972645f 	ldmdbvs	r2!, {r0, r1, r2, r3, r4, r6, sl, sp, lr}^
     388:	615f6576 	cmpvs	pc, r6, ror r5	; <UNPREDICTABLE>
     38c:	00726464 	rsbseq	r6, r2, r4, ror #8
     390:	4c415642 	mcrrmi	6, 4, r5, r1, cr2
     394:	535f4449 	cmppl	pc, #1224736768	; 0x49000000
     398:	55544154 	ldrbpl	r4, [r4, #-340]	; 0xfffffeac
     39c:	72440053 	subvc	r0, r4, #83	; 0x53
     3a0:	65526d61 	ldrbvs	r6, [r2, #-3425]	; 0xfffff29f
     3a4:	00323367 	eorseq	r3, r2, r7, ror #6
     3a8:	6d617244 	sfmvs	f7, 2, [r1, #-272]!	; 0xfffffef0
     3ac:	33676552 	cmncc	r7, #343932928	; 0x14800000
     3b0:	57500033 	smmlarpl	r0, r3, r0, r0
     3b4:	5f505552 	svcpl	0x00505552
     3b8:	52554f53 	subspl	r4, r5, #332	; 0x14c
     3bc:	44004543 	strmi	r4, [r0], #-1347	; 0xfffffabd
     3c0:	00415441 	subeq	r5, r1, r1, asr #8
     3c4:	755f7768 	ldrbvc	r7, [pc, #-1896]	; fffffc64 <__bss_end__+0xffff9b24>
     3c8:	64747261 	ldrbtvs	r7, [r4], #-609	; 0xfffffd9f
     3cc:	66696762 	strbtvs	r6, [r9], -r2, ror #14
     3d0:	745f736c 	ldrbvc	r7, [pc], #-876	; 3d8 <irq_handler+0x354>
     3d4:	56454400 	strbpl	r4, [r5], -r0, lsl #8
     3d8:	47554c50 			; <UNDEFINED> instruction: 0x47554c50
     3dc:	505f4e49 	subspl	r4, pc, r9, asr #28
     3e0:	52414c4f 	subpl	r4, r1, #20224	; 0x4f00
     3e4:	00595449 	subseq	r5, r9, r9, asr #8
     3e8:	5f544e49 	svcpl	0x00544e49
     3ec:	004b4341 	subeq	r4, fp, r1, asr #6
     3f0:	65776f50 	ldrbvs	r6, [r7, #-3920]!	; 0xfffff0b0
     3f4:	74655372 	strbtvc	r5, [r5], #-882	; 0xfffffc8e
     3f8:	72616843 	rsbvc	r6, r1, #4390912	; 0x430000
     3fc:	00726567 	rsbseq	r6, r2, r7, ror #10
     400:	5f494d45 	svcpl	0x00494d45
     404:	5f4b4c43 	svcpl	0x004b4c43
     408:	484d3834 	stmdami	sp, {r2, r4, r5, fp, ip, sp}^
     40c:	5254007a 	subspl	r0, r4, #122	; 0x7a
     410:	49464641 	stmdbmi	r6, {r0, r6, r9, sl, lr}^
     414:	414a5f43 	cmpmi	sl, r3, asr #30
     418:	53415f4d 	movtpl	r5, #8013	; 0x1f4d
     41c:	414e455f 	cmpmi	lr, pc, asr r5
     420:	00454c42 	subeq	r4, r5, r2, asr #24
     424:	5f6e6970 	svcpl	0x006e6970
     428:	746c6f76 	strbtvc	r6, [ip], #-3958	; 0xfffff08a
     42c:	00656761 	rsbeq	r6, r5, r1, ror #14
     430:	70696843 	rsbvc	r6, r9, r3, asr #16
     434:	656c6553 	strbvs	r6, [ip, #-1363]!	; 0xfffffaad
     438:	614d7463 	cmpvs	sp, r3, ror #8
     43c:	4c006b73 	stcmi	11, cr6, [r0], {115}	; 0x73
     440:	43444152 	movtmi	r4, #16722	; 0x4152
     444:	52495f34 	subpl	r5, r9, #52, 30	; 0xd0
     448:	4e455f51 	mcrmi	15, 2, r5, cr5, cr1, {2}
     44c:	5f776800 	svcpl	0x00776800
     450:	5f696d65 	svcpl	0x00696d65
     454:	6c727463 	cfldrdvs	mvd7, [r2], #-396	; 0xfffffe74
     458:	4c00745f 	cfstrsmi	mvf7, [r0], {95}	; 0x5f
     45c:	4f50574f 	svcmi	0x0050574f
     460:	5f524557 	svcpl	0x00524557
     464:	45545845 	ldrbmi	r5, [r4, #-2117]	; 0xfffff7bb
     468:	4c414e52 	mcrrmi	14, 5, r4, r1, cr2
     46c:	544e435f 	strbpl	r4, [lr], #-863	; 0xfffffca1
     470:	54554100 	ldrbpl	r4, [r5], #-256	; 0xffffff00
     474:	4c535f4f 	mrrcmi	15, 4, r5, r3, cr15
     478:	4d5f574f 	ldclmi	7, cr5, [pc, #-316]	; 344 <irq_handler+0x2c0>
     47c:	0045444f 	subeq	r4, r5, pc, asr #8
     480:	445f5257 	ldrbmi	r5, [pc], #-599	; 488 <irq_handler+0x404>
     484:	535f5351 	cmppl	pc, #1140850689	; 0x44000001
     488:	54464948 	strbpl	r4, [r6], #-2376	; 0xfffff6b8
     48c:	5059425f 	subspl	r4, r9, pc, asr r2
     490:	00535341 	subseq	r5, r3, r1, asr #6
     494:	6d617244 	sfmvs	f7, 2, [r1, #-272]!	; 0xfffffef0
     498:	34676552 	strbtcc	r6, [r7], #-1362	; 0xfffffaae
     49c:	52500030 	subspl	r0, r0, #48	; 0x30
     4a0:	49524f49 	ldmdbmi	r2, {r0, r3, r6, r8, r9, sl, fp, lr}^
     4a4:	455f5954 	ldrbmi	r5, [pc, #-2388]	; fffffb58 <__bss_end__+0xffff9a18>
     4a8:	4e49004e 	cdpmi	0, 4, cr0, cr9, cr14, {2}
     4ac:	52524554 	subspl	r4, r2, #84, 10	; 0x15000000
     4b0:	5f545055 	svcpl	0x00545055
     4b4:	54494157 	strbpl	r4, [r9], #-343	; 0xfffffea9
     4b8:	646c7800 	strbtvs	r7, [ip], #-2048	; 0xfffff800
     4bc:	00632e72 	rsbeq	r2, r3, r2, ror lr
     4c0:	5f494d45 	svcpl	0x00494d45
     4c4:	42415453 	submi	r5, r1, #1392508928	; 0x53000000
     4c8:	4400454c 	strmi	r4, [r0], #-1356	; 0xfffffab4
     4cc:	465f5649 	ldrbmi	r5, [pc], -r9, asr #12
     4d0:	5f434152 	svcpl	0x00434152
     4d4:	53004e45 	movwpl	r4, #3653	; 0xe45
     4d8:	5f574f4c 	svcpl	0x00574f4c
     4dc:	00564944 	subseq	r4, r6, r4, asr #18
     4e0:	4441524c 	strbmi	r5, [r1], #-588	; 0xfffffdb4
     4e4:	495f3443 	ldmdbmi	pc, {r0, r1, r6, sl, ip, sp}^	; <UNPREDICTABLE>
     4e8:	50005152 	andpl	r5, r0, r2, asr r1
     4ec:	565f4e49 	ldrbpl	r4, [pc], -r9, asr #28
     4f0:	41544c4f 	cmpmi	r4, pc, asr #24
     4f4:	315f4547 	cmpcc	pc, r7, asr #10
     4f8:	56387470 			; <UNDEFINED> instruction: 0x56387470
     4fc:	74614200 	strbtvc	r4, [r1], #-512	; 0xfffffe00
     500:	6c6f5674 	stclvs	6, cr5, [pc], #-464	; 338 <irq_handler+0x2b4>
     504:	65676174 	strbvs	r6, [r7, #-372]!	; 0xfffffe8c
     508:	44445600 	strbmi	r5, [r4], #-1536	; 0xfffffa00
     50c:	465f5635 			; <UNDEFINED> instruction: 0x465f5635
     510:	544c5541 	strbpl	r5, [ip], #-1345	; 0xfffffabf
     514:	58495000 	stmdapl	r9, {ip, lr}^
     518:	4154535f 	cmpmi	r4, pc, asr r3
     51c:	00454c42 	subeq	r4, r5, r2, asr #24
     520:	46584950 			; <UNDEFINED> instruction: 0x46584950
     524:	00434152 	subeq	r4, r3, r2, asr r1
     528:	53415254 	movtpl	r5, #4692	; 0x1254
     52c:	434f4c5f 	movtmi	r4, #64607	; 0xfc5f
     530:	54554f4b 	ldrbpl	r4, [r5], #-3915	; 0xfffff0b5
     534:	6c436500 	cfstr64vs	mvdx6, [r3], {-0}
     538:	7768006b 	strbvc	r0, [r8, -fp, rrx]!
     53c:	6b6c635f 	blvs	1b192c0 <__bss_end__+0x1b13180>
     540:	6c727463 	cfldrdvs	mvd7, [r2], #-396	; 0xfffffe74
     544:	7465535f 	strbtvc	r5, [r5], #-863	; 0xfffffca1
     548:	52696d45 	rsbpl	r6, r9, #4416	; 0x1140
     54c:	74586665 	ldrbvc	r6, [r8], #-1637	; 0xfffff99b
     550:	6c436c61 	mcrrvs	12, 6, r6, r3, cr1
     554:	7461476b 	strbtvc	r4, [r1], #-1899	; 0xfffff895
     558:	41420065 	cmpmi	r2, r5, rrx
     55c:	445f4455 	ldrbmi	r4, [pc], #-1109	; 564 <irq_handler+0x4e0>
     560:	4e495649 	cdpmi	6, 4, cr5, cr9, cr9, {2}
     564:	77680054 			; <UNDEFINED> instruction: 0x77680054
     568:	6172645f 	cmnvs	r2, pc, asr r4
     56c:	74635f6d 	strbtvc	r5, [r3], #-3949	; 0xfffff093
     570:	5f31316c 	svcpl	0x0031316c
     574:	72440074 	subvc	r0, r4, #116	; 0x74
     578:	65526d61 	ldrbvs	r6, [r2, #-3425]	; 0xfffff29f
     57c:	70003767 	andvc	r3, r0, r7, ror #14
     580:	00434f54 	subeq	r4, r3, r4, asr pc
     584:	6d617244 	sfmvs	f7, 2, [r1, #-272]!	; 0xfffffef0
     588:	34676552 	strbtcc	r6, [r7], #-1362	; 0xfffffaae
     58c:	5f776800 	svcpl	0x00776800
     590:	6d617264 	sfmvs	f7, 2, [r1, #-400]!	; 0xfffffe70
     594:	6c74635f 	ldclvs	3, cr6, [r4], #-380	; 0xfffffe84
     598:	745f3631 	ldrbvc	r3, [pc], #-1585	; 5a0 <irq_handler+0x51c>
     59c:	50585000 	subspl	r5, r8, r0
     5a0:	5f53415f 	svcpl	0x0053415f
     5a4:	42414e45 	submi	r4, r1, #1104	; 0x450
     5a8:	6800454c 	stmdavs	r0, {r2, r3, r6, r8, sl, lr}
     5ac:	6f635f77 	svcvs	0x00635f77
     5b0:	455f6572 	ldrbmi	r6, [pc, #-1394]	; 46 <reset_handler+0x26>
     5b4:	6c62616e 	stfvse	f6, [r2], #-440	; 0xfffffe48
     5b8:	71724965 	cmnvc	r2, r5, ror #18
     5bc:	65746e49 	ldrbvs	r6, [r4, #-3657]!	; 0xfffff1b7
     5c0:	70757272 	rsbsvc	r7, r5, r2, ror r2
     5c4:	77680074 			; <UNDEFINED> instruction: 0x77680074
     5c8:	696d655f 	stmdbvs	sp!, {r0, r1, r2, r3, r4, r6, r8, sl, sp, lr}^
     5cc:	7465535f 	strbtvc	r5, [r5], #-863	; 0xfffffca1
     5d0:	6f6d654d 	svcvs	0x006d654d
     5d4:	65537972 	ldrbvs	r7, [r3, #-2418]	; 0xfffff68e
     5d8:	6552666c 	ldrbvs	r6, [r2, #-1644]	; 0xfffff994
     5dc:	68736566 	ldmdavs	r3!, {r1, r2, r5, r6, r8, sl, sp, lr}^
     5e0:	6f747541 	svcvs	0x00747541
     5e4:	67616c46 	strbvs	r6, [r1, -r6, asr #24]!
     5e8:	4c415600 	mcrrmi	6, 0, r5, r1, cr0
     5ec:	4c004555 	cfstr32mi	mvfx4, [r0], {85}	; 0x55
     5f0:	4f50574f 	svcmi	0x0050574f
     5f4:	5f524557 	svcpl	0x00524557
     5f8:	544e4f43 	strbpl	r4, [lr], #-3907	; 0xfffff0bd
     5fc:	004c4f52 	subeq	r4, ip, r2, asr pc
     600:	4d323375 	ldcmi	3, cr3, [r2, #-468]!	; 0xfffffe2c
     604:	6f726369 	svcvs	0x00726369
     608:	6f636573 	svcvs	0x00636573
     60c:	0073646e 	rsbseq	r6, r3, lr, ror #8
     610:	65776f50 	ldrbvs	r6, [r7, #-3920]!	; 0xfffff0b0
     614:	73694472 	cmnvc	r9, #1912602624	; 0x72000000
     618:	656c6261 	strbvs	r6, [ip, #-609]!	; 0xfffffd9f
     61c:	6f747541 	svcvs	0x00747541
     620:	64726148 	ldrbtvs	r6, [r2], #-328	; 0xfffffeb8
     624:	65726177 	ldrbvs	r6, [r2, #-375]!	; 0xfffffe89
     628:	65776f50 	ldrbvs	r6, [r7, #-3920]!	; 0xfffff0b0
     62c:	776f6472 			; <UNDEFINED> instruction: 0x776f6472
     630:	7768006e 	strbvc	r0, [r8, -lr, rrx]!
     634:	6b6c635f 	blvs	1b193b8 <__bss_end__+0x1b13278>
     638:	6c727463 	cfldrdvs	mvd7, [r2], #-396	; 0xfffffe74
     63c:	7465535f 	strbtvc	r5, [r5], #-863	; 0xfffffca1
     640:	426b6c43 	rsbmi	r6, fp, #17152	; 0x4300
     644:	73617079 	cmnvc	r1, #121	; 0x79
     648:	77680073 			; <UNDEFINED> instruction: 0x77680073
     64c:	6273755f 	rsbsvs	r7, r3, #398458880	; 0x17c00000
     650:	5f796870 	svcpl	0x00796870
     654:	6c727463 	cfldrdvs	mvd7, [r2], #-396	; 0xfffffe74
     658:	6200745f 	andvs	r7, r0, #1593835520	; 0x5f000000
     65c:	61707942 	cmnvs	r0, r2, asr #18
     660:	49007373 	stmdbmi	r0, {r0, r1, r4, r5, r6, r8, r9, ip, sp, lr}
     664:	4154494e 	cmpmi	r4, lr, asr #18
     668:	00464552 	subeq	r4, r6, r2, asr r5
     66c:	4947544f 	stmdbmi	r7, {r0, r1, r2, r3, r6, sl, ip, lr}^
     670:	54535f44 	ldrbpl	r5, [r3], #-3908	; 0xfffff0bc
     674:	53555441 	cmppl	r5, #1090519040	; 0x41000000
     678:	5f776800 	svcpl	0x00776800
     67c:	5f696d65 	svcpl	0x00696d65
     680:	61736944 	cmnvs	r3, r4, asr #18
     684:	45656c62 	strbmi	r6, [r5, #-3170]!	; 0xfffff39e
     688:	6150696d 	cmpvs	r0, sp, ror #18
     68c:	65654b64 	strbvs	r4, [r5, #-2916]!	; 0xfffff49c
     690:	73726570 	cmnvc	r2, #112, 10	; 0x1c000000
     694:	42484100 	submi	r4, r8, #0, 2
     698:	5f525f33 	svcpl	0x00525f33
     69c:	4f495250 	svcmi	0x00495250
     6a0:	59544952 	ldmdbpl	r4, {r1, r4, r6, r8, fp, lr}^
     6a4:	654e6200 	strbvs	r6, [lr, #-512]	; 0xfffffe00
     6a8:	61745377 	cmnvs	r4, r7, ror r3
     6ac:	44006574 	strmi	r6, [r0], #-1396	; 0xfffffa8c
     6b0:	494d4443 	stmdbmi	sp, {r0, r1, r6, sl, lr}^
     6b4:	7768004d 	strbvc	r0, [r8, -sp, asr #32]!
     6b8:	6b6c635f 	blvs	1b1943c <__bss_end__+0x1b132fc>
     6bc:	6c727463 	cfldrdvs	mvd7, [r2], #-396	; 0xfffffe74
     6c0:	7465535f 	strbtvc	r5, [r5], #-863	; 0xfffffca1
     6c4:	52646650 	rsbpl	r6, r4, #80, 12	; 0x5000000
     6c8:	6d456665 	stclvs	6, cr6, [r5, #-404]	; 0xfffffe6c
     6cc:	74614769 	strbtvc	r4, [r1], #-1897	; 0xfffff897
     6d0:	57500065 	ldrbpl	r0, [r0, -r5, rrx]
     6d4:	425f4e44 	subsmi	r4, pc, #68, 28	; 0x440
     6d8:	554f4e52 	strbpl	r4, [pc, #-3666]	; fffff88e <__bss_end__+0xffff974e>
     6dc:	5f510054 	svcpl	0x00510054
     6e0:	4c4c5546 	cfstr64mi	mvdx5, [ip], {70}	; 0x46
     6e4:	5353454e 	cmppl	r3, #327155712	; 0x13800000
     6e8:	55414200 	strbpl	r4, [r1, #-512]	; 0xfffffe00
     6ec:	49445f44 	stmdbmi	r4, {r2, r6, r8, r9, sl, fp, ip, lr}^
     6f0:	41524656 	cmpmi	r2, r6, asr r6
     6f4:	4d450043 	stclmi	0, cr0, [r5, #-268]	; 0xfffffef4
     6f8:	45445f49 	strbmi	r5, [r4, #-3913]	; 0xfffff0b7
     6fc:	44445f56 	strbmi	r5, [r4], #-3926	; 0xfffff0aa
     700:	45003152 	strmi	r3, [r0, #-338]	; 0xfffffeae
     704:	435f494d 	cmpmi	pc, #1261568	; 0x134000
     708:	315f4b4c 	cmpcc	pc, ip, asr #22
     70c:	484d3032 	stmdami	sp, {r1, r4, r5, ip, sp}^
     710:	4146007a 	hvcmi	24586	; 0x600a
     714:	575f5453 			; <UNDEFINED> instruction: 0x575f5453
     718:	45544952 	ldrbmi	r4, [r4, #-2386]	; 0xfffff6ae
     71c:	574f4c00 	strbpl	r4, [pc, -r0, lsl #24]
     720:	45574f50 	ldrbmi	r4, [r7, #-3920]	; 0xfffff0b0
     724:	55415f52 	strbpl	r5, [r1, #-3922]	; 0xfffff0ae
     728:	455f4f54 	ldrbmi	r4, [pc, #-3924]	; fffff7dc <__bss_end__+0xffff969c>
     72c:	4c42414e 	stfmie	f4, [r2], {78}	; 0x4e
     730:	77680045 	strbvc	r0, [r8, -r5, asr #32]!
     734:	6769645f 			; <UNDEFINED> instruction: 0x6769645f
     738:	5f6c7463 	svcpl	0x006c7463
     73c:	43746547 	cmnmi	r4, #297795584	; 0x11c00000
     740:	65727275 	ldrbvs	r7, [r2, #-629]!	; 0xfffffd8b
     744:	6954746e 	ldmdbvs	r4, {r1, r2, r3, r5, r6, sl, ip, sp, lr}^
     748:	5000656d 	andpl	r6, r0, sp, ror #10
     74c:	435f4457 	cmpmi	pc, #1459617792	; 0x57000000
     750:	47524148 	ldrbmi	r4, [r2, -r8, asr #2]
     754:	50345f45 	eorspl	r5, r4, r5, asr #30
     758:	69700032 	ldmdbvs	r0!, {r1, r4, r5}^
     75c:	72645f6e 	rsbvc	r5, r4, #440	; 0x1b8
     760:	5f657669 	svcpl	0x00657669
     764:	41006563 	tstmi	r0, r3, ror #10
     768:	5f324248 	svcpl	0x00324248
     76c:	4f464946 	svcmi	0x00464946
     770:	5059545f 	subspl	r5, r9, pc, asr r4
     774:	45525f45 	ldrbmi	r5, [r2, #-3909]	; 0xfffff0bb
     778:	524c0047 	subpl	r0, ip, #71	; 0x47
     77c:	35434441 	strbcc	r4, [r3, #-1089]	; 0xfffffbbf
     780:	5152495f 	cmppl	r2, pc, asr r9
     784:	004e455f 	subeq	r4, lr, pc, asr r5
     788:	705f7768 	subsvc	r7, pc, r8, ror #14
     78c:	7265776f 	rsbvc	r7, r5, #29097984	; 0x1bc0000
     790:	6464765f 	strbtvs	r7, [r4], #-1631	; 0xfffff9a1
     794:	72746361 	rsbsvc	r6, r4, #-2080374783	; 0x84000001
     798:	00745f6c 	rsbseq	r5, r4, ip, ror #30
     79c:	43444344 	movtmi	r4, #17220	; 0x4344
     7a0:	4546585f 	strbmi	r5, [r6, #-2143]	; 0xfffff7a1
     7a4:	6e450052 	mcrvs	0, 2, r0, cr5, cr2, {2}
     7a8:	6d695464 	cfstrdvs	mvd5, [r9, #-400]!	; 0xfffffe70
     7ac:	59420065 	stmdbpl	r2, {r0, r2, r5, r6}^
     7b0:	53534150 	cmppl	r3, #80, 2
     7b4:	5550435f 	ldrbpl	r4, [r0, #-863]	; 0xfffffca1
     7b8:	5f776800 	svcpl	0x00776800
     7bc:	6d617264 	sfmvs	f7, 2, [r1, #-400]!	; 0xfffffe70
     7c0:	6c74635f 	ldclvs	3, cr6, [r4], #-380	; 0xfffffe84
     7c4:	745f3430 	ldrbvc	r3, [pc], #-1072	; 7cc <irq_handler+0x748>
     7c8:	69646400 	stmdbvs	r4!, {sl, sp, lr}^
     7cc:	696d655f 	stmdbvs	sp!, {r0, r1, r2, r3, r4, r6, r8, sl, sp, lr}^
     7d0:	746e455f 	strbtvc	r4, [lr], #-1375	; 0xfffffaa1
     7d4:	74537265 	ldrbvc	r7, [r3], #-613	; 0xfffffd9b
     7d8:	63697461 	cmnvs	r9, #1627389952	; 0x61000000
     7dc:	666c6553 			; <UNDEFINED> instruction: 0x666c6553
     7e0:	72666552 	rsbvc	r6, r6, #343932928	; 0x14800000
     7e4:	4d687365 	stclmi	3, cr7, [r8, #-404]!	; 0xfffffe6c
     7e8:	0065646f 	rsbeq	r6, r5, pc, ror #8
     7ec:	645f7768 	ldrbvs	r7, [pc], #-1896	; 7f4 <irq_handler+0x770>
     7f0:	5f6d6172 	svcpl	0x006d6172
     7f4:	74696e49 	strbtvc	r6, [r9], #-3657	; 0xfffff1b7
     7f8:	7264645f 	rsbvc	r6, r4, #1593835520	; 0x5f000000
     7fc:	34746d5f 	ldrbtcc	r6, [r4], #-3423	; 0xfffff2a1
     800:	32337636 	eorscc	r7, r3, #56623104	; 0x3600000
     804:	5f36316d 	svcpl	0x0036316d
     808:	315f7436 	cmpcc	pc, r6, lsr r4	; <UNPREDICTABLE>
     80c:	484d3333 	stmdami	sp, {r0, r1, r4, r5, r8, r9, ip, sp}^
     810:	706f5f7a 	rsbvc	r5, pc, sl, ror pc	; <UNPREDICTABLE>
     814:	696d6974 	stmdbvs	sp!, {r2, r4, r5, r6, r8, fp, sp, lr}^
     818:	0064657a 	rsbeq	r6, r4, sl, ror r5
     81c:	74696e49 	strbtvc	r6, [r9], #-3657	; 0xfffff1b7
     820:	65776f50 	ldrbvs	r6, [r7, #-3920]!	; 0xfffff0b0
     824:	4c440072 	mcrrmi	0, 7, r0, r4, cr2
     828:	434f4c4c 	movtmi	r4, #64588	; 0xfc4c
     82c:	4745524b 	strbmi	r5, [r5, -fp, asr #4]
     830:	5f776800 	svcpl	0x00776800
     834:	6d617264 	sfmvs	f7, 2, [r1, #-400]!	; 0xfffffe70
     838:	6c74635f 	ldclvs	3, cr6, [r4], #-380	; 0xfffffe84
     83c:	745f3932 	ldrbvc	r3, [pc], #-2354	; 844 <irq_handler+0x7c0>
     840:	49454f00 	stmdbmi	r5, {r8, r9, sl, fp, lr}^
     844:	5043004d 	subpl	r0, r3, sp, asr #32
     848:	4e495f55 	mcrmi	15, 2, r5, cr9, cr5, {2}
     84c:	5f525453 	svcpl	0x00525453
     850:	455f5341 	ldrbmi	r5, [pc, #-833]	; 517 <irq_handler+0x493>
     854:	4c42414e 	stfmie	f4, [r2], {78}	; 0x4e
     858:	65720045 	ldrbvs	r0, [r2, #-69]!	; 0xffffffbb
     85c:	5f323367 	svcpl	0x00323367
     860:	58540074 	ldmdapl	r4, {r2, r4, r5, r6}^
     864:	534c4649 	movtpl	r4, #50761	; 0xc649
     868:	68004c45 	stmdavs	r0, {r0, r2, r6, sl, fp, lr}
     86c:	6d655f77 	stclvs	15, cr5, [r5, #-476]!	; 0xfffffe24
     870:	73495f69 	movtvc	r5, #40809	; 0x9f69
     874:	6d617244 	sfmvs	f7, 2, [r1, #-272]!	; 0xfffffef0
     878:	70707553 	rsbsvc	r7, r0, r3, asr r5
     87c:	6574726f 	ldrbvs	r7, [r4, #-623]!	; 0xfffffd91
     880:	52540064 	subspl	r0, r4, #100	; 0x64
     884:	64004645 	strvs	r4, [r0], #-1605	; 0xfffff9bb
     888:	655f6964 	ldrbvs	r6, [pc, #-2404]	; ffffff2c <__bss_end__+0xffff9dec>
     88c:	505f696d 	subspl	r6, pc, sp, ror #18
     890:	61706572 	cmnvs	r0, r2, ror r5
     894:	6f466572 	svcvs	0x00466572
     898:	61724472 	cmnvs	r2, r2, ror r4
     89c:	6c65536d 	stclvs	3, cr5, [r5], #-436	; 0xfffffe4c
     8a0:	66655266 	strbtvs	r5, [r5], -r6, ror #4
     8a4:	68736572 	ldmdavs	r3!, {r1, r4, r5, r6, r8, sl, sp, lr}^
     8a8:	65646f4d 	strbvs	r6, [r4, #-3917]!	; 0xfffff0b3
     8ac:	75416200 	strbvc	r6, [r1, #-512]	; 0xfffffe00
     8b0:	654d6f74 	strbvs	r6, [sp, #-3956]	; 0xfffff08c
     8b4:	79726f6d 	ldmdbvc	r2!, {r0, r2, r3, r5, r6, r8, r9, sl, fp, sp, lr}^
     8b8:	636f6c43 	cmnvs	pc, #17152	; 0x4300
     8bc:	7461476b 	strbtvc	r4, [r1], #-1899	; 0xfffff895
     8c0:	646f4d65 	strbtvs	r4, [pc], #-3429	; 8c8 <irq_handler+0x844>
     8c4:	616e4565 	cmnvs	lr, r5, ror #10
     8c8:	64656c62 	strbtvs	r6, [r5], #-3170	; 0xfffff39e
     8cc:	4b4c4300 	blmi	13114d4 <__bss_end__+0x130b394>
     8d0:	45544147 	ldrbmi	r4, [r4, #-327]	; 0xfffffeb9
     8d4:	52004f49 	andpl	r4, r0, #292	; 0x124
     8d8:	4e455354 	mcrmi	3, 2, r5, cr5, cr4, {2}
     8dc:	5f776800 	svcpl	0x00776800
     8e0:	63676964 	cmnvs	r7, #100, 18	; 0x190000
     8e4:	435f6c74 	cmpmi	pc, #116, 24	; 0x7400
     8e8:	6b636568 	blvs	18d9e90 <__bss_end__+0x18d3d50>
     8ec:	656d6954 	strbvs	r6, [sp, #-2388]!	; 0xfffff6ac
     8f0:	0074754f 	rsbseq	r7, r4, pc, asr #10
     8f4:	5f494d45 	svcpl	0x00494d45
     8f8:	5f564544 	svcpl	0x00564544
     8fc:	49424f4d 	stmdbmi	r2, {r0, r2, r3, r6, r8, r9, sl, fp, lr}^
     900:	535f454c 	cmppl	pc, #76, 10	; 0x13000000
     904:	4d415244 	sfmmi	f5, 2, [r1, #-272]	; 0xfffffef0
     908:	77685f00 	strbvc	r5, [r8, -r0, lsl #30]!
     90c:	696d655f 	stmdbvs	sp!, {r0, r1, r2, r3, r4, r6, r8, sl, sp, lr}^
     910:	6d654d5f 	stclvs	13, cr4, [r5, #-380]!	; 0xfffffe84
     914:	65707954 	ldrbvs	r7, [r0, #-2388]!	; 0xfffff6ac
     918:	4300745f 	movwmi	r7, #1119	; 0x45f
     91c:	41474b4c 	cmpmi	r7, ip, asr #22
     920:	4d454554 	cfstr64mi	mvdx4, [r5, #-336]	; 0xfffffeb0
     924:	44530049 	ldrbmi	r0, [r3], #-73	; 0xffffffb7
     928:	4f4d5f52 	svcmi	0x004d5f52
     92c:	48004544 	stmdami	r0, {r2, r6, r8, sl, lr}
     930:	5f484749 	svcpl	0x00484749
     934:	4f495250 	svcmi	0x00495250
     938:	59544952 	ldmdbpl	r4, {r1, r4, r6, r8, fp, lr}^
     93c:	4952575f 	ldmdbmi	r2, {r0, r1, r2, r3, r4, r6, r8, r9, sl, ip, lr}^
     940:	50004554 	andpl	r4, r0, r4, asr r5
     944:	4543414c 	strbmi	r4, [r3, #-332]	; 0xfffffeb4
     948:	544e454d 	strbpl	r4, [lr], #-1357	; 0xfffffab3
     94c:	004e455f 	subeq	r4, lr, pc, asr r5
     950:	4e535854 	mrcmi	8, 2, r5, cr3, cr4, {2}
     954:	77680052 			; <UNDEFINED> instruction: 0x77680052
     958:	6b6c635f 	blvs	1b196dc <__bss_end__+0x1b1359c>
     95c:	6c727463 	cfldrdvs	mvd7, [r2], #-396	; 0xfffffe74
     960:	7465535f 	strbtvc	r5, [r5], #-863	; 0xfffffca1
     964:	43696d45 	cmnmi	r9, #4416	; 0x1140
     968:	65526b6c 	ldrbvs	r6, [r2, #-2924]	; 0xfffff494
     96c:	696d4566 	stmdbvs	sp!, {r1, r2, r5, r6, r8, sl, lr}^
     970:	00766944 	rsbseq	r6, r6, r4, asr #18
     974:	42414e45 	submi	r4, r1, #1104	; 0x450
     978:	345f454c 	ldrbcc	r4, [pc], #-1356	; 980 <irq_handler+0x8fc>
     97c:	45003250 	strmi	r3, [r0, #-592]	; 0xfffffdb0
     980:	435f494d 	cmpmi	pc, #1261568	; 0x134000
     984:	395f4b4c 	ldmdbcc	pc, {r2, r3, r6, r8, r9, fp, lr}^	; <UNPREDICTABLE>
     988:	7a484d36 	bvc	1213e68 <__bss_end__+0x120dd28>
     98c:	53455300 	movtpl	r5, #21248	; 0x5300
     990:	444e4553 	strbmi	r4, [lr], #-1363	; 0xfffffaad
     994:	4154535f 	cmpmi	r4, pc, asr r3
     998:	00535554 	subseq	r5, r3, r4, asr r5
     99c:	755f7768 	ldrbvc	r7, [pc, #-1896]	; 23c <irq_handler+0x1b8>
     9a0:	64747261 	ldrbtvs	r7, [r4], #-609	; 0xfffffd9f
     9a4:	6d696762 	stclvs	7, cr6, [r9, #-392]!	; 0xfffffe78
     9a8:	745f6373 	ldrbvc	r6, [pc], #-883	; 9b0 <irq_handler+0x92c>
     9ac:	5f525700 	svcpl	0x00525700
     9b0:	5f535144 	svcpl	0x00535144
     9b4:	46494853 			; <UNDEFINED> instruction: 0x46494853
     9b8:	65720054 	ldrbvs	r0, [r2, #-84]!	; 0xffffffac
     9bc:	745f3867 	ldrbvc	r3, [pc], #-2151	; 9c4 <irq_handler+0x940>
     9c0:	494c4900 	stmdbmi	ip, {r8, fp, lr}^
     9c4:	5f54494d 	svcpl	0x0054494d
     9c8:	5a5f5145 	bpl	17d4ee4 <__bss_end__+0x17ceda4>
     9cc:	004f5245 	subeq	r5, pc, r5, asr #4
     9d0:	54495257 	strbpl	r5, [r9], #-599	; 0xfffffda9
     9d4:	52505f45 	subspl	r5, r0, #276	; 0x114
     9d8:	4345544f 	movtmi	r5, #21583	; 0x544f
     9dc:	56420054 			; <UNDEFINED> instruction: 0x56420054
     9e0:	44494c41 	strbmi	r4, [r9], #-3137	; 0xfffff3bf
     9e4:	625f7300 	subsvs	r7, pc, #0, 6
     9e8:	74746142 	ldrbtvc	r6, [r4], #-322	; 0xfffffebe
     9ec:	00797265 	rsbseq	r7, r9, r5, ror #4
     9f0:	42414e45 	submi	r4, r1, #1104	; 0x450
     9f4:	445f454c 	ldrbmi	r4, [pc], #-1356	; 9fc <irq_handler+0x978>
     9f8:	00434443 	subeq	r4, r3, r3, asr #8
     9fc:	5f696464 	svcpl	0x00696464
     a00:	5f696d65 	svcpl	0x00696d65
     a04:	72617453 	rsbvc	r7, r1, #1392508928	; 0x53000000
     a08:	67694874 			; <UNDEFINED> instruction: 0x67694874
     a0c:	75704368 	ldrbvc	r4, [r0, #-872]!	; 0xfffffc98
     a10:	6f697250 	svcvs	0x00697250
     a14:	79746972 	ldmdbvc	r4!, {r1, r4, r5, r6, r8, fp, sp, lr}^
     a18:	53455200 	movtpl	r5, #20992	; 0x5200
     a1c:	45565245 	ldrbmi	r5, [r6, #-581]	; 0xfffffdbb
     a20:	52540044 	subspl	r0, r4, #68	; 0x44
     a24:	4d5f5341 	ldclmi	3, cr5, [pc, #-260]	; 928 <irq_handler+0x8a4>
     a28:	54005841 	strpl	r5, [r0], #-2113	; 0xfffff7bf
     a2c:	004c4144 	subeq	r4, ip, r4, asr #2
     a30:	45545349 	ldrbmi	r5, [r4, #-841]	; 0xfffffcb7
     a34:	545f4c41 	ldrbpl	r4, [pc], #-3137	; a3c <irq_handler+0x9b8>
     a38:	53455248 	movtpl	r5, #21064	; 0x5248
     a3c:	6f500048 	svcvs	0x00500048
     a40:	45726577 	ldrbmi	r6, [r2, #-1399]!	; 0xfffffa89
     a44:	75636578 	strbvc	r6, [r3, #-1400]!	; 0xfffffa88
     a48:	56356574 			; <UNDEFINED> instruction: 0x56356574
     a4c:	73746c6f 	cmnvc	r4, #28416	; 0x6f00
     a50:	61426f54 	cmpvs	r2, r4, asr pc
     a54:	72657474 	rsbvc	r7, r5, #116, 8	; 0x74000000
     a58:	6e614879 	mcrvs	8, 3, r4, cr1, cr9, {3}
     a5c:	66666f64 	strbtvs	r6, [r6], -r4, ror #30
     a60:	544e4900 	strbpl	r4, [lr], #-2304	; 0xfffff700
     a64:	53414d5f 	movtpl	r4, #7519	; 0x1d5f
     a68:	6464004b 	strbtvs	r0, [r4], #-75	; 0xffffffb5
     a6c:	6d655f69 	stclvs	15, cr5, [r5, #-420]!	; 0xfffffe5c
     a70:	78455f69 	stmdavc	r5, {r0, r3, r5, r6, r8, r9, sl, fp, ip, lr}^
     a74:	74537469 	ldrbvc	r7, [r3], #-1129	; 0xfffffb97
     a78:	63697461 	cmnvs	r9, #1627389952	; 0x61000000
     a7c:	666c6553 			; <UNDEFINED> instruction: 0x666c6553
     a80:	72666552 	rsbvc	r6, r6, #343932928	; 0x14800000
     a84:	4d687365 	stclmi	3, cr7, [r8, #-404]!	; 0xfffffe6c
     a88:	0065646f 	rsbeq	r6, r5, pc, ror #8
     a8c:	44565352 	ldrbmi	r5, [r6], #-850	; 0xfffffcae
     a90:	53520030 	cmppl	r2, #48	; 0x30
     a94:	00314456 	eorseq	r4, r1, r6, asr r4
     a98:	44565352 	ldrbmi	r5, [r6], #-850	; 0xfffffcae
     a9c:	53520032 	cmppl	r2, #50	; 0x32
     aa0:	00334456 	eorseq	r4, r3, r6, asr r4
     aa4:	44565352 	ldrbmi	r5, [r6], #-850	; 0xfffffcae
     aa8:	77680034 			; <UNDEFINED> instruction: 0x77680034
     aac:	776f705f 			; <UNDEFINED> instruction: 0x776f705f
     ab0:	625f7265 	subsvs	r7, pc, #1342177286	; 0x50000006
     ab4:	6d747461 	cfldrdvs	mvd7, [r4, #-388]!	; 0xfffffe7c
     ab8:	74696e6f 	strbtvc	r6, [r9], #-3695	; 0xfffff191
     abc:	745f726f 	ldrbvc	r7, [pc], #-623	; ac4 <irq_handler+0xa40>
     ac0:	65526900 	ldrbvs	r6, [r2, #-2304]	; 0xfffff700
     ac4:	6e727574 	mrcvs	5, 3, r7, cr2, cr4, {3}
     ac8:	756c6156 	strbvc	r6, [ip, #-342]!	; 0xfffffeaa
     acc:	4e450065 	cdpmi	0, 4, cr0, cr5, cr5, {3}
     ad0:	574f4c5f 	smlsldpl	r4, pc, pc, ip	; <UNPREDICTABLE>
     ad4:	45574f50 	ldrbmi	r4, [r7, #-3920]	; 0xfffff0b0
     ad8:	4f4d5f52 	svcmi	0x004d5f52
     adc:	44004544 	strmi	r4, [r0], #-1348	; 0xfffffabc
     ae0:	5f415441 	svcpl	0x00415441
     ae4:	4c5f4e4f 	mrrcmi	14, 4, r4, pc, cr15	; <UNPREDICTABLE>
     ae8:	43444152 	movtmi	r4, #16722	; 0x4152
     aec:	5f776800 	svcpl	0x00776800
     af0:	6d617264 	sfmvs	f7, 2, [r1, #-400]!	; 0xfffffe70
     af4:	6c74635f 	ldclvs	3, cr6, [r4], #-380	; 0xfffffe84
     af8:	745f3231 	ldrbvc	r3, [pc], #-561	; b00 <irq_handler+0xa7c>
     afc:	4e495000 	cdpmi	0, 4, cr5, cr9, cr0, {0}
     b00:	4952445f 	ldmdbmi	r2, {r0, r1, r2, r3, r4, r6, sl, lr}^
     b04:	315f4556 	cmpcc	pc, r6, asr r5	; <UNPREDICTABLE>
     b08:	00416d36 	subeq	r6, r1, r6, lsr sp
     b0c:	6e727554 	mrcvs	5, 3, r7, cr2, cr4, {2}
     b10:	4c506e4f 	mrrcmi	14, 4, r6, r0, cr15
     b14:	6f6c434c 	svcvs	0x006c434c
     b18:	44006b63 	strmi	r6, [r0], #-2915	; 0xfffff49d
     b1c:	42415349 	submi	r5, r1, #603979777	; 0x24000001
     b20:	465f454c 	ldrbmi	r4, [pc], -ip, asr #10
     b24:	44005445 	strmi	r5, [r0], #-1093	; 0xfffffbbb
     b28:	535f4c4c 	cmppl	pc, #76, 24	; 0x4c00
     b2c:	54464948 	strbpl	r4, [r6], #-2376	; 0xfffff6b8
     b30:	5345525f 	movtpl	r5, #21087	; 0x525f
     b34:	68005445 	stmdavs	r0, {r0, r2, r6, sl, ip, lr}
     b38:	72645f77 	rsbvc	r5, r4, #476	; 0x1dc
     b3c:	635f6d61 	cmpvs	pc, #6208	; 0x1840
     b40:	37316c74 			; <UNDEFINED> instruction: 0x37316c74
     b44:	7000745f 	andvc	r7, r0, pc, asr r4
     b48:	645f6e69 	ldrbvs	r6, [pc], #-3689	; b50 <irq_handler+0xacc>
     b4c:	65766972 	ldrbvs	r6, [r6, #-2418]!	; 0xfffff68e
     b50:	7461645f 	strbtvc	r6, [r1], #-1119	; 0xfffffba1
     b54:	77680061 	strbvc	r0, [r8, -r1, rrx]!
     b58:	6172645f 	cmnvs	r2, pc, asr r4
     b5c:	74635f6d 	strbtvc	r5, [r3], #-3949	; 0xfffff093
     b60:	5f32336c 	svcpl	0x0032336c
     b64:	4f420074 	svcmi	0x00420074
     b68:	46464f5f 			; <UNDEFINED> instruction: 0x46464f5f
     b6c:	00544553 	subseq	r4, r4, r3, asr r5
     b70:	6b6c4362 	blvs	1b11900 <__bss_end__+0x1b0b7c0>
     b74:	65746147 	ldrbvs	r6, [r4, #-327]!	; 0xfffffeb9
     b78:	57524200 	ldrbpl	r4, [r2, -r0, lsl #4]
     b7c:	54554f4e 	ldrbpl	r4, [r5], #-3918	; 0xfffff0b2
     b80:	4457505f 	ldrbmi	r5, [r7], #-95	; 0xffffffa1
     b84:	63696d00 	cmnvs	r9, #0, 26
     b88:	65536f72 	ldrbvs	r6, [r3, #-3954]	; 0xfffff08e
     b8c:	414d0063 	cmpmi	sp, r3, rrx
     b90:	53435f58 	movtpl	r5, #16216	; 0x3f58
     b94:	4745525f 	smlsldmi	r5, r5, pc, r2	; <UNPREDICTABLE>
     b98:	52495300 	subpl	r5, r9, #0, 6
     b9c:	41004e45 	tstmi	r0, r5, asr #28
     ba0:	494c4156 	stmdbmi	ip, {r1, r2, r4, r6, r8, lr}^
     ba4:	454d0044 	strbmi	r0, [sp, #-68]	; 0xffffffbc
     ba8:	49575f4d 	ldmdbmi	r7, {r0, r2, r3, r6, r8, r9, sl, fp, ip, lr}^
     bac:	00485444 	subeq	r5, r8, r4, asr #8
     bb0:	46494d45 	strbmi	r4, [r9], -r5, asr #26
     bb4:	00434152 	subeq	r4, r3, r2, asr r1
     bb8:	655f7768 	ldrbvs	r7, [pc, #-1896]	; 458 <irq_handler+0x3d4>
     bbc:	535f696d 	cmppl	pc, #1785856	; 0x1b4000
     bc0:	654d7465 	strbvs	r7, [sp, #-1125]	; 0xfffffb9b
     bc4:	79726f6d 	ldmdbvc	r2!, {r0, r2, r3, r5, r6, r8, r9, sl, fp, sp, lr}^
     bc8:	636f6c43 	cmnvs	pc, #17152	; 0x4300
     bcc:	7461476b 	strbtvc	r4, [r1], #-1899	; 0xfffff895
     bd0:	74754165 	ldrbtvc	r4, [r5], #-357	; 0xfffffe9b
     bd4:	616c466f 	cmnvs	ip, pc, ror #12
     bd8:	51440067 	cmppl	r4, r7, rrx
     bdc:	554f5f53 	strbpl	r5, [pc, #-3923]	; fffffc91 <__bss_end__+0xffff9b51>
     be0:	48535f54 	ldmdami	r3, {r2, r4, r6, r8, r9, sl, fp, ip, lr}^
     be4:	00544649 	subseq	r4, r4, r9, asr #12
     be8:	6d617244 	sfmvs	f7, 2, [r1, #-272]!	; 0xfffffef0
     bec:	31676552 	cmncc	r7, r2, asr r5
     bf0:	4c430039 	mcrrmi	0, 3, r0, r3, cr9
     bf4:	5441474b 	strbpl	r4, [r1], #-1867	; 0xfffff8b5
     bf8:	58495045 	stmdapl	r9, {r0, r2, r6, ip, lr}^
     bfc:	554f5400 	strbpl	r5, [pc, #-1024]	; 804 <irq_handler+0x780>
     c00:	445f4843 	ldrbmi	r4, [pc], #-2115	; c08 <irq_handler+0xb84>
     c04:	43455445 	movtmi	r5, #21573	; 0x5445
     c08:	52495f54 	subpl	r5, r9, #84, 30	; 0x150
     c0c:	4e455f51 	mcrmi	15, 2, r5, cr5, cr1, {2}
     c10:	56454400 	strbpl	r4, [r5], -r0, lsl #8
     c14:	47554c50 			; <UNDEFINED> instruction: 0x47554c50
     c18:	535f4e49 	cmppl	pc, #1168	; 0x490
     c1c:	55544154 	ldrbpl	r4, [r4, #-340]	; 0xfffffeac
     c20:	50540053 	subspl	r0, r4, r3, asr r0
     c24:	72446e69 	subvc	r6, r4, #1680	; 0x690
     c28:	00657669 	rsbeq	r7, r5, r9, ror #12
     c2c:	705f7768 	subsvc	r7, pc, r8, ror #14
     c30:	7265776f 	rsbvc	r7, r5, #29097984	; 0x1bc0000
     c34:	6464765f 	strbtvs	r7, [r4], #-1631	; 0xfffff9a1
     c38:	72746364 	rsbsvc	r6, r4, #100, 6	; 0x90000001
     c3c:	00745f6c 	rsbseq	r5, r4, ip, ror #30
     c40:	635f7768 	cmpvs	pc, #104, 14	; 0x1a00000
     c44:	74636b6c 	strbtvc	r6, [r3], #-2924	; 0xfffff494
     c48:	635f6c72 	cmpvs	pc, #29184	; 0x7200
     c4c:	65736b6c 	ldrbvs	r6, [r3, #-2924]!	; 0xfffff494
     c50:	00745f71 	rsbseq	r5, r4, r1, ror pc
     c54:	776f4c62 	strbvc	r4, [pc, -r2, ror #24]!
     c58:	41646650 	cmnmi	r4, r0, asr r6
     c5c:	776f6c6c 	strbvc	r6, [pc, -ip, ror #24]!
     c60:	44006465 	strmi	r6, [r0], #-1125	; 0xfffffb9b
     c64:	525f4c4c 	subspl	r4, pc, #76, 24	; 0x4c00
     c68:	54455345 	strbpl	r5, [r5], #-837	; 0xfffffcbb
     c6c:	6e697000 	cdpvs	0, 6, cr7, cr9, cr0, {0}
     c70:	6972645f 	ldmdbvs	r2!, {r0, r1, r2, r3, r4, r6, sl, sp, lr}^
     c74:	635f6576 	cmpvs	pc, #494927872	; 0x1d800000
     c78:	44006b6c 	strmi	r6, [r0], #-2924	; 0xfffff494
     c7c:	4f5f5351 	svcmi	0x005f5351
     c80:	535f5455 	cmppl	pc, #1426063360	; 0x55000000
     c84:	54464948 	strbpl	r4, [r6], #-2376	; 0xfffff6b8
     c88:	5059425f 	subspl	r4, r9, pc, asr r2
     c8c:	00535341 	subseq	r5, r3, r1, asr #6
     c90:	49575350 	ldmdbmi	r7, {r4, r6, r8, r9, ip, lr}^
     c94:	00484354 	subeq	r4, r8, r4, asr r3
     c98:	645f7768 	ldrbvs	r7, [pc], #-1896	; ca0 <irq_handler+0xc1c>
     c9c:	5f6d6172 	svcpl	0x006d6172
     ca0:	74696e49 	strbtvc	r6, [r9], #-3657	; 0xfffff1b7
     ca4:	626f6d5f 	rsbvs	r6, pc, #6080	; 0x17c0
     ca8:	5f656c69 	svcpl	0x00656c69
     cac:	5f726464 	svcpl	0x00726464
     cb0:	3634746d 	ldrtcc	r7, [r4], -sp, ror #8
     cb4:	6d323368 	ldcvs	3, cr3, [r2, #-416]!	; 0xfffffe60
     cb8:	666c3631 			; <UNDEFINED> instruction: 0x666c3631
     cbc:	725f355f 	subsvc	r3, pc, #398458880	; 0x17c00000
     cc0:	5f736765 	svcpl	0x00736765
     cc4:	33315f33 	teqcc	r1, #51, 30	; 0xcc
     cc8:	7a484d33 	bvc	121419c <__bss_end__+0x120e05c>
     ccc:	494d4500 	stmdbmi	sp, {r8, sl, lr}^
     cd0:	5645445f 			; <UNDEFINED> instruction: 0x5645445f
     cd4:	5244535f 	subpl	r5, r4, #2080374785	; 0x7c000001
     cd8:	43004d41 	movwmi	r4, #3393	; 0xd41
     cdc:	4d554c4f 	ldclmi	12, cr4, [r5, #-316]	; 0xfffffec4
     ce0:	49535f4e 	ldmdbmi	r3, {r1, r2, r3, r6, r8, r9, sl, fp, ip, lr}^
     ce4:	4f00455a 	svcmi	0x0000455a
     ce8:	72574d45 	subsvc	r4, r7, #4416	; 0x1140
     cec:	44657469 	strbtmi	r7, [r5], #-1129	; 0xfffffb97
     cf0:	67756265 	ldrbvs	r6, [r5, -r5, ror #4]!
     cf4:	65747942 	ldrbvs	r7, [r4, #-2370]!	; 0xfffff6be
     cf8:	55425600 	strbpl	r5, [r2, #-1536]	; 0xfffffa00
     cfc:	4f524453 	svcmi	0x00524453
     d00:	545f504f 	ldrbpl	r5, [pc], #-79	; d08 <irq_handler+0xc84>
     d04:	00485352 	subeq	r5, r8, r2, asr r3
     d08:	5f494d45 	svcpl	0x00494d45
     d0c:	5f4b4c43 	svcpl	0x004b4c43
     d10:	0046464f 	subeq	r4, r6, pc, asr #12
     d14:	5f4c4c44 	svcpl	0x004c4c44
     d18:	5f535144 	svcpl	0x00535144
     d1c:	414c4544 	cmpmi	ip, r4, asr #10
     d20:	00305f59 	eorseq	r5, r0, r9, asr pc
     d24:	5f4c4c44 	svcpl	0x004c4c44
     d28:	5f535144 	svcpl	0x00535144
     d2c:	414c4544 	cmpmi	ip, r4, asr #10
     d30:	00315f59 	eorseq	r5, r1, r9, asr pc
     d34:	4441524c 	strbmi	r5, [r1], #-588	; 0xfffffdb4
     d38:	495f3343 	ldmdbmi	pc, {r0, r1, r6, r8, r9, ip, sp}^	; <UNPREDICTABLE>
     d3c:	455f5152 	ldrbmi	r5, [pc, #-338]	; bf2 <irq_handler+0xb6e>
     d40:	6464004e 	strbtvs	r0, [r4], #-78	; 0xffffffb2
     d44:	6c635f69 	stclvs	15, cr5, [r3], #-420	; 0xfffffe5c
     d48:	736b636f 	cmnvc	fp, #-1140850687	; 0xbc000001
     d4c:	65654b5f 	strbvs	r4, [r5, #-2911]!	; 0xfffff4a1
     d50:	6c6c5070 	stclvs	0, cr5, [ip], #-448	; 0xfffffe40
     d54:	65776f50 	ldrbvs	r6, [r7, #-3920]!	; 0xfffff0b0
     d58:	00646572 	rsbeq	r6, r4, r2, ror r5
     d5c:	5f494d45 	svcpl	0x00494d45
     d60:	5f4b4c43 	svcpl	0x004b4c43
     d64:	4d313531 	cfldr32mi	mvfx3, [r1, #-196]!	; 0xffffff3c
     d68:	5f007a48 	svcpl	0x00007a48
     d6c:	635f7768 	cmpvs	pc, #104, 14	; 0x1a00000
     d70:	74636b6c 	strbtvc	r6, [r3], #-2924	; 0xfffff494
     d74:	625f6c72 	subsvs	r6, pc, #29184	; 0x7200
     d78:	73617079 	cmnvc	r1, #121	; 0x79
     d7c:	6c635f73 	stclvs	15, cr5, [r3], #-460	; 0xfffffe34
     d80:	00745f6b 	rsbseq	r5, r4, fp, ror #30
     d84:	645f7768 	ldrbvs	r7, [pc], #-1896	; d8c <irq_handler+0xd08>
     d88:	5f6d6172 	svcpl	0x006d6172
     d8c:	74696e49 	strbtvc	r6, [r9], #-3657	; 0xfffff1b7
     d90:	626f6d5f 	rsbvs	r6, pc, #6080	; 0x17c0
     d94:	5f656c69 	svcpl	0x00656c69
     d98:	5f726464 	svcpl	0x00726464
     d9c:	3634746d 	ldrtcc	r7, [r4], -sp, ror #8
     da0:	6d323368 	ldcvs	3, cr3, [r2, #-416]!	; 0xfffffe60
     da4:	666c3631 			; <UNDEFINED> instruction: 0x666c3631
     da8:	725f355f 	subsvc	r3, pc, #398458880	; 0x17c00000
     dac:	5f736765 	svcpl	0x00736765
     db0:	36315f33 	shasxcc	r5, r1, r3
     db4:	7a484d30 	bvc	121427c <__bss_end__+0x120e13c>
     db8:	52575400 	subspl	r5, r7, #0, 8
     dbc:	544e495f 	strbpl	r4, [lr], #-2399	; 0xfffff6a1
     dc0:	42484100 	submi	r4, r8, #0, 2
     dc4:	5f575f31 	svcpl	0x00575f31
     dc8:	4f495250 	svcmi	0x00495250
     dcc:	59544952 	ldmdbpl	r4, {r1, r4, r6, r8, fp, lr}^
     dd0:	74536200 	ldrbvc	r6, [r3], #-512	; 0xfffffe00
     dd4:	63697461 	cmnvs	r9, #1627389952	; 0x61000000
     dd8:	6f6d654d 	svcvs	0x006d654d
     ddc:	6c437972 	mcrrvs	9, 7, r7, r3, cr2
     de0:	476b636f 	strbmi	r6, [fp, -pc, ror #6]!
     de4:	4d657461 	cfstrdmi	mvd7, [r5, #-388]!	; 0xfffffe7c
     de8:	4565646f 	strbmi	r6, [r5, #-1135]!	; 0xfffffb91
     dec:	6c62616e 	stfvse	f6, [r2], #-440	; 0xfffffe48
     df0:	4c006465 	cfstrsmi	mvf6, [r0], {101}	; 0x65
     df4:	43444152 	movtmi	r4, #16722	; 0x4152
     df8:	52495f32 	subpl	r5, r9, #50, 30	; 0xc8
     dfc:	77680051 			; <UNDEFINED> instruction: 0x77680051
     e00:	6172645f 	cmnvs	r2, pc, asr r4
     e04:	74635f6d 	strbtvc	r5, [r3], #-3949	; 0xfffff093
     e08:	5f35306c 	svcpl	0x0035306c
     e0c:	44410074 	strbmi	r0, [r1], #-116	; 0xffffff8c
     e10:	505f5244 	subspl	r5, pc, r4, asr #4
     e14:	00534e49 	subseq	r4, r3, r9, asr #28
     e18:	41505942 	cmpmi	r0, r2, asr #18
     e1c:	475f5353 			; <UNDEFINED> instruction: 0x475f5353
     e20:	00494d50 	subeq	r4, r9, r0, asr sp
     e24:	645f7768 	ldrbvs	r7, [pc], #-1896	; e2c <irq_handler+0xda8>
     e28:	5f6d6172 	svcpl	0x006d6172
     e2c:	326c7463 	rsbcc	r7, ip, #1660944384	; 0x63000000
     e30:	00745f30 	rsbseq	r5, r4, r0, lsr pc
     e34:	454b4354 	strbmi	r4, [fp, #-852]	; 0xfffffcac
     e38:	494d4500 	stmdbmi	sp, {r8, sl, lr}^
     e3c:	4d34365f 	ldcmi	6, cr3, [r4, #-380]!	; 0xfffffe84
     e40:	52445f42 	subpl	r5, r4, #264	; 0x108
     e44:	62004d41 	andvs	r4, r0, #4160	; 0x1040
     e48:	62616e45 	rsbvs	r6, r1, #1104	; 0x450
     e4c:	6d00656c 	cfstr32vs	mvfx6, [r0, #-432]	; 0xfffffe50
     e50:	006b7361 	rsbeq	r7, fp, r1, ror #6
     e54:	645f7768 	ldrbvs	r7, [pc], #-1896	; e5c <irq_handler+0xdd8>
     e58:	5f6d6172 	svcpl	0x006d6172
     e5c:	346c7463 	strbtcc	r7, [ip], #-1123	; 0xfffffb9d
     e60:	00745f30 	rsbseq	r5, r4, r0, lsr pc
     e64:	4e445750 	mcrmi	7, 2, r5, cr4, cr0, {2}
     e68:	4256355f 	subsmi	r3, r6, #398458880	; 0x17c00000
     e6c:	554f4e52 	strbpl	r4, [pc, #-3666]	; 22 <reset_handler+0x2>
     e70:	4e450054 	mcrmi	0, 2, r0, cr5, cr4, {2}
     e74:	50564544 	subspl	r4, r6, r4, asr #10
     e78:	4947554c 	stmdbmi	r7, {r2, r3, r6, r8, sl, ip, lr}^
     e7c:	5445444e 	strbpl	r4, [r5], #-1102	; 0xfffffbb2
     e80:	00544345 	subseq	r4, r4, r5, asr #6
     e84:	655f7768 	ldrbvs	r7, [pc, #-1896]	; 724 <irq_handler+0x6a0>
     e88:	435f696d 	cmpmi	pc, #1785856	; 0x1b4000
     e8c:	6b636f6c 	blvs	18dcc44 <__bss_end__+0x18d6b04>
     e90:	65706544 	ldrbvs	r6, [r0, #-1348]!	; 0xfffffabc
     e94:	6e65646e 	cdpvs	4, 6, cr6, cr5, cr14, {3}
     e98:	67655274 			; <UNDEFINED> instruction: 0x67655274
     e9c:	49500073 	ldmdbmi	r0, {r0, r1, r4, r5, r6}^
     ea0:	52445f4e 	subpl	r5, r4, #312	; 0x138
     ea4:	5f455649 	svcpl	0x00455649
     ea8:	00416d34 	subeq	r6, r1, r4, lsr sp
     eac:	50415254 	subpl	r5, r1, r4, asr r2
     eb0:	494e495f 	stmdbmi	lr, {r0, r1, r2, r3, r4, r6, r8, fp, lr}^
     eb4:	44560054 	ldrbmi	r0, [r6], #-84	; 0xffffffac
     eb8:	425f4444 	subsmi	r4, pc, #68, 8	; 0x44000000
     ebc:	5343004f 	movtpl	r0, #12367	; 0x304f
     ec0:	50414d5f 	subpl	r4, r1, pc, asr sp
     ec4:	52504100 	subspl	r4, r0, #0, 2
     ec8:	54494245 	strbpl	r4, [r9], #-581	; 0xfffffdbb
     ecc:	69646400 	stmdbvs	r4!, {sl, sp, lr}^
     ed0:	696d655f 	stmdbvs	sp!, {r0, r1, r2, r3, r4, r6, r8, sl, sp, lr}^
     ed4:	7261765f 	rsbvc	r7, r1, #99614720	; 0x5f00000
     ed8:	61745f73 	cmnvs	r4, r3, ror pc
     edc:	52540067 	subspl	r0, r4, #103	; 0x67
     ee0:	495f4443 	ldmdbmi	pc, {r0, r1, r6, sl, lr}^	; <UNPREDICTABLE>
     ee4:	6800544e 	stmdavs	r0, {r1, r2, r3, r6, sl, ip, lr}
     ee8:	61755f77 	cmnvs	r5, r7, ror pc
     eec:	62647472 	rsbvs	r7, r4, #1912602624	; 0x72000000
     ef0:	5f726367 	svcpl	0x00726367
     ef4:	58520074 	ldmdapl	r2, {r2, r4, r5, r6}^
     ef8:	52004546 	andpl	r4, r0, #293601280	; 0x11800000
     efc:	00464658 	subeq	r4, r6, r8, asr r6
     f00:	52414843 	subpl	r4, r1, #4390912	; 0x430000
     f04:	345f4547 	ldrbcc	r4, [pc], #-1351	; f0c <irq_handler+0xe88>
     f08:	495f3250 	ldmdbmi	pc, {r4, r6, r9, ip, sp}^	; <UNPREDICTABLE>
     f0c:	494d494c 	stmdbmi	sp, {r2, r3, r6, r8, fp, lr}^
     f10:	524c0054 	subpl	r0, ip, #84	; 0x54
     f14:	37434441 	strbcc	r4, [r3, -r1, asr #8]
     f18:	5152495f 	cmppl	r2, pc, asr r9
     f1c:	004e455f 	subeq	r4, lr, pc, asr r5
     f20:	42414e45 	submi	r4, r1, #1104	; 0x450
     f24:	495f454c 	ldmdbmi	pc, {r2, r3, r6, r8, sl, lr}^	; <UNPREDICTABLE>
     f28:	494d494c 	stmdbmi	sp, {r2, r3, r6, r8, fp, lr}^
     f2c:	4d450054 	stclmi	0, cr0, [r5, #-336]	; 0xfffffeb0
     f30:	32335f49 	eorscc	r5, r3, #292	; 0x124
     f34:	445f424d 	ldrbmi	r4, [pc], #-589	; f3c <irq_handler+0xeb8>
     f38:	004d4152 	subeq	r4, sp, r2, asr r1
     f3c:	544a4441 	strbpl	r4, [sl], #-1089	; 0xfffffbbf
     f40:	4e49004e 	cdpmi	0, 4, cr0, cr9, cr14, {2}
     f44:	54535f54 	ldrbpl	r5, [r3], #-3924	; 0xfffff0ac
     f48:	53555441 	cmppl	r5, #1090519040	; 0x41000000
     f4c:	46585400 	ldrbmi	r5, [r8], -r0, lsl #8
     f50:	58540045 	ldmdapl	r4, {r0, r2, r6}^
     f54:	68004646 	stmdavs	r0, {r1, r2, r6, r9, sl, lr}
     f58:	6f705f77 	svcvs	0x00705f77
     f5c:	5f726577 	svcpl	0x00726577
     f60:	6d646476 	cfstrdvs	mvd6, [r4, #-472]!	; 0xfffffe28
     f64:	74636d65 	strbtvc	r6, [r3], #-3429	; 0xfffff29b
     f68:	745f6c72 	ldrbvc	r6, [pc], #-3186	; f70 <irq_handler+0xeec>
     f6c:	72615500 	rsbvc	r5, r1, #0, 10
     f70:	61655274 	smcvs	21796	; 0x5524
     f74:	6d754464 	cfldrdvs	mvd4, [r5, #-400]!	; 0xfffffe70
     f78:	5300796d 	movwpl	r7, #2413	; 0x96d
     f7c:	00325054 	eorseq	r5, r2, r4, asr r0
     f80:	4d415244 	sfmmi	f5, 2, [r1, #-272]	; 0xfffffef0
     f84:	4c41485f 	mcrrmi	8, 5, r4, r1, cr15
     f88:	00444554 	subeq	r4, r4, r4, asr r5
     f8c:	4e575242 	cdpmi	2, 5, cr5, cr7, cr2, {2}
     f90:	5f54554f 	svcpl	0x0054554f
     f94:	004c564c 	subeq	r5, ip, ip, asr #12
     f98:	43465254 	movtmi	r5, #25172	; 0x6254
     f9c:	504d4300 	subpl	r4, sp, r0, lsl #6
     fa0:	50495254 	subpl	r5, r9, r4, asr r2
     fa4:	5f776800 	svcpl	0x00776800
     fa8:	74726175 	ldrbtvc	r6, [r2], #-373	; 0xfffffe8b
     fac:	66676264 	strbtvs	r6, [r7], -r4, ror #4
     fb0:	5f647262 	svcpl	0x00647262
     fb4:	54430074 	strbpl	r0, [r3], #-116	; 0xffffff8c
     fb8:	4d494d53 	stclmi	13, cr4, [r9, #-332]	; 0xfffffeb4
     fbc:	494d4500 	stmdbmi	sp, {r8, sl, lr}^
     fc0:	424d325f 	submi	r3, sp, #-268435451	; 0xf0000005
     fc4:	4152445f 	cmpmi	r2, pc, asr r4
     fc8:	4f4e004d 	svcmi	0x004e004d
     fcc:	444d435f 	strbmi	r4, [sp], #-863	; 0xfffffca1
     fd0:	494e495f 	stmdbmi	lr, {r0, r1, r2, r3, r4, r6, r8, fp, lr}^
     fd4:	49500054 	ldmdbmi	r0, {r2, r4, r6}^
     fd8:	52445f4e 	subpl	r5, r4, #312	; 0x138
     fdc:	5f455649 	svcpl	0x00455649
     fe0:	416d3231 	cmnmi	sp, r1, lsr r2
     fe4:	50594200 	subspl	r4, r9, r0, lsl #4
     fe8:	5f535341 	svcpl	0x00535341
     fec:	00494d45 	subeq	r4, r9, r5, asr #26
     ff0:	42414e45 	submi	r4, r1, #1104	; 0x450
     ff4:	4c5f454c 	cfldr64mi	mvdx4, [pc], {76}	; 0x4c
     ff8:	45524e49 	ldrbmi	r4, [r2, #-3657]	; 0xfffff1b7
     ffc:	48410047 	stmdami	r1, {r0, r1, r2, r6}^
    1000:	575f3242 	ldrbpl	r3, [pc, -r2, asr #4]
    1004:	4952505f 	ldmdbmi	r2, {r0, r1, r2, r3, r4, r6, ip, lr}^
    1008:	5449524f 	strbpl	r5, [r9], #-591	; 0xfffffdb1
    100c:	77680059 			; <UNDEFINED> instruction: 0x77680059
    1010:	6172645f 	cmnvs	r2, pc, asr r4
    1014:	74635f6d 	strbtvc	r5, [r3], #-3949	; 0xfffff093
    1018:	5f33316c 	svcpl	0x0033316c
    101c:	5f730074 	svcpl	0x00730074
    1020:	00563562 	subseq	r3, r6, r2, ror #10
    1024:	59535542 	ldmdbpl	r3, {r1, r6, r8, sl, ip, lr}^
    1028:	4e59535f 	mrcmi	3, 2, r5, cr9, cr15, {2}
    102c:	4f4d5f43 	svcmi	0x004d5f43
    1030:	41004544 	tstmi	r0, r4, asr #10
    1034:	494c4156 	stmdbmi	ip, {r1, r2, r4, r6, r8, lr}^
    1038:	54535f44 	ldrbpl	r5, [r3], #-3908	; 0xfffff0bc
    103c:	53555441 	cmppl	r5, #1090519040	; 0x41000000
    1040:	5f776800 	svcpl	0x00776800
    1044:	6d617264 	sfmvs	f7, 2, [r1, #-400]!	; 0xfffffe70
    1048:	6c74635f 	ldclvs	3, cr6, [r4], #-380	; 0xfffffe84
    104c:	745f3831 	ldrbvc	r3, [pc], #-2097	; 1054 <ddrtest+0x54>
    1050:	41524400 	cmpmi	r2, r0, lsl #8
    1054:	45525f4d 	ldrbmi	r5, [r2, #-3917]	; 0xfffff0b3
    1058:	52440047 	subpl	r0, r4, #71	; 0x47
    105c:	554f504f 	strbpl	r5, [pc, #-79]	; 1015 <ddrtest+0x15>
    1060:	54435f54 	strbpl	r5, [r3], #-3924	; 0xfffff0ac
    1064:	68004c52 	stmdavs	r0, {r1, r4, r6, sl, fp, lr}
    1068:	72645f77 	rsbvc	r5, r4, #476	; 0x1dc
    106c:	635f6d61 	cmpvs	pc, #6208	; 0x1840
    1070:	33336c74 	teqcc	r3, #116, 24	; 0x7400
    1074:	6800745f 	stmdavs	r0, {r0, r1, r2, r3, r4, r6, sl, ip, sp, lr}
    1078:	61755f77 	cmnvs	r5, r7, ror pc
    107c:	62647472 	rsbvs	r7, r4, #1912602624	; 0x72000000
    1080:	72636c67 	rsbvc	r6, r3, #26368	; 0x6700
    1084:	745f685f 	ldrbvc	r6, [pc], #-2143	; 108c <ddrtest+0x8c>
    1088:	41524c00 	cmpmi	r2, r0, lsl #24
    108c:	5f304344 	svcpl	0x00304344
    1090:	00515249 	subseq	r5, r1, r9, asr #4
    1094:	72727563 	rsbsvc	r7, r2, #415236096	; 0x18c00000
    1098:	00746e65 	rsbseq	r6, r4, r5, ror #28
    109c:	5f494d45 	svcpl	0x00494d45
    10a0:	4d323135 	ldfmis	f3, [r2, #-212]!	; 0xffffff2c
    10a4:	52445f42 	subpl	r5, r4, #264	; 0x108
    10a8:	4f004d41 	svcmi	0x00004d41
    10ac:	4f5f5455 	svcmi	0x005f5455
    10b0:	41525f46 	cmpmi	r2, r6, asr #30
    10b4:	5f45474e 	svcpl	0x0045474e
    10b8:	474e454c 	strbmi	r4, [lr, -ip, asr #10]
    10bc:	50004854 	andpl	r4, r0, r4, asr r8
    10c0:	445f4e49 	ldrbmi	r4, [pc], #-3657	; 10c8 <ddrtest+0xc8>
    10c4:	45564952 	ldrbmi	r4, [r6, #-2386]	; 0xfffff6ae
    10c8:	416d385f 	cmnmi	sp, pc, asr r8
    10cc:	4e595300 	cdpmi	3, 5, cr5, cr9, cr0, {0}
    10d0:	4f4d5f43 	svcmi	0x004d5f43
    10d4:	455f4544 	ldrbmi	r4, [pc, #-1348]	; b98 <irq_handler+0xb14>
    10d8:	4f48004e 	svcmi	0x0048004e
    10dc:	465f5453 			; <UNDEFINED> instruction: 0x465f5453
    10e0:	4543524f 	strbmi	r5, [r3, #-591]	; 0xfffffdb1
    10e4:	5f534c5f 	svcpl	0x00534c5f
    10e8:	00304553 	eorseq	r4, r0, r3, asr r5
    10ec:	64645f73 	strbtvs	r5, [r4], #-3955	; 0xfffff08d
    10f0:	6d655f69 	stclvs	15, cr5, [r5, #-420]!	; 0xfffffe5c
    10f4:	61765f69 	cmnvs	r6, r9, ror #30
    10f8:	42007372 	andmi	r7, r0, #-939524095	; 0xc8000001
    10fc:	5f545441 	svcpl	0x00545441
    1100:	54004f42 	strpl	r4, [r0], #-3906	; 0xfffff0be
    1104:	6c61746f 	cfstrdvs	mvd7, [r1], #-444	; 0xfffffe44
    1108:	6d617244 	sfmvs	f7, 2, [r1, #-272]!	; 0xfffffef0
    110c:	657a6953 	ldrbvs	r6, [sl, #-2387]!	; 0xfffff6ad
    1110:	53554200 	cmppl	r5, #0, 4
    1114:	45525f59 	ldrbmi	r5, [r2, #-3929]	; 0xfffff0a7
    1118:	50435f46 	subpl	r5, r3, r6, asr #30
    111c:	49440055 	stmdbmi	r4, {r0, r2, r4, r6}^
    1120:	54585f56 	ldrbpl	r5, [r8], #-3926	; 0xfffff0aa
    1124:	465f4c41 	ldrbmi	r4, [pc], -r1, asr #24
    1128:	5f434152 	svcpl	0x00434152
    112c:	54004e45 	strpl	r4, [r0], #-3653	; 0xfffff1bb
    1130:	5f534152 	svcpl	0x00534152
    1134:	004e494d 	subeq	r4, lr, sp, asr #18
    1138:	5f494d45 	svcpl	0x00494d45
    113c:	5f4b4c43 	svcpl	0x004b4c43
    1140:	4d333331 	ldcmi	3, cr3, [r3, #-196]!	; 0xffffff3c
    1144:	45007a48 	strmi	r7, [r0, #-2632]	; 0xfffff5b8
    1148:	325f494d 	subscc	r4, pc, #1261568	; 0x134000
    114c:	424d3635 	submi	r3, sp, #55574528	; 0x3500000
    1150:	4152445f 	cmpmi	r2, pc, asr r4
    1154:	4c57004d 	mrrcmi	0, 4, r0, r7, cr13
    1158:	44004e45 	strmi	r4, [r0], #-3653	; 0xfffff1bb
    115c:	44524f57 	ldrbmi	r4, [r2], #-3927	; 0xfffff0a9
    1160:	55425600 	strbpl	r5, [r2, #-1536]	; 0xfffffa00
    1164:	4c415653 	mcrrmi	6, 5, r5, r1, cr3
    1168:	355f4449 	ldrbcc	r4, [pc, #-1097]	; d27 <irq_handler+0xca3>
    116c:	54454456 	strbpl	r4, [r5], #-1110	; 0xfffffbaa
    1170:	00544345 	subseq	r4, r4, r5, asr #6
    1174:	46555043 	ldrbmi	r5, [r5], -r3, asr #32
    1178:	00434152 	subeq	r4, r3, r2, asr r1
    117c:	655f7768 	ldrbvs	r7, [pc, #-1896]	; a1c <irq_handler+0x998>
    1180:	735f696d 	cmpvc	pc, #1785856	; 0x1b4000
    1184:	5f746174 	svcpl	0x00746174
    1188:	77680074 			; <UNDEFINED> instruction: 0x77680074
    118c:	6b6c635f 	blvs	1b19f10 <__bss_end__+0x1b13dd0>
    1190:	6c727463 	cfldrdvs	mvd7, [r2], #-396	; 0xfffffe74
    1194:	6172665f 	cmnvs	r2, pc, asr r6
    1198:	00745f63 	rsbseq	r5, r4, r3, ror #30
    119c:	6c6f6f62 	stclvs	15, cr6, [pc], #-392	; 101c <ddrtest+0x1c>
    11a0:	5f776800 	svcpl	0x00776800
    11a4:	636b6c63 	cmnvs	fp, #25344	; 0x6300
    11a8:	5f6c7274 	svcpl	0x006c7274
    11ac:	65776f50 	ldrbvs	r6, [r7, #-3920]!	; 0xfffff0b0
    11b0:	6c6c5072 	stclvs	0, cr5, [ip], #-456	; 0xfffffe38
    11b4:	69546200 	ldmdbvs	r4, {r9, sp, lr}^
    11b8:	754f656d 	strbvc	r6, [pc, #-1389]	; c53 <irq_handler+0xbcf>
    11bc:	58410074 	stmdapl	r1, {r2, r4, r5, r6}^
    11c0:	45445f49 	strbmi	r5, [r4, #-3913]	; 0xfffff0b7
    11c4:	00485450 	subeq	r5, r8, r0, asr r4
    11c8:	43696d45 	cmnmi	r9, #4416	; 0x1140
    11cc:	70536b6c 	subsvc	r6, r3, ip, ror #22
    11d0:	53646565 	cmnpl	r4, #423624704	; 0x19400000
    11d4:	65746174 	ldrbvs	r6, [r4, #-372]!	; 0xfffffe8c
    11d8:	52495300 	subpl	r5, r9, #0, 6
    11dc:	4200504c 	andmi	r5, r0, #76	; 0x4c
    11e0:	53415059 	movtpl	r5, #4185	; 0x1059
    11e4:	53535f53 	cmppl	r3, #332	; 0x14c
    11e8:	58520050 	ldmdapl	r2, {r4, r6}^
    11ec:	43004d49 	movwmi	r4, #3401	; 0xd49
    11f0:	4e455354 	mcrmi	3, 2, r5, cr5, cr4, {2}
    11f4:	5f434400 	svcpl	0x00434400
    11f8:	53004b4f 	movwpl	r4, #2895	; 0xb4f
    11fc:	74726174 	ldrbtvc	r6, [r2], #-372	; 0xfffffe8c
    1200:	4c4c4400 	cfstrdmi	mvd4, [ip], {-0}
    1204:	434e495f 	movtmi	r4, #59743	; 0xe95f
    1208:	454d4552 	strbmi	r4, [sp, #-1362]	; 0xfffffaae
    120c:	5400544e 	strpl	r5, [r0], #-1102	; 0xfffffbb2
    1210:	53524d45 	cmppl	r2, #4416	; 0x1140
    1214:	58414d00 	stmdapl	r1, {r8, sl, fp, lr}^
    1218:	4c4f435f 	mcrrmi	3, 5, r4, pc, cr15
    121c:	4745525f 	smlsldmi	r5, r5, pc, r2	; <UNPREDICTABLE>
    1220:	49585400 	ldmdbmi	r8, {sl, ip, lr}^
    1224:	4e45004d 	cdpmi	0, 4, cr0, cr5, cr13, {2}
    1228:	44515249 	ldrbmi	r5, [r1], #-585	; 0xfffffdb7
    122c:	4c505645 	mrrcmi	6, 4, r5, r0, cr5
    1230:	4e494755 	mcrmi	7, 2, r4, cr9, cr5, {2}
    1234:	5f776800 	svcpl	0x00776800
    1238:	65776f70 	ldrbvs	r6, [r7, #-3952]!	; 0xfffff090
    123c:	64765f72 	ldrbtvs	r5, [r6], #-3954	; 0xfffff08e
    1240:	636f6964 	cmnvs	pc, #100, 18	; 0x190000
    1244:	5f6c7274 	svcpl	0x006c7274
    1248:	6f540074 	svcvs	0x00540074
    124c:	446c6174 	strbtmi	r6, [ip], #-372	; 0xfffffe8c
    1250:	69536569 	ldmdbvs	r3, {r0, r3, r5, r6, r8, sl, sp, lr}^
    1254:	6800657a 	stmdavs	r0, {r1, r3, r4, r5, r6, r8, sl, sp, lr}
    1258:	6d655f77 	stclvs	15, cr5, [r5, #-476]!	; 0xfffffe24
    125c:	6f435f69 	svcvs	0x00435f69
    1260:	6769666e 	strbvs	r6, [r9, -lr, ror #12]!
    1264:	45657275 	strbmi	r7, [r5, #-629]!	; 0xfffffd8b
    1268:	6950696d 	ldmdbvs	r0, {r0, r2, r3, r5, r6, r8, fp, sp, lr}^
    126c:	4500736e 	strmi	r7, [r0, #-878]	; 0xfffffc92
    1270:	534f484e 	movtpl	r4, #63566	; 0xf84e
    1274:	53494454 	movtpl	r4, #37972	; 0x9454
    1278:	444e4f43 	strbmi	r4, [lr], #-3907	; 0xfffff0bd
    127c:	43455445 	movtmi	r5, #21573	; 0x5445
    1280:	4f4c0054 	svcmi	0x004c0054
    1284:	574f5057 	smlsldpl	r5, pc, r7, r0	; <UNPREDICTABLE>
    1288:	525f5245 	subspl	r5, pc, #1342177284	; 0x50000004
    128c:	45524645 	ldrbmi	r4, [r2, #-1605]	; 0xfffff9bb
    1290:	485f4853 	ldmdami	pc, {r0, r1, r4, r6, fp, lr}^	; <UNPREDICTABLE>
    1294:	00444c4f 	subeq	r4, r4, pc, asr #24
    1298:	5f696464 	svcpl	0x00696464
    129c:	5f696d65 	svcpl	0x00696d65
    12a0:	73726176 	cmnvc	r2, #-2147483619	; 0x8000001d
    12a4:	4c00745f 	cfstrsmi	mvf7, [r0], {95}	; 0x5f
    12a8:	45524e49 	ldrbmi	r4, [r2, #-3657]	; 0xfffff1b7
    12ac:	464f5f47 	strbmi	r5, [pc], -r7, asr #30
    12b0:	54455346 	strbpl	r5, [r5], #-838	; 0xfffffcba
    12b4:	42484100 	submi	r4, r8, #0, 2
    12b8:	5f525f31 	svcpl	0x00525f31
    12bc:	4f495250 	svcmi	0x00495250
    12c0:	59544952 	ldmdbpl	r4, {r1, r4, r6, r8, fp, lr}^
    12c4:	5f776800 	svcpl	0x00776800
    12c8:	636b6c63 	cmnvs	fp, #25344	; 0x6300
    12cc:	5f6c7274 	svcpl	0x006c7274
    12d0:	73756268 	cmnvc	r5, #104, 4	; 0x80000006
    12d4:	4400745f 	strmi	r7, [r0], #-1119	; 0xfffffba1
    12d8:	435f5649 	cmpmi	pc, #76546048	; 0x4900000
    12dc:	50005550 	andpl	r5, r0, r0, asr r5
    12e0:	524f4952 	subpl	r4, pc, #1343488	; 0x148000
    12e4:	5f595449 	svcpl	0x00595449
    12e8:	54495257 	strbpl	r5, [r9], #-599	; 0xfffffda9
    12ec:	54495f45 	strbpl	r5, [r9], #-3909	; 0xfffff0bb
    12f0:	43005245 	movwmi	r5, #581	; 0x245
    12f4:	55434e4f 	strbpl	r4, [r3, #-3663]	; 0xfffff1b1
    12f8:	4e455252 	mcrmi	2, 2, r5, cr5, cr2, {2}
    12fc:	00504154 	subseq	r4, r0, r4, asr r1
    1300:	41505942 	cmpmi	r0, r2, asr #18
    1304:	505f5353 	subspl	r5, pc, r3, asr r3	; <UNPREDICTABLE>
    1308:	45005849 	strmi	r5, [r0, #-2121]	; 0xfffff7b7
    130c:	435f494d 	cmpmi	pc, #1261568	; 0x134000
    1310:	365f4b4c 	ldrbcc	r4, [pc], -ip, asr #22
    1314:	007a484d 	rsbseq	r4, sl, sp, asr #16
    1318:	645f7768 	ldrbvs	r7, [pc], #-1896	; 1320 <hw_clkctrl_SetEmiClkRefXtalDiv+0x18>
    131c:	5f6d6172 	svcpl	0x006d6172
    1320:	306c7463 	rsbcc	r7, ip, r3, ror #8
    1324:	00745f31 	rsbseq	r5, r4, r1, lsr pc
    1328:	4f6e4f62 	svcmi	0x006e4f62
    132c:	48006666 	stmdami	r0, {r1, r2, r5, r6, r9, sl, sp, lr}
    1330:	4454534f 	ldrbmi	r5, [r4], #-847	; 0xfffffcb1
    1334:	4f435349 	svcmi	0x00435349
    1338:	5445444e 	strbpl	r4, [r5], #-1102	; 0xfffffbb2
    133c:	5f544345 	svcpl	0x00544345
    1340:	00515249 	subseq	r5, r1, r9, asr #4
    1344:	48425041 	stmdami	r2, {r0, r6, ip, lr}^
    1348:	5f414d44 	svcpl	0x00414d44
    134c:	455f5341 	ldrbmi	r5, [pc, #-833]	; 1013 <ddrtest+0x13>
    1350:	4c42414e 	stfmie	f4, [r2], {78}	; 0x4e
    1354:	77680045 	strbvc	r0, [r8, -r5, asr #32]!
    1358:	6172645f 	cmnvs	r2, pc, asr r4
    135c:	74635f6d 	strbtvc	r5, [r3], #-3949	; 0xfffff093
    1360:	5f36306c 	svcpl	0x0036306c
    1364:	77680074 			; <UNDEFINED> instruction: 0x77680074
    1368:	6172645f 	cmnvs	r2, pc, asr r4
    136c:	74635f6d 	strbtvc	r5, [r3], #-3949	; 0xfffff093
    1370:	5f31326c 	svcpl	0x0031326c
    1374:	49520074 	ldmdbmi	r2, {r2, r4, r5, r6}^
    1378:	004d494d 	subeq	r4, sp, sp, asr #18
    137c:	705f7768 	subsvc	r7, pc, r8, ror #14
    1380:	7265776f 	rsbvc	r7, r5, #29097984	; 0x1bc0000
    1384:	616e455f 	cmnvs	lr, pc, asr r5
    1388:	31656c62 	cmncc	r5, r2, ror #24
    138c:	68003870 	stmdavs	r0, {r4, r5, r6, fp, ip, sp}
    1390:	6d655f77 	stclvs	15, cr5, [r5, #-476]!	; 0xfffffe24
    1394:	6c435f69 	mcrrvs	15, 6, r5, r3, cr9
    1398:	52726165 	rsbspl	r6, r2, #1073741849	; 0x40000019
    139c:	74657365 	strbtvc	r7, [r5], #-869	; 0xfffffc9b
    13a0:	49454200 	stmdbmi	r5, {r9, lr}^
    13a4:	7768004d 	strbvc	r0, [r8, -sp, asr #32]!
    13a8:	6172645f 	cmnvs	r2, pc, asr r4
    13ac:	74635f6d 	strbtvc	r5, [r3], #-3949	; 0xfffff093
    13b0:	5f36326c 	svcpl	0x0036326c
    13b4:	49500074 	ldmdbmi	r0, {r2, r4, r5, r6}^
    13b8:	4f565f4e 	svcmi	0x00565f4e
    13bc:	4741544c 	strbmi	r5, [r1, -ip, asr #8]
    13c0:	70335f45 	eorsvc	r5, r3, r5, asr #30
    13c4:	00563374 	subseq	r3, r6, r4, ror r3
    13c8:	74696e49 	strbtvc	r6, [r9], #-3657	; 0xfffff1b7
    13cc:	75626544 	strbvc	r6, [r2, #-1348]!	; 0xfffffabc
    13d0:	72655367 	rsbvc	r5, r5, #-1677721599	; 0x9c000001
    13d4:	006c6169 	rsbeq	r6, ip, r9, ror #2
    13d8:	53554256 	cmppl	r5, #1610612741	; 0x60000005
    13dc:	494c4156 	stmdbmi	ip, {r1, r2, r4, r6, r8, lr}^
    13e0:	4f545f44 	svcmi	0x00545f44
    13e4:	5200425f 	andpl	r4, r0, #-268435451	; 0xf0000005
    13e8:	4c464958 	mcrrmi	9, 5, r4, r6, cr8
    13ec:	004c4553 	subeq	r4, ip, r3, asr r5
    13f0:	705f7768 	subsvc	r7, pc, r8, ror #14
    13f4:	7265776f 	rsbvc	r7, r5, #29097984	; 0x1bc0000
    13f8:	6376355f 	cmnvs	r6, #398458880	; 0x17c00000
    13fc:	5f6c7274 	svcpl	0x006c7274
    1400:	4d450074 	stclmi	0, cr0, [r5, #-464]	; 0xfffffe30
    1404:	4c435f49 	mcrrmi	15, 4, r5, r3, cr9
    1408:	36315f4b 	ldrtcc	r5, [r1], -fp, asr #30
    140c:	7a484d30 	bvc	12148d4 <__bss_end__+0x120e794>
    1410:	52415500 	subpl	r5, r1, #0, 10
    1414:	004e4554 	subeq	r4, lr, r4, asr r5
    1418:	4441524c 	strbmi	r5, [r1], #-588	; 0xfffffdb4
    141c:	495f3743 	ldmdbmi	pc, {r0, r1, r6, r8, r9, sl, ip, sp}^	; <UNPREDICTABLE>
    1420:	76005152 			; <UNDEFINED> instruction: 0x76005152
    1424:	65756c61 	ldrbvs	r6, [r5, #-3169]!	; 0xfffff39f
    1428:	574f4c00 	strbpl	r4, [pc, -r0, lsl #24]
    142c:	45574f50 	ldrbmi	r4, [r7, #-3920]	; 0xfffff0b0
    1430:	4f505f52 	svcmi	0x00505f52
    1434:	5f524557 	svcpl	0x00524557
    1438:	4e574f44 	cdpmi	15, 5, cr4, cr7, cr4, {2}
    143c:	544e435f 	strbpl	r4, [lr], #-863	; 0xfffffca1
    1440:	52535200 	subspl	r5, r3, #0, 4
    1444:	00304456 	eorseq	r4, r0, r6, asr r4
    1448:	56525352 			; <UNDEFINED> instruction: 0x56525352
    144c:	52003144 	andpl	r3, r0, #68, 2
    1450:	44565253 	ldrbmi	r5, [r6], #-595	; 0xfffffdad
    1454:	53520032 	cmppl	r2, #50	; 0x32
    1458:	33445652 	movtcc	r5, #18002	; 0x4652
    145c:	52535200 	subspl	r5, r3, #0, 4
    1460:	00344456 	eorseq	r4, r4, r6, asr r4
    1464:	56525352 			; <UNDEFINED> instruction: 0x56525352
    1468:	52003544 	andpl	r3, r0, #68, 10	; 0x11000000
    146c:	44565253 	ldrbmi	r5, [r6], #-595	; 0xfffffdad
    1470:	4d450036 	stclmi	0, cr0, [r5, #-216]	; 0xffffff28
    1474:	4d385f49 	ldcmi	15, cr5, [r8, #-292]!	; 0xfffffedc
    1478:	52445f42 	subpl	r5, r4, #264	; 0x108
    147c:	54004d41 	strpl	r4, [r0], #-3393	; 0xfffff2bf
    1480:	5f504152 	svcpl	0x00504152
    1484:	62005253 	andvs	r5, r0, #805306373	; 0x30000005
    1488:	6f747541 	svcvs	0x00747541
    148c:	6f6d654d 	svcvs	0x006d654d
    1490:	65537972 	ldrbvs	r7, [r3, #-2418]	; 0xfffff68e
    1494:	6552666c 	ldrbvs	r6, [r2, #-1644]	; 0xfffff994
    1498:	73657266 	cmnvc	r5, #1610612742	; 0x60000006
    149c:	646f4d68 	strbtvs	r4, [pc], #-3432	; 14a4 <hw_clkctrl_SetClkBypass+0x98>
    14a0:	616e4565 	cmnvs	lr, r5, ror #10
    14a4:	64656c62 	strbtvs	r6, [r5], #-3170	; 0xfffff39e
    14a8:	574f5000 	strbpl	r5, [pc, -r0]
    14ac:	445f5245 	ldrbmi	r5, [pc], #-581	; 14b4 <hw_clkctrl_SetClkBypass+0xa8>
    14b0:	004e574f 	subeq	r5, lr, pc, asr #14
    14b4:	44524d54 	ldrbmi	r4, [r2], #-3412	; 0xfffff2ac
    14b8:	544e4900 	strbpl	r4, [lr], #-2304	; 0xfffff700
    14bc:	41545052 	cmpmi	r4, r2, asr r0
    14c0:	52554250 	subspl	r4, r5, #80, 4
    14c4:	64005453 	strvs	r5, [r0], #-1107	; 0xfffffbad
    14c8:	655f6964 	ldrbvs	r6, [pc, #-2404]	; b6c <irq_handler+0xae8>
    14cc:	455f696d 	ldrbmi	r6, [pc, #-2413]	; b67 <irq_handler+0xae3>
    14d0:	7265746e 	rsbvc	r7, r5, #1845493760	; 0x6e000000
    14d4:	6f747541 	svcvs	0x00747541
    14d8:	6f6d654d 	svcvs	0x006d654d
    14dc:	6c437972 	mcrrvs	9, 7, r7, r3, cr2
    14e0:	476b636f 	strbmi	r6, [fp, -pc, ror #6]!
    14e4:	4d657461 	cfstrdmi	mvd7, [r5, #-388]!	; 0xfffffe7c
    14e8:	0065646f 	rsbeq	r6, r5, pc, ror #8
    14ec:	5f4c4c44 	svcpl	0x004c4c44
    14f0:	52415453 	subpl	r5, r1, #1392508928	; 0x53000000
    14f4:	4f505f54 	svcmi	0x00505f54
    14f8:	00544e49 	subseq	r4, r4, r9, asr #28
    14fc:	55534552 	ldrbpl	r4, [r3, #-1362]	; 0xfffffaae
    1500:	535f454d 	cmppl	pc, #322961408	; 0x13400000
    1504:	55544154 	ldrbpl	r4, [r4, #-340]	; 0xfffffeac
    1508:	52540053 	subspl	r0, r4, #83	; 0x53
    150c:	44004452 	strmi	r4, [r0], #-1106	; 0xfffffbae
    1510:	435f5649 	cmpmi	pc, #76546048	; 0x4900000
    1514:	465f5550 			; <UNDEFINED> instruction: 0x465f5550
    1518:	5f434152 	svcpl	0x00434152
    151c:	55004e45 	strpl	r4, [r0, #-3653]	; 0xfffff1bb
    1520:	4156414e 	cmpmi	r6, lr, asr #2
    1524:	42414c49 	submi	r4, r1, #18688	; 0x4900
    1528:	6800454c 	stmdavs	r0, {r2, r3, r6, r8, sl, lr}
    152c:	73755f77 	cmnvc	r5, #476	; 0x1dc
    1530:	79687062 	stmdbvc	r8!, {r1, r5, r6, ip, sp, lr}^
    1534:	6174735f 	cmnvs	r4, pc, asr r3
    1538:	5f737574 	svcpl	0x00737574
    153c:	4d450074 	stclmi	0, cr0, [r5, #-464]	; 0xfffffe30
    1540:	45445f49 	strbmi	r5, [r4, #-3913]	; 0xfffff0b7
    1544:	4f4d5f56 	svcmi	0x004d5f56
    1548:	454c4942 	strbmi	r4, [ip, #-2370]	; 0xfffff6be
    154c:	5244445f 	subpl	r4, r4, #1593835520	; 0x5f000000
    1550:	70786500 	rsbsvc	r6, r8, r0, lsl #10
    1554:	54657269 	strbtpl	r7, [r5], #-617	; 0xfffffd97
    1558:	00656d69 	rsbeq	r6, r5, r9, ror #26
    155c:	4d494546 	cfstr64mi	mvdx4, [r9, #-280]	; 0xfffffee8
    1560:	574f4c00 	strbpl	r4, [pc, -r0, lsl #24]
    1564:	45574f50 	ldrbmi	r4, [r7, #-3920]	; 0xfffff0b0
    1568:	45525f52 	ldrbmi	r5, [r2, #-3922]	; 0xfffff0ae
    156c:	53455246 	movtpl	r5, #21062	; 0x5246
    1570:	4e455f48 	cdpmi	15, 4, cr5, cr5, cr8, {2}
    1574:	454c4241 	strbmi	r4, [ip, #-577]	; 0xfffffdbf
    1578:	6e697000 	cdpvs	0, 6, cr7, cr9, cr0, {0}
    157c:	6972645f 	ldmdbvs	r2!, {r0, r1, r2, r3, r4, r6, sl, sp, lr}^
    1580:	635f6576 	cmpvs	pc, #494927872	; 0x1d800000
    1584:	006c7274 	rsbeq	r7, ip, r4, ror r2
    1588:	635f7768 	cmpvs	pc, #104, 14	; 0x1a00000
    158c:	5f65726f 	svcpl	0x0065726f
    1590:	69617264 	stmdbvs	r1!, {r2, r5, r6, r9, ip, sp, lr}^
    1594:	72775f6e 	rsbsvc	r5, r7, #440	; 0x1b8
    1598:	5f657469 	svcpl	0x00657469
    159c:	66667562 	strbtvs	r7, [r6], -r2, ror #10
    15a0:	68007265 	stmdavs	r0, {r0, r2, r5, r6, r9, ip, sp, lr}
    15a4:	6d655f77 	stclvs	15, cr5, [r5, #-476]!	; 0xfffffe24
    15a8:	6c435f69 	mcrrvs	15, 6, r5, r3, cr9
    15ac:	446b636f 	strbtmi	r6, [fp], #-879	; 0xfffffc91
    15b0:	6e657065 	cdpvs	0, 6, cr7, cr5, cr5, {3}
    15b4:	746e6564 	strbtvc	r6, [lr], #-1380	; 0xfffffa9c
    15b8:	73676552 	cmnvc	r7, #343932928	; 0x14800000
    15bc:	4400745f 	strmi	r7, [r0], #-1119	; 0xfffffba1
    15c0:	5f4d4152 	svcpl	0x004d4152
    15c4:	53455250 	movtpl	r5, #21072	; 0x5250
    15c8:	00544e45 	subseq	r4, r4, r5, asr #28
    15cc:	776f5062 	strbvc	r5, [pc, -r2, rrx]!
    15d0:	64657265 	strbtvs	r7, [r5], #-613	; 0xfffffd9b
    15d4:	494d4500 	stmdbmi	sp, {r8, sl, lr}^
    15d8:	4b4c435f 	blmi	131235c <__bss_end__+0x130c21c>
    15dc:	4d30365f 	ldcmi	6, cr3, [r0, #-380]!	; 0xfffffe84
    15e0:	68007a48 	stmdavs	r0, {r3, r6, r9, fp, ip, sp, lr}
    15e4:	6c635f77 	stclvs	15, cr5, [r3], #-476	; 0xfffffe24
    15e8:	7274636b 	rsbsvc	r6, r4, #-1409286143	; 0xac000001
    15ec:	6d655f6c 	stclvs	15, cr5, [r5, #-432]!	; 0xfffffe50
    15f0:	00745f69 	rsbseq	r5, r4, r9, ror #30
    15f4:	50574f4c 	subspl	r4, r7, ip, asr #30
    15f8:	5245574f 	subpl	r5, r5, #20709376	; 0x13c0000
    15fc:	544e495f 	strbpl	r4, [lr], #-2399	; 0xfffff6a1
    1600:	414e5245 	cmpmi	lr, r5, asr #4
    1604:	4e435f4c 	cdpmi	15, 4, cr5, cr3, cr12, {2}
    1608:	524c0054 	subpl	r0, ip, #84	; 0x54
    160c:	30434441 	subcc	r4, r3, r1, asr #8
    1610:	5152495f 	cmppl	r2, pc, asr r9
    1614:	004e455f 	subeq	r4, lr, pc, asr r5
    1618:	65776f50 	ldrbvs	r6, [r7, #-3920]!	; 0xfffff0b0
    161c:	6f745372 	svcvs	0x00745372
    1620:	32703470 	rsbscc	r3, r0, #112, 8	; 0x70000000
    1624:	74654400 	strbtvc	r4, [r5], #-1024	; 0xfffffc00
    1628:	69746365 	ldmdbvs	r4!, {r0, r2, r5, r6, r8, r9, sp, lr}^
    162c:	654d6e6f 	strbvs	r6, [sp, #-3695]	; 0xfffff191
    1630:	646f6874 	strbtvs	r6, [pc], #-2164	; 1638 <ddi_emi_InitClockSpeedDependentVars+0x48>
    1634:	41524c00 	cmpmi	r2, r0, lsl #24
    1638:	5f334344 	svcpl	0x00334344
    163c:	00515249 	subseq	r5, r1, r9, asr #4
    1640:	52544e49 	subspl	r4, r4, #1168	; 0x490
    1644:	52575450 	subspl	r5, r7, #80, 8	; 0x50000000
    1648:	41455449 	cmpmi	r5, r9, asr #8
    164c:	776f5000 	strbvc	r5, [pc, -r0]!
    1650:	74537265 	ldrbvc	r7, [r3], #-613	; 0xfffffd9b
    1654:	6843706f 	stmdavs	r3, {r0, r1, r2, r3, r5, r6, ip, sp, lr}^
    1658:	65677261 	strbvs	r7, [r7, #-609]!	; 0xfffffd9f
    165c:	52410072 	subpl	r0, r1, #114	; 0x72
    1660:	4f4d5f42 	svcmi	0x004d5f42
    1664:	41004544 	tstmi	r0, r4, asr #10
    1668:	5f334248 	svcpl	0x00334248
    166c:	4f464946 	svcmi	0x00464946
    1670:	5059545f 	subspl	r5, r9, pc, asr r4
    1674:	45525f45 	ldrbmi	r5, [r2, #-3909]	; 0xfffff0bb
    1678:	41420047 	cmpmi	r2, r7, asr #32
    167c:	535f4b4e 	cmppl	pc, #79872	; 0x13800
    1680:	54494c50 	strbpl	r4, [r9], #-3152	; 0xfffff3b0
    1684:	004e455f 	subeq	r4, lr, pc, asr r5
    1688:	4f53424f 	svcmi	0x0053424f
    168c:	4554454c 	ldrbmi	r4, [r4, #-1356]	; 0xfffffab4
    1690:	54414200 	strbpl	r4, [r1], #-512	; 0xfffffe00
    1694:	41565f54 	cmpmi	r6, r4, asr pc
    1698:	5043004c 	subpl	r0, r3, ip, asr #32
    169c:	54535f55 	ldrbpl	r5, [r3], #-3925	; 0xfffff0ab
    16a0:	454c4241 	strbmi	r4, [ip, #-577]	; 0xfffffdbf
    16a4:	6f6f6c00 	svcvs	0x006f6c00
    16a8:	77680070 			; <UNDEFINED> instruction: 0x77680070
    16ac:	6172645f 	cmnvs	r2, pc, asr r4
    16b0:	74635f6d 	strbtvc	r5, [r3], #-3949	; 0xfffff093
    16b4:	5f34316c 	svcpl	0x0034316c
    16b8:	685f0074 	ldmdavs	pc, {r2, r4, r5, r6}^	; <UNPREDICTABLE>
    16bc:	6f705f77 	svcvs	0x00705f77
    16c0:	5f726577 	svcpl	0x00726577
    16c4:	65447635 	strbvs	r7, [r4, #-1589]	; 0xfffff9cb
    16c8:	74636574 	strbtvc	r6, [r3], #-1396	; 0xfffffa8c
    16cc:	5f6e6f69 	svcpl	0x006e6f69
    16d0:	4e490074 	mcrmi	0, 2, r0, cr9, cr4, {3}
    16d4:	54505254 	ldrbpl	r5, [r0], #-596	; 0xfffffdac
    16d8:	44414552 	strbmi	r4, [r1], #-1362	; 0xfffffaae
    16dc:	77680041 	strbvc	r0, [r8, -r1, asr #32]!
    16e0:	6172645f 	cmnvs	r2, pc, asr r4
    16e4:	74635f6d 	strbtvc	r5, [r3], #-3949	; 0xfffff093
    16e8:	5f39316c 	svcpl	0x0039316c
    16ec:	77680074 			; <UNDEFINED> instruction: 0x77680074
    16f0:	6b6c635f 	blvs	1b1a474 <__bss_end__+0x1b14334>
    16f4:	6c727463 	cfldrdvs	mvd7, [r2], #-396	; 0xfffffe74
    16f8:	7465535f 	strbtvc	r5, [r5], #-863	; 0xfffffca1
    16fc:	43696d45 	cmnmi	r9, #4416	; 0x1140
    1700:	65526b6c 	ldrbvs	r6, [r2, #-2924]	; 0xfffff494
    1704:	61745866 	cmnvs	r4, r6, ror #16
    1708:	7669446c 	strbtvc	r4, [r9], -ip, ror #8
    170c:	5f574800 	svcpl	0x00574800
    1710:	45574f50 	ldrbmi	r4, [r7, #-3920]	; 0xfffff0b0
    1714:	56355f52 	shsaxpl	r5, r5, r2
    1718:	5542565f 	strbpl	r5, [r2, #-1631]	; 0xfffff9a1
    171c:	4c415653 	mcrrmi	6, 5, r5, r1, cr3
    1720:	68004449 	stmdavs	r0, {r0, r3, r6, sl, lr}
    1724:	72645f77 	rsbvc	r5, r4, #476	; 0x1dc
    1728:	635f6d61 	cmpvs	pc, #6208	; 0x1840
    172c:	34336c74 	ldrtcc	r6, [r3], #-3188	; 0xfffff38c
    1730:	4400745f 	strmi	r7, [r0], #-1119	; 0xfffffba1
    1734:	525f4343 	subspl	r4, pc, #201326593	; 0xc000001
    1738:	4e595345 	cdpmi	3, 5, cr5, cr9, cr5, {2}
    173c:	4e455f43 	cdpmi	15, 4, cr5, cr5, cr3, {2}
    1740:	454c4241 	strbmi	r4, [ip, #-577]	; 0xfffffdbf
    1744:	4d545500 	cfldr64mi	mvdx5, [r4, #-0]
    1748:	55535f49 	ldrbpl	r5, [r3, #-3913]	; 0xfffff0b7
    174c:	4e455053 	mcrmi	0, 2, r5, cr5, cr3, {2}
    1750:	41004d44 	tstmi	r0, r4, asr #26
    1754:	5f324248 	svcpl	0x00324248
    1758:	52505f52 	subspl	r5, r0, #328	; 0x148
    175c:	49524f49 	ldmdbmi	r2, {r0, r3, r6, r8, r9, sl, fp, lr}^
    1760:	50005954 	andpl	r5, r0, r4, asr r9
    1764:	004d4945 	subeq	r4, sp, r5, asr #18
    1768:	635f7768 	cmpvs	pc, #104, 14	; 0x1a00000
    176c:	74636b6c 	strbtvc	r6, [r3], #-2924	; 0xfffff494
    1770:	535f6c72 	cmppl	pc, #29184	; 0x7200
    1774:	66507465 	ldrbvs	r7, [r0], -r5, ror #8
    1778:	66655264 	strbtvs	r5, [r5], -r4, ror #4
    177c:	44696d45 	strbtmi	r6, [r9], #-3397	; 0xfffff2bb
    1780:	42007669 	andmi	r7, r0, #110100480	; 0x6900000
    1784:	53415059 	movtpl	r5, #4185	; 0x1059
    1788:	54455f53 	strbpl	r5, [r5], #-3923	; 0xfffff0ad
    178c:	5748004d 	strbpl	r0, [r8, -sp, asr #32]
    1790:	574f505f 	smlsldpl	r5, pc, pc, r0	; <UNPREDICTABLE>
    1794:	355f5245 	ldrbcc	r5, [pc, #-581]	; 1557 <hw_clkctrl_SetClkBypass+0x14b>
    1798:	44565f56 	ldrbmi	r5, [r6], #-3926	; 0xfffff0aa
    179c:	5f563544 	svcpl	0x00563544
    17a0:	565f5447 	ldrbpl	r5, [pc], -r7, asr #8
    17a4:	4f494444 	svcmi	0x00494444
    17a8:	5f776800 	svcpl	0x00776800
    17ac:	5f696d65 	svcpl	0x00696d65
    17b0:	65746e45 	ldrbvs	r6, [r4, #-3653]!	; 0xfffff1bb
    17b4:	6d654d72 	stclvs	13, cr4, [r5, #-456]!	; 0xfffffe38
    17b8:	4379726f 	cmnmi	r9, #-268435450	; 0xf0000006
    17bc:	6b636f6c 	blvs	18dd574 <__bss_end__+0x18d7434>
    17c0:	65746147 	ldrbvs	r6, [r4, #-327]!	; 0xfffffeb9
    17c4:	65646f4d 	strbvs	r6, [r4, #-3917]!	; 0xfffff0b3
    17c8:	5f776800 	svcpl	0x00776800
    17cc:	5f696d65 	svcpl	0x00696d65
    17d0:	70696843 	rsbvc	r6, r9, r3, asr #16
    17d4:	656c6553 	strbvs	r6, [ip, #-1363]!	; 0xfffffaad
    17d8:	614d7463 	cmpvs	sp, r3, ror #8
    17dc:	745f6b73 	ldrbvc	r6, [pc], #-2931	; 17e4 <hw_emi_SetMemoryClockGateAutoFlag+0x2c>
    17e0:	54575400 	ldrbpl	r5, [r7], #-1024	; 0xfffffc00
    17e4:	50430052 	subpl	r0, r3, r2, asr r0
    17e8:	41445f55 	cmpmi	r4, r5, asr pc
    17ec:	415f4154 	cmpmi	pc, r4, asr r1	; <UNPREDICTABLE>
    17f0:	4e455f53 	mcrmi	15, 2, r5, cr5, cr3, {2}
    17f4:	454c4241 	strbmi	r4, [ip, #-577]	; 0xfffffdbf
    17f8:	5f776800 	svcpl	0x00776800
    17fc:	5f696d65 	svcpl	0x00696d65
    1800:	65746e45 	ldrbvs	r6, [r4, #-3653]!	; 0xfffff1bb
    1804:	6d654d72 	stclvs	13, cr4, [r5, #-456]!	; 0xfffffe38
    1808:	5379726f 	cmnpl	r9, #-268435450	; 0xf0000006
    180c:	52666c65 	rsbpl	r6, r6, #25856	; 0x6500
    1810:	65726665 	ldrbvs	r6, [r2, #-1637]!	; 0xfffff99b
    1814:	6f4d6873 	svcvs	0x004d6873
    1818:	49006564 	stmdbmi	r0, {r2, r5, r6, r8, sl, sp, lr}
    181c:	54535f4f 	ldrbpl	r5, [r3], #-3919	; 0xfffff0b1
    1820:	454c4241 	strbmi	r4, [ip, #-577]	; 0xfffffdbf
    1824:	56454400 	strbpl	r4, [r5], -r0, lsl #8
    1828:	47554c50 			; <UNDEFINED> instruction: 0x47554c50
    182c:	495f4e49 	ldmdbmi	pc, {r0, r3, r6, r9, sl, fp, lr}^	; <UNPREDICTABLE>
    1830:	56005152 			; <UNDEFINED> instruction: 0x56005152
    1834:	49535245 	ldmdbmi	r3, {r0, r2, r6, r9, ip, lr}^
    1838:	44004e4f 	strmi	r4, [r0], #-3663	; 0xfffff1b1
    183c:	526d6172 	rsbpl	r6, sp, #-2147483620	; 0x8000001c
    1840:	37316765 	ldrcc	r6, [r1, -r5, ror #14]!
    1844:	524f5000 	subpl	r5, pc, #0
    1848:	52505f54 	subspl	r5, r0, #84, 30	; 0x150
    184c:	49524f49 	ldmdbmi	r2, {r0, r3, r6, r8, r9, sl, fp, lr}^
    1850:	4f5f5954 	svcmi	0x005f5954
    1854:	52454452 	subpl	r4, r5, #1375731712	; 0x52000000
    1858:	52534400 	subspl	r4, r3, #0, 8
    185c:	004d494d 	subeq	r4, sp, sp, asr #18
    1860:	4d495452 	cfstrdmi	mvd5, [r9, #-328]	; 0xfffffeb8
    1864:	5f776800 	svcpl	0x00776800
    1868:	65776f70 	ldrbvs	r6, [r7, #-3952]!	; 0xfffff090
    186c:	74735f72 	ldrbtvc	r5, [r3], #-3954	; 0xfffff08e
    1870:	00745f73 	rsbseq	r5, r4, r3, ror pc
    1874:	645f7768 	ldrbvs	r7, [pc], #-1896	; 187c <ddi_emi_StartHighCpuPriority+0x18>
    1878:	5f6d6172 	svcpl	0x006d6172
    187c:	74696e49 	strbtvc	r6, [r9], #-3657	; 0xfffff1b7
    1880:	7264645f 	rsbvc	r6, r4, #1593835520	; 0x5f000000
    1884:	34746d5f 	ldrbtcc	r6, [r4], #-3423	; 0xfffff2a1
    1888:	32337636 	eorscc	r7, r3, #56623104	; 0x3600000
    188c:	5f36316d 	svcpl	0x0036316d
    1890:	395f7436 	ldmdbcc	pc, {r1, r2, r4, r5, sl, ip, sp, lr}^	; <UNPREDICTABLE>
    1894:	7a484d36 	bvc	1214d74 <__bss_end__+0x120ec34>
    1898:	5f776800 	svcpl	0x00776800
    189c:	63676964 	cmnvs	r7, #100, 18	; 0x190000
    18a0:	4d5f6c74 	ldclmi	12, cr6, [pc, #-464]	; 16d8 <ddi_emi_InitClockSpeedDependentVars+0xe8>
    18a4:	6f726369 	svcvs	0x00726369
    18a8:	6f636573 	svcvs	0x00636573
    18ac:	6157646e 	cmpvs	r7, lr, ror #8
    18b0:	63007469 	movwvs	r7, #1129	; 0x469
    18b4:	65727275 	ldrbvs	r7, [r2, #-629]!	; 0xfffffd8b
    18b8:	6954746e 	ldmdbvs	r4, {r1, r2, r3, r5, r6, sl, ip, sp, lr}^
    18bc:	5000656d 	andpl	r6, r0, sp, ror #10
    18c0:	5f4e4457 	svcpl	0x004e4457
    18c4:	54544142 	ldrbpl	r4, [r4], #-322	; 0xfffffebe
    18c8:	4f4e5242 	svcmi	0x004e5242
    18cc:	45005455 	strmi	r5, [r0, #-1109]	; 0xfffffbab
    18d0:	345f494d 	ldrbcc	r4, [pc], #-2381	; 18d8 <ddi_emi_StartHighCpuPriority+0x74>
    18d4:	445f424d 	ldrbmi	r4, [pc], #-589	; 18dc <ddi_emi_StartHighCpuPriority+0x78>
    18d8:	004d4152 	subeq	r4, sp, r2, asr r1
    18dc:	5f524f4e 	svcpl	0x00524f4e
    18e0:	59535542 	ldmdbpl	r3, {r1, r6, r8, sl, ip, lr}^
    18e4:	53494400 	movtpl	r4, #37888	; 0x9400
    18e8:	454c4241 	strbmi	r4, [ip, #-577]	; 0xfffffdbf
    18ec:	4554535f 	ldrbmi	r5, [r4, #-863]	; 0xfffffca1
    18f0:	4e495050 	mcrmi	0, 2, r5, cr9, cr0, {2}
    18f4:	41430047 	cmpmi	r3, r7, asr #32
    18f8:	54414c53 	strbpl	r4, [r1], #-3155	; 0xfffff3ad
    18fc:	4e494c5f 	mcrmi	12, 2, r4, cr9, cr15, {2}
    1900:	5441475f 	strbpl	r4, [r1], #-1887	; 0xfffff8a1
    1904:	48430045 	stmdami	r3, {r0, r2, r6}^
    1908:	54534752 	ldrbpl	r4, [r3], #-1874	; 0xfffff8ae
    190c:	5f730053 	svcpl	0x00730053
    1910:	62735562 	rsbsvs	r5, r3, #411041792	; 0x18800000
    1914:	494e4500 	stmdbmi	lr, {r8, sl, lr}^
    1918:	45525152 	ldrbmi	r5, [r2, #-338]	; 0xfffffeae
    191c:	454d5553 	strbmi	r5, [sp, #-1363]	; 0xfffffaad
    1920:	45544544 	ldrbmi	r4, [r4, #-1348]	; 0xfffffabc
    1924:	4c005443 	cfstrsmi	mvf5, [r0], {67}	; 0x43
    1928:	43444152 	movtmi	r4, #16722	; 0x4152
    192c:	52495f36 	subpl	r5, r9, #54, 30	; 0xd8
    1930:	4f490051 	svcmi	0x00490051
    1934:	43415246 	movtmi	r5, #4678	; 0x1246
    1938:	4f4e4500 	svcmi	0x004e4500
    193c:	44494754 	strbmi	r4, [r9], #-1876	; 0xfffff8ac
    1940:	45544544 	ldrbmi	r4, [r4, #-1348]	; 0xfffffabc
    1944:	62005443 	andvs	r5, r0, #1124073472	; 0x43000000
    1948:	61736944 	cmnvs	r3, r4, asr #18
    194c:	00656c62 	rsbeq	r6, r5, r2, ror #24
    1950:	52535854 	subspl	r5, r3, #84, 16	; 0x540000
    1954:	5f776800 	svcpl	0x00776800
    1958:	5f696d65 	svcpl	0x00696d65
    195c:	61746f54 	cmnvs	r4, r4, asr pc
    1960:	6172446c 	cmnvs	r2, ip, ror #8
    1964:	7a69536d 	bvc	1a56720 <__bss_end__+0x1a505e0>
    1968:	00745f65 	rsbseq	r5, r4, r5, ror #30
    196c:	41505942 	cmpmi	r0, r2, asr #18
    1970:	495f5353 	ldmdbmi	pc, {r0, r1, r4, r6, r8, r9, ip, lr}^	; <UNPREDICTABLE>
    1974:	554f0052 	strbpl	r0, [pc, #-82]	; 192a <ddi_clocks_KeepPllPowered+0x26>
    1978:	68003254 	stmdavs	r0, {r2, r4, r6, r9, ip, sp}
    197c:	72645f77 	rsbvc	r5, r4, #476	; 0x1dc
    1980:	635f6d61 	cmpvs	pc, #6208	; 0x1840
    1984:	32306c74 	eorscc	r6, r0, #116, 24	; 0x7400
    1988:	6800745f 	stmdavs	r0, {r0, r1, r2, r3, r4, r6, sl, ip, sp, lr}
    198c:	6d655f77 	stclvs	15, cr5, [r5, #-476]!	; 0xfffffe24
    1990:	73495f69 	movtvc	r5, #40809	; 0x9f69
    1994:	746e6f43 	strbtvc	r6, [lr], #-3907	; 0xfffff0bd
    1998:	6c6c6f72 	stclvs	15, cr6, [ip], #-456	; 0xfffffe38
    199c:	61487265 	cmpvs	r8, r5, ror #4
    19a0:	6465746c 	strbtvs	r7, [r5], #-1132	; 0xfffffb94
    19a4:	4c555000 	mrami	r5, r5, acc0
    19a8:	574f444c 	strbpl	r4, [pc, -ip, asr #8]
    19ac:	43415f4e 	movtmi	r5, #8014	; 0x1f4e
    19b0:	45564954 	ldrbmi	r4, [r6, #-2388]	; 0xfffff6ac
    19b4:	52776400 	rsbspl	r6, r7, #0, 8
    19b8:	72466765 	subvc	r6, r6, #26476544	; 0x1940000
    19bc:	68006361 	stmdavs	r0, {r0, r5, r6, r8, r9, sp, lr}
    19c0:	72645f77 	rsbvc	r5, r4, #476	; 0x1dc
    19c4:	635f6d61 	cmpvs	pc, #6208	; 0x1840
    19c8:	37306c74 			; <UNDEFINED> instruction: 0x37306c74
    19cc:	6800745f 	stmdavs	r0, {r0, r1, r2, r3, r4, r6, sl, ip, sp, lr}
    19d0:	6f705f77 	svcvs	0x00705f77
    19d4:	5f726577 	svcpl	0x00726577
    19d8:	62616e45 	rsbvs	r6, r1, #1104	; 0x450
    19dc:	7032656c 	eorsvc	r6, r2, ip, ror #10
    19e0:	4e450035 	mcrmi	0, 2, r0, cr5, cr5, {1}
    19e4:	48515249 	ldmdami	r1, {r0, r3, r6, r9, ip, lr}^
    19e8:	4454534f 	ldrbmi	r5, [r4], #-847	; 0xfffffcb1
    19ec:	4f435349 	svcmi	0x00435349
    19f0:	4f50004e 	svcmi	0x0050004e
    19f4:	425f5452 	subsmi	r5, pc, #1375731712	; 0x52000000
    19f8:	00595355 	subseq	r5, r9, r5, asr r3
    19fc:	6e697250 	mcrvs	2, 3, r7, cr9, cr0, {2}
    1a00:	74614274 	strbtvc	r4, [r1], #-628	; 0xfffffd8c
    1a04:	79726574 	ldmdbvc	r2!, {r2, r4, r5, r6, r8, sl, sp, lr}^
    1a08:	746c6f56 	strbtvc	r6, [ip], #-3926	; 0xfffff0aa
    1a0c:	00656761 	rsbeq	r6, r5, r1, ror #14
    1a10:	5f4c4c44 	svcpl	0x004c4c44
    1a14:	41505942 	cmpmi	r0, r2, asr #18
    1a18:	4d5f5353 	ldclmi	3, cr5, [pc, #-332]	; 18d4 <ddi_emi_StartHighCpuPriority+0x70>
    1a1c:	0045444f 	subeq	r4, r5, pc, asr #8
    1a20:	705f7768 	subsvc	r7, pc, r8, ror #14
    1a24:	7265776f 	rsbvc	r7, r5, #29097984	; 0x1bc0000
    1a28:	6463645f 	strbtvs	r6, [r3], #-1119	; 0xfffffba1
    1a2c:	32703463 	rsbscc	r3, r0, #1660944384	; 0x63000000
    1a30:	5300745f 	movwpl	r7, #1119	; 0x45f
    1a34:	74726174 	ldrbtvc	r6, [r2], #-372	; 0xfffffe8c
    1a38:	656d6954 	strbvs	r6, [sp, #-2388]!	; 0xfffff6ac
    1a3c:	44445600 	strbmi	r5, [r4], #-1536	; 0xfffffa00
    1a40:	425f4f49 	subsmi	r4, pc, #292	; 0x124
    1a44:	4f43004f 	svcmi	0x0043004f
    1a48:	4e414d4d 	cdpmi	13, 4, cr4, cr1, cr13, {2}
    1a4c:	47415f44 	strbmi	r5, [r1, -r4, asr #30]
    1a50:	4f435f45 	svcmi	0x00435f45
    1a54:	00544e55 	subseq	r4, r4, r5, asr lr
    1a58:	53554256 	cmppl	r5, #1610612741	; 0x60000005
    1a5c:	494c4156 	stmdbmi	ip, {r1, r2, r4, r6, r8, lr}^
    1a60:	52545f44 	subspl	r5, r4, #68, 30	; 0x110
    1a64:	4f004853 	svcmi	0x00004853
    1a68:	00315455 	eorseq	r5, r1, r5, asr r4
    1a6c:	4441524c 	strbmi	r5, [r1], #-588	; 0xfffffdb4
    1a70:	495f3643 	ldmdbmi	pc, {r0, r1, r6, r9, sl, ip, sp}^	; <UNPREDICTABLE>
    1a74:	455f5152 	ldrbmi	r5, [pc, #-338]	; 192a <ddi_clocks_KeepPllPowered+0x26>
    1a78:	4b62004e 	blmi	1881bb8 <__bss_end__+0x187ba78>
    1a7c:	50706565 	rsbspl	r6, r0, r5, ror #10
    1a80:	6f506c6c 	svcvs	0x00506c6c
    1a84:	65726577 	ldrbvs	r6, [r2, #-1399]!	; 0xfffffa89
    1a88:	55420064 	strbpl	r0, [r2, #-100]	; 0xffffff9c
    1a8c:	525f5953 	subspl	r5, pc, #1359872	; 0x14c000
    1a90:	585f4645 	ldmdapl	pc, {r0, r2, r6, r9, sl, lr}^	; <UNPREDICTABLE>
    1a94:	004c4154 	subeq	r4, ip, r4, asr r1
    1a98:	59535542 	ldmdbpl	r3, {r1, r6, r8, sl, ip, lr}^
    1a9c:	4645525f 			; <UNDEFINED> instruction: 0x4645525f
    1aa0:	494d455f 	stmdbmi	sp, {r0, r1, r2, r3, r4, r6, r8, sl, lr}^
    1aa4:	32337500 	eorscc	r7, r3, #0, 10
    1aa8:	00766944 	rsbseq	r6, r6, r4, asr #18
    1aac:	42414e45 	submi	r4, r1, #1104	; 0x450
    1ab0:	4c5f454c 	cfldr64mi	mvdx4, [pc], {76}	; 0x4c
    1ab4:	45524e49 	ldrbmi	r4, [r2, #-3657]	; 0xfffff1b7
    1ab8:	4c495f47 	mcrrmi	15, 4, r5, r9, cr7
    1abc:	54494d49 	strbpl	r4, [r9], #-3401	; 0xfffff2b7
    1ac0:	69646400 	stmdbvs	r4!, {sl, sp, lr}^
    1ac4:	696d655f 	stmdbvs	sp!, {r0, r1, r2, r3, r4, r6, r8, sl, sp, lr}^
    1ac8:	6978455f 	ldmdbvs	r8!, {r0, r1, r2, r3, r4, r6, r8, sl, lr}^
    1acc:	74754174 	ldrbtvc	r4, [r5], #-372	; 0xfffffe8c
    1ad0:	6d654d6f 	stclvs	13, cr4, [r5, #-444]!	; 0xfffffe44
    1ad4:	5379726f 	cmnpl	r9, #-268435450	; 0xf0000006
    1ad8:	52666c65 	rsbpl	r6, r6, #25856	; 0x6500
    1adc:	65726665 	ldrbvs	r6, [r2, #-1637]!	; 0xfffff99b
    1ae0:	6f4d6873 	svcvs	0x004d6873
    1ae4:	45006564 	strmi	r6, [r0, #-1380]	; 0xfffffa9c
    1ae8:	315f494d 	cmpcc	pc, sp, asr #18
    1aec:	424d3832 	submi	r3, sp, #3276800	; 0x320000
    1af0:	4152445f 	cmpmi	r2, pc, asr r4
    1af4:	6464004d 	strbtvs	r0, [r4], #-77	; 0xffffffb3
    1af8:	6d655f69 	stclvs	15, cr5, [r5, #-420]!	; 0xfffffe5c
    1afc:	78455f69 	stmdavc	r5, {r0, r3, r5, r6, r8, r9, sl, fp, ip, lr}^
    1b00:	75417469 	strbvc	r7, [r1, #-1129]	; 0xfffffb97
    1b04:	654d6f74 	strbvs	r6, [sp, #-3956]	; 0xfffff08c
    1b08:	79726f6d 	ldmdbvc	r2!, {r0, r2, r3, r5, r6, r8, r9, sl, fp, sp, lr}^
    1b0c:	636f6c43 	cmnvs	pc, #17152	; 0x4300
    1b10:	7461476b 	strbtvc	r4, [r1], #-1899	; 0xfffff895
    1b14:	646f4d65 	strbtvs	r4, [pc], #-3429	; 1b1c <start+0x38>
    1b18:	52530065 	subspl	r0, r3, #101	; 0x65
    1b1c:	45524645 	ldrbmi	r4, [r2, #-1605]	; 0xfffff9bb
    1b20:	68004853 	stmdavs	r0, {r0, r1, r4, r6, fp, lr}
    1b24:	61755f77 	cmnvs	r5, r7, ror pc
    1b28:	62647472 	rsbvs	r7, r4, #1912602624	; 0x72000000
    1b2c:	72626967 	rsbvc	r6, r2, #1687552	; 0x19c000
    1b30:	00745f64 	rsbseq	r5, r4, r4, ror #30
    1b34:	5f494d45 	svcpl	0x00494d45
    1b38:	5f564544 	svcpl	0x00564544
    1b3c:	00524f4e 	subseq	r4, r2, lr, asr #30
    1b40:	53625f73 	cmnpl	r2, #460	; 0x1cc
    1b44:	4d636e79 	stclmi	14, cr6, [r3, #-484]!	; 0xfffffe1c
    1b48:	4565646f 	strbmi	r6, [r5, #-1135]!	; 0xfffffb91
    1b4c:	6c62616e 	stfvse	f6, [r2], #-440	; 0xfffffe48
    1b50:	4e006465 	cdpmi	4, 0, cr6, cr0, cr5, {3}
    1b54:	68436d75 	stmdavs	r3, {r0, r2, r4, r5, r6, r8, sl, fp, sp, lr}^
    1b58:	65537069 	ldrbvs	r7, [r3, #-105]	; 0xffffff97
    1b5c:	7463656c 	strbtvc	r6, [r3], #-1388	; 0xfffffa94
    1b60:	4f480073 	svcmi	0x00480073
    1b64:	49445453 	stmdbmi	r4, {r0, r1, r4, r6, sl, ip, lr}^
    1b68:	4e4f4353 	mcrmi	3, 2, r4, cr15, cr3, {2}
    1b6c:	45544544 	ldrbmi	r4, [r4, #-1348]	; 0xfffffabc
    1b70:	535f5443 	cmppl	pc, #1124073472	; 0x43000000
    1b74:	55544154 	ldrbpl	r4, [r4, #-340]	; 0xfffffeac
    1b78:	44560053 	ldrbmi	r0, [r6], #-83	; 0xffffffad
    1b7c:	5f563544 	svcpl	0x00563544
    1b80:	4f4f5244 	svcmi	0x004f5244
    1b84:	44520050 	ldrbmi	r0, [r2], #-80	; 0xffffffb0
    1b88:	5f445232 	svcpl	0x00445232
    1b8c:	4e525554 	mrcmi	5, 2, r5, cr2, cr4, {2}
    1b90:	5f776800 	svcpl	0x00776800
    1b94:	74726175 	ldrbtvc	r6, [r2], #-373	; 0xfffffe8b
    1b98:	72676264 	rsbvc	r6, r7, #100, 4	; 0x40000006
    1b9c:	655f7273 	ldrbvs	r7, [pc, #-627]	; 1931 <ddi_clocks_KeepPllPowered+0x2d>
    1ba0:	745f7263 	ldrbvc	r7, [pc], #-611	; 1ba8 <ddi_emi_PreOsInit+0x6c>
    1ba4:	41525400 	cmpmi	r2, r0, lsl #8
    1ba8:	43494646 	movtmi	r4, #38470	; 0x9646
    1bac:	5f53415f 	svcpl	0x0053415f
    1bb0:	42414e45 	submi	r4, r1, #1104	; 0x450
    1bb4:	4c00454c 	cfstr32mi	mvfx4, [r0], {76}	; 0x4c
    1bb8:	45475241 	strbmi	r5, [r7, #-577]	; 0xfffffdbf
    1bbc:	4152445f 	cmpmi	r2, pc, asr r4
    1bc0:	4e455f4d 	cdpmi	15, 4, cr5, cr5, cr13, {2}
    1bc4:	454c4241 	strbmi	r4, [ip, #-577]	; 0xfffffdbf
    1bc8:	72440044 	subvc	r0, r4, #68	; 0x44
    1bcc:	65526d61 	ldrbvs	r6, [r2, #-3425]	; 0xfffff29f
    1bd0:	00343367 	eorseq	r3, r4, r7, ror #6
    1bd4:	5f564944 	svcpl	0x00564944
    1bd8:	4c415458 	cfstrdmi	mvd5, [r1], {88}	; 0x58
    1bdc:	72754300 	rsbsvc	r4, r5, #0, 6
    1be0:	656d6954 	strbvs	r6, [sp, #-2388]!	; 0xfffff6ac
    1be4:	56494400 	strbpl	r4, [r9], -r0, lsl #8
    1be8:	494d455f 	stmdbmi	sp, {r0, r1, r2, r3, r4, r6, r8, sl, lr}^
    1bec:	41545300 	cmpmi	r4, r0, lsl #6
    1bf0:	54005452 	strpl	r5, [r0], #-1106	; 0xfffffbae
    1bf4:	58454450 	stmdapl	r5, {r4, r6, sl, lr}^
    1bf8:	53414300 	movtpl	r4, #4864	; 0x1300
    1bfc:	5f54414c 	svcpl	0x0054414c
    1c00:	004e494c 	subeq	r4, lr, ip, asr #18
    1c04:	5f696464 	svcpl	0x00696464
    1c08:	5f696d65 	svcpl	0x00696d65
    1c0c:	74696e49 	strbtvc	r6, [r9], #-3657	; 0xfffff1b7
    1c10:	636f6c43 	cmnvs	pc, #17152	; 0x4300
    1c14:	6570536b 	ldrbvs	r5, [r0, #-875]!	; 0xfffffc95
    1c18:	65446465 	strbvs	r6, [r4, #-1125]	; 0xfffffb9b
    1c1c:	646e6570 	strbtvs	r6, [lr], #-1392	; 0xfffffa90
    1c20:	56746e65 	ldrbtpl	r6, [r4], -r5, ror #28
    1c24:	00737261 	rsbseq	r7, r3, r1, ror #4
    1c28:	43444344 	movtmi	r4, #17220	; 0x4344
    1c2c:	3250345f 	subscc	r3, r0, #1593835520	; 0x5f000000
    1c30:	004f425f 	subeq	r4, pc, pc, asr r2	; <UNPREDICTABLE>
    1c34:	645f7768 	ldrbvs	r7, [pc], #-1896	; 1c3c <ddi_emi_PreOsInit+0x100>
    1c38:	5f6d6172 	svcpl	0x006d6172
    1c3c:	316c7463 	cmncc	ip, r3, ror #8
    1c40:	00745f30 	rsbseq	r5, r4, r0, lsr pc
    1c44:	55534552 	ldrbpl	r4, [r3, #-1362]	; 0xfffffaae
    1c48:	495f454d 	ldmdbmi	pc, {r0, r2, r3, r6, r8, sl, lr}^	; <UNPREDICTABLE>
    1c4c:	45005152 	strmi	r5, [r0, #-338]	; 0xfffffeae
    1c50:	41425f4e 	cmpmi	r2, lr, asr #30
    1c54:	4a444154 	bmi	11121ac <__bss_end__+0x110c06c>
    1c58:	4c4c4400 	cfstrdmi	mvd4, [ip], {-0}
    1c5c:	434f4c5f 	movtmi	r4, #64607	; 0xfc5f
    1c60:	4456004b 	ldrbmi	r0, [r6], #-75	; 0xffffffb5
    1c64:	425f4144 	subsmi	r4, pc, #68, 2
    1c68:	5542004f 	strbpl	r0, [r2, #-79]	; 0xffffffb1
    1c6c:	445f5953 	ldrbmi	r5, [pc], #-2387	; 1c74 <ddi_emi_PreOsInit+0x138>
    1c70:	525f4343 	subspl	r4, pc, #201326593	; 0xc000001
    1c74:	4e595345 	cdpmi	3, 5, cr5, cr9, cr5, {2}
    1c78:	4f4e0043 	svcmi	0x004e0043
    1c7c:	52505f52 	subspl	r5, r0, #328	; 0x148
    1c80:	4e455345 	cdpmi	3, 4, cr5, cr5, cr5, {2}
    1c84:	77680054 			; <UNDEFINED> instruction: 0x77680054
    1c88:	6172645f 	cmnvs	r2, pc, asr r4
    1c8c:	74635f6d 	strbtvc	r5, [r3], #-3949	; 0xfffff093
    1c90:	5f35316c 	svcpl	0x0035316c
    1c94:	524c0074 	subpl	r0, ip, #116	; 0x74
    1c98:	31434441 	cmpcc	r3, r1, asr #8
    1c9c:	5152495f 	cmppl	r2, pc, asr r9
    1ca0:	5f776800 	svcpl	0x00776800
    1ca4:	6d617264 	sfmvs	f7, 2, [r1, #-400]!	; 0xfffffe70
    1ca8:	6c74635f 	ldclvs	3, cr6, [r4], #-380	; 0xfffffe84
    1cac:	745f3033 	ldrbvc	r3, [pc], #-51	; 1cb4 <ddi_emi_PreOsInit+0x178>
    1cb0:	50434400 	subpl	r4, r3, r0, lsl #8
    1cb4:	5f53415f 	svcpl	0x0053415f
    1cb8:	42414e45 	submi	r4, r1, #1104	; 0x450
    1cbc:	6900454c 	stmdbvs	r0, {r2, r3, r6, r8, sl, lr}
    1cc0:	2e74696e 	cdpcs	9, 7, cr6, cr4, cr14, {3}
    1cc4:	69700063 	ldmdbvs	r0!, {r0, r1, r5, r6}^
    1cc8:	6e695f6e 	cdpvs	15, 6, cr5, cr9, cr14, {3}
    1ccc:	70007469 	andvc	r7, r0, r9, ror #8
    1cd0:	7265776f 	rsbvc	r7, r5, #29097984	; 0x1bc0000
    1cd4:	696e695f 	stmdbvs	lr!, {r0, r1, r2, r3, r4, r6, r8, fp, sp, lr}^
    1cd8:	70630074 	rsbvc	r0, r3, r4, ror r0
    1cdc:	74735f75 	ldrbtvc	r5, [r3], #-3957	; 0xfffff08b
    1ce0:	656c6261 	strbvs	r6, [ip, #-609]!	; 0xfffffd9f
    1ce4:	75706300 	ldrbvc	r6, [r0, #-768]!	; 0xfffffd00
    1ce8:	696e695f 	stmdbvs	lr!, {r0, r1, r2, r3, r4, r6, r8, fp, sp, lr}^
    1cec:	61740074 	cmnvs	r4, r4, ror r0
    1cf0:	6e695f67 	cdpvs	15, 6, cr5, cr9, cr7, {3}
    1cf4:	64727469 	ldrbtvs	r7, [r2], #-1129	; 0xfffffb97
    1cf8:	67617400 	strbvs	r7, [r1, -r0, lsl #8]!
    1cfc:	6f63615f 	svcvs	0x0063615f
    1d00:	62006e72 	andvs	r6, r0, #1824	; 0x720
    1d04:	5f65756c 	svcpl	0x0065756c
    1d08:	00736f70 	rsbseq	r6, r3, r0, ror pc
    1d0c:	636d656d 	cmnvs	sp, #457179136	; 0x1b400000
    1d10:	6e6f635f 	mcrvs	3, 3, r6, cr15, cr15, {2}
    1d14:	6c6f7274 	sfmvs	f7, 2, [pc], #-464	; 1b4c <ddi_emi_PreOsInit+0x10>
    1d18:	6765725f 			; <UNDEFINED> instruction: 0x6765725f
    1d1c:	6e696c00 	cdpvs	12, 6, cr6, cr9, cr0, {0}
    1d20:	632e7875 	teqvs	lr, #7667712	; 0x750000
    1d24:	64697600 	strbtvs	r7, [r9], #-1536	; 0xfffffa00
    1d28:	6d5f6f65 	ldclvs	15, cr6, [pc, #-404]	; 1b9c <ddi_emi_PreOsInit+0x60>
    1d2c:	0065646f 	rsbeq	r6, r5, pc, ror #8
    1d30:	65676170 	strbvs	r6, [r7, #-368]!	; 0xfffffe90
    1d34:	657a6973 	ldrbvs	r6, [sl, #-2419]!	; 0xfffff68d
    1d38:	64697600 	strbtvs	r7, [r9], #-1536	; 0xfffffa00
    1d3c:	695f6f65 	ldmdbvs	pc, {r0, r2, r5, r6, r8, r9, sl, fp, sp, lr}^	; <UNPREDICTABLE>
    1d40:	61677673 	smcvs	30563	; 0x7763
    1d44:	64697600 	strbtvs	r7, [r9], #-1536	; 0xfffffa00
    1d48:	705f6f65 	subsvc	r6, pc, r5, ror #30
    1d4c:	746e696f 	strbtvc	r6, [lr], #-2415	; 0xfffff691
    1d50:	666c0073 			; <UNDEFINED> instruction: 0x666c0073
    1d54:	65645f62 	strbvs	r5, [r4, #-3938]!	; 0xfffff09e
    1d58:	00687470 	rsbeq	r7, r8, r0, ror r4
    1d5c:	74696e69 	strbtvc	r6, [r9], #-3689	; 0xfffff197
    1d60:	6761745f 			; <UNDEFINED> instruction: 0x6761745f
    1d64:	7473696c 	ldrbtvc	r6, [r3], #-2412	; 0xfffff694
    1d68:	656d6600 	strbvs	r6, [sp, #-1536]!	; 0xfffffa00
    1d6c:	6b6c636d 	blvs	1b1ab28 <__bss_end__+0x1b149e8>
    1d70:	66646100 	strbtvs	r6, [r4], -r0, lsl #2
    1d74:	69726473 	ldmdbvs	r2!, {r0, r1, r4, r5, r6, sl, sp, lr}^
    1d78:	00736576 	rsbseq	r6, r3, r6, ror r5
    1d7c:	33755f5f 	cmncc	r5, #380	; 0x17c
    1d80:	61740032 	cmnvs	r4, r2, lsr r0
    1d84:	69765f67 	ldmdbvs	r6!, {r0, r1, r2, r5, r6, r8, r9, sl, fp, ip, lr}^
    1d88:	746f6564 	strbtvc	r6, [pc], #-1380	; 1d90 <ddi_emi_PreOsInit+0x254>
    1d8c:	00747865 	rsbseq	r7, r4, r5, ror #16
    1d90:	6c646d63 	stclvs	13, cr6, [r4], #-396	; 0xfffffe74
    1d94:	74006e69 	strvc	r6, [r0], #-3689	; 0xfffff197
    1d98:	765f6761 	ldrbvc	r6, [pc], -r1, ror #14
    1d9c:	6f656469 	svcvs	0x00656469
    1da0:	0062666c 	rsbeq	r6, r2, ip, ror #12
    1da4:	65646976 	strbvs	r6, [r4, #-2422]!	; 0xfffff68a
    1da8:	61705f6f 	cmnvs	r0, pc, ror #30
    1dac:	6c006567 	cfstr32vs	mvfx6, [r0], {103}	; 0x67
    1db0:	775f6266 	ldrbvc	r6, [pc, -r6, ror #4]
    1db4:	68746469 	ldmdavs	r4!, {r0, r3, r5, r6, sl, sp, lr}^
    1db8:	756f7300 	strbvc	r7, [pc, #-768]!	; 1ac0 <hw_power_Enable1p8+0x8c>
    1dbc:	6564646e 	strbvs	r6, [r4, #-1134]!	; 0xfffffb92
    1dc0:	6c756166 	ldfvse	f6, [r5], #-408	; 0xfffffe68
    1dc4:	69760074 	ldmdbvs	r6!, {r2, r4, r5, r6}^
    1dc8:	5f6f6564 	svcpl	0x006f6564
    1dcc:	5f616765 	svcpl	0x00616765
    1dd0:	74007862 	strvc	r7, [r0], #-2146	; 0xfffff79e
    1dd4:	725f6761 	subsvc	r6, pc, #25427968	; 0x1840000
    1dd8:	73697665 	cmnvc	r9, #105906176	; 0x6500000
    1ddc:	006e6f69 	rsbeq	r6, lr, r9, ror #30
    1de0:	68676968 	stmdavs	r7!, {r3, r5, r6, r8, fp, sp, lr}^
    1de4:	67617400 	strbvs	r7, [r1, -r0, lsl #8]!
    1de8:	646d635f 	strbtvs	r6, [sp], #-863	; 0xfffffca1
    1dec:	656e696c 	strbvs	r6, [lr, #-2412]!	; 0xfffff694
    1df0:	64657200 	strbtvs	r7, [r5], #-512	; 0xfffffe00
    1df4:	7a69735f 	bvc	1a5eb78 <__bss_end__+0x1a58a38>
    1df8:	6f720065 	svcvs	0x00720065
    1dfc:	6564746f 	strbvs	r7, [r4, #-1135]!	; 0xfffffb91
    1e00:	72760076 	rsbsvc	r0, r6, #118	; 0x76
    1e04:	705f6d61 	subsvc	r6, pc, r1, ror #26
    1e08:	73656761 	cmnvc	r5, #25427968	; 0x1840000
    1e0c:	62666c00 	rsbvs	r6, r6, #0, 24
    1e10:	6965685f 	stmdbvs	r5!, {r0, r1, r2, r3, r4, r6, fp, sp, lr}^
    1e14:	00746867 	rsbseq	r6, r4, r7, ror #16
    1e18:	5f676174 	svcpl	0x00676174
    1e1c:	636d656d 	cmnvs	sp, #457179136	; 0x1b400000
    1e20:	72006b6c 	andvc	r6, r0, #108, 22	; 0x1b000
    1e24:	5f647673 	svcpl	0x00647673
    1e28:	657a6973 	ldrbvs	r6, [sl, #-2419]!	; 0xfffff68d
    1e2c:	616c6600 	cmnvs	ip, r0, lsl #12
    1e30:	6c007367 	stcvs	3, cr7, [r0], {103}	; 0x67
    1e34:	625f6266 	subsvs	r6, pc, #1610612742	; 0x60000006
    1e38:	00657361 	rsbeq	r7, r5, r1, ror #6
    1e3c:	5f676174 	svcpl	0x00676174
    1e40:	646d6172 	strbtvs	r6, [sp], #-370	; 0xfffffe8e
    1e44:	006b7369 	rsbeq	r7, fp, r9, ror #6
    1e48:	65646976 	strbvs	r6, [r4, #-2422]!	; 0xfffff68a
    1e4c:	696c5f6f 	stmdbvs	ip!, {r0, r1, r2, r3, r5, r6, r8, r9, sl, fp, ip, lr}^
    1e50:	0073656e 	rsbseq	r6, r3, lr, ror #10
    1e54:	5f62666c 	svcpl	0x0062666c
    1e58:	656e696c 	strbvs	r6, [lr, #-2412]!	; 0xfffff694
    1e5c:	676e656c 	strbvs	r6, [lr, -ip, ror #10]!
    1e60:	76006874 			; <UNDEFINED> instruction: 0x76006874
    1e64:	6f656469 	svcvs	0x00656469
    1e68:	6c6f635f 	stclvs	3, cr6, [pc], #-380	; 1cf4 <ddi_emi_PreOsInit+0x1b8>
    1e6c:	5f5f0073 	svcpl	0x005f0073
    1e70:	00363175 	eorseq	r3, r6, r5, ror r1
    1e74:	38755f5f 	ldmdacc	r5!, {r0, r1, r2, r3, r4, r6, r8, r9, sl, fp, ip, lr}^
    1e78:	76737200 	ldrbtvc	r7, [r3], -r0, lsl #4
    1e7c:	6f705f64 	svcvs	0x00705f64
    1e80:	72670073 	rsbvc	r0, r7, #115	; 0x73
    1e84:	5f6e6565 	svcpl	0x006e6565
    1e88:	657a6973 	ldrbvs	r6, [sl, #-2419]!	; 0xfffff68d
    1e8c:	62666c00 	rsbvs	r6, r6, #0, 24
    1e90:	7a69735f 	bvc	1a5ec14 <__bss_end__+0x1a58ad4>
    1e94:	72670065 	rsbvc	r0, r7, #101	; 0x65
    1e98:	5f6e6565 	svcpl	0x006e6565
    1e9c:	00736f70 	rsbseq	r6, r3, r0, ror pc
    1ea0:	5f676174 	svcpl	0x00676174
    1ea4:	65726f63 	ldrbvs	r6, [r2, #-3939]!	; 0xfffff09d
    1ea8:	67617400 	strbvs	r7, [r1, -r0, lsl #8]!
    1eac:	6165685f 	cmnvs	r5, pc, asr r8
    1eb0:	00726564 	rsbseq	r6, r2, r4, ror #10
    1eb4:	5f676174 	svcpl	0x00676174
    1eb8:	336d656d 	cmncc	sp, #457179136	; 0x1b400000
    1ebc:	6c620032 	stclvs	0, cr0, [r2], #-200	; 0xffffff38
    1ec0:	735f6575 	cmpvc	pc, #490733568	; 0x1d400000
    1ec4:	00657a69 	rsbeq	r7, r5, r9, ror #20
    1ec8:	5f676174 	svcpl	0x00676174
    1ecc:	69726573 	ldmdbvs	r2!, {r0, r1, r4, r5, r6, r8, sl, sp, lr}^
    1ed0:	726e6c61 	rsbvc	r6, lr, #24832	; 0x6100
    1ed4:	64657200 	strbtvs	r7, [r5], #-512	; 0xfffffe00
    1ed8:	736f705f 	cmnvc	pc, #95	; 0x5f
    1edc:	72747300 	rsbsvc	r7, r4, #0, 6
    1ee0:	7000632e 	andvc	r6, r0, lr, lsr #6
    1ee4:	775f776f 	ldrbvc	r7, [pc, -pc, ror #14]
    1ee8:	6f746100 	svcvs	0x00746100
    1eec:	00785f69 	rsbseq	r5, r8, r9, ror #30
    1ef0:	786f7461 	stmdavc	pc!, {r0, r5, r6, sl, ip, sp, lr}^	; <UNPREDICTABLE>
    1ef4:	72747300 	rsbsvc	r7, r4, #0, 6
    1ef8:	006e656c 	rsbeq	r6, lr, ip, ror #10
    1efc:	74736564 	ldrbtvc	r6, [r3], #-1380	; 0xfffffa9c
    1f00:	72747300 	rsbsvc	r7, r4, #0, 6
    1f04:	00797063 	rsbseq	r7, r9, r3, rrx
    1f08:	616f7469 	cmnvs	pc, r9, ror #8
    1f0c:	6f746900 	svcvs	0x00746900
    1f10:	74610078 	strbtvc	r0, [r1], #-120	; 0xffffff88
    1f14:	7300696f 	movwvc	r6, #2415	; 0x96f
    1f18:	6d637274 	sfmvs	f7, 2, [r3, #-464]!	; 0xfffffe30
    1f1c:	706e0070 	rsbvc	r0, lr, r0, ror r0
    1f20:	6d007274 	sfmvs	f7, 4, [r0, #-464]	; 0xfffffe30
    1f24:	70636d65 	rsbvc	r6, r3, r5, ror #26
    1f28:	6e690079 	mcrvs	0, 3, r0, cr9, cr9, {3}
    1f2c:	65676574 	strbvs	r6, [r7, #-1396]!	; 0xfffffa8c
    1f30:	6d630072 	stclvs	0, cr0, [r3, #-456]!	; 0xfffffe38
    1f34:	65675f64 	strbvs	r5, [r7, #-3940]!	; 0xfffff09c
    1f38:	6d630074 	stclvs	0, cr0, [r3, #-464]!	; 0xfffffe30
    1f3c:	6f675f64 	svcvs	0x00675f64
    1f40:	646d6300 	strbtvs	r6, [sp], #-768	; 0xfffffd00
    1f44:	66667562 	strbtvs	r7, [r6], -r2, ror #10
    1f48:	646d6300 	strbtvs	r6, [sp], #-768	; 0xfffffd00
    1f4c:	6d00632e 	stcvs	3, cr6, [r0, #-184]	; 0xffffff48
    1f50:	616c6564 	cmnvs	ip, r4, ror #10
    1f54:	72610079 	rsbvc	r0, r1, #121	; 0x79
    1f58:	64007667 	strvs	r7, [r0], #-1639	; 0xfffff999
    1f5c:	79616c65 	stmdbvc	r1!, {r0, r2, r5, r6, sl, fp, sp, lr}^
    1f60:	7400632e 	strvc	r6, [r0], #-814	; 0xfffffcd2
    1f64:	00656d69 	rsbeq	r6, r5, r9, ror #26
    1f68:	6c656475 	cfstrdvs	mvd6, [r5], #-468	; 0xfffffe2c
    1f6c:	63007961 	movwvs	r7, #2401	; 0x961
    1f70:	6e696168 	powvsez	f6, f1, #0.0
    1f74:	616d6400 	cmnvs	sp, r0, lsl #8
    1f78:	6174735f 	cmnvs	r4, pc, asr r3
    1f7c:	73007472 	movwvc	r7, #1138	; 0x472
    1f80:	00616d65 	rsbeq	r6, r1, r5, ror #26
    1f84:	64767372 	ldrbtvs	r7, [r6], #-882	; 0xfffffc8e
    1f88:	73720031 	cmnvc	r2, #49	; 0x31
    1f8c:	00336476 	eorseq	r6, r3, r6, ror r4
    1f90:	615f7768 	cmpvs	pc, r8, ror #14
    1f94:	5f686270 	svcpl	0x00686270
    1f98:	5f646d63 	svcpl	0x00646d63
    1f9c:	66730074 			; <UNDEFINED> instruction: 0x66730074
    1fa0:	74737274 	ldrbtvc	r7, [r3], #-628	; 0xfffffd8c
    1fa4:	42504100 	subsmi	r4, r0, #0, 2
    1fa8:	48435f48 	stmdami	r3, {r3, r6, r8, r9, sl, fp, ip, lr}^
    1fac:	756f6300 	strbvc	r6, [pc, #-768]!	; 1cb4 <ddi_emi_PreOsInit+0x178>
    1fb0:	6100746e 	tstvs	r0, lr, ror #8
    1fb4:	5f686270 	svcpl	0x00686270
    1fb8:	77006863 	strvc	r6, [r0, -r3, ror #16]
    1fbc:	34746961 	ldrbtcc	r6, [r4], #-2401	; 0xfffff69f
    1fc0:	64616572 	strbtvs	r6, [r1], #-1394	; 0xfffffa8e
    1fc4:	6d697400 	cfstrdvs	mvd7, [r9, #-0]
    1fc8:	6974756f 	ldmdbvs	r4!, {r0, r1, r2, r3, r5, r6, r8, sl, ip, sp, lr}^
    1fcc:	6e657172 	mcrvs	1, 3, r7, cr5, cr2, {3}
    1fd0:	67657200 	strbvs	r7, [r5, -r0, lsl #4]!
    1fd4:	786e0034 	stmdavc	lr!, {r2, r4, r5}^
    1fd8:	646d6374 	strbtvs	r6, [sp], #-884	; 0xfffffc8c
    1fdc:	6d647500 	cfstr64vs	mvdx7, [r4, #-0]
    1fe0:	6d630061 	stclvs	0, cr0, [r3, #-388]!	; 0xfffffe7c
    1fe4:	726f7764 	rsbvc	r7, pc, #100, 14	; 0x1900000
    1fe8:	636c0064 	cmnvs	ip, #100	; 0x64
    1fec:	0073636b 	rsbseq	r6, r3, fp, ror #6
    1ff0:	75626564 	strbvc	r6, [r2, #-1380]!	; 0xfffffa9c
    1ff4:	64003167 	strvs	r3, [r0], #-359	; 0xfffffe99
    1ff8:	67756265 	ldrbvs	r6, [r5, -r5, ror #4]!
    1ffc:	6d640032 	stclvs	0, cr0, [r4, #-200]!	; 0xffffff38
    2000:	30303039 	eorscc	r3, r0, r9, lsr r0
    2004:	6972775f 	ldmdbvs	r2!, {r0, r1, r2, r3, r4, r6, r8, r9, sl, ip, sp, lr}^
    2008:	67006574 	smlsdxvs	r0, r4, r5, r6
    200c:	2e696d70 	mcrcs	13, 3, r6, cr9, cr0, {3}
    2010:	77680063 	strbvc	r0, [r8, -r3, rrx]!
    2014:	6d70675f 	ldclvs	7, cr6, [r0, #-380]!	; 0xfffffe84
    2018:	74635f69 	strbtvc	r5, [r3], #-3945	; 0xfffff097
    201c:	5f306c72 	svcpl	0x00306c72
    2020:	615f0074 	cmpvs	pc, r4, ror r0	; <UNPREDICTABLE>
    2024:	5f686270 	svcpl	0x00686270
    2028:	5f616d64 	svcpl	0x00616d64
    202c:	696d7067 	stmdbvs	sp!, {r0, r1, r2, r5, r6, ip, sp, lr}^
    2030:	00745f31 	rsbseq	r5, r4, r1, lsr pc
    2034:	63727563 	cmnvs	r2, #415236096	; 0x18c00000
    2038:	6300646d 	movwvs	r6, #1133	; 0x46d
    203c:	61676b6c 	cmnvs	r7, ip, ror #22
    2040:	69006574 	stmdbvs	r0, {r2, r4, r5, r6, r8, sl, sp, lr}
    2044:	6d637172 	stfvse	f7, [r3, #-456]!	; 0xfffffe38
    2048:	6d640070 	stclvs	0, cr0, [r4, #-448]!	; 0xfffffe40
    204c:	30303039 	eorscc	r3, r0, r9, lsr r0
    2050:	646e695f 	strbtvs	r6, [lr], #-2399	; 0xfffff6a1
    2054:	67007865 	strvs	r7, [r0, -r5, ror #16]
    2058:	5f696d70 	svcpl	0x00696d70
    205c:	6c727463 	cfldrdvs	mvd7, [r2], #-396	; 0xfffffe74
    2060:	61770030 	cmnvs	r7, r0, lsr r0
    2064:	65347469 	ldrvs	r7, [r4, #-1129]!	; 0xfffffb97
    2068:	6400646e 	strvs	r6, [r0], #-1134	; 0xfffffb92
    206c:	3030396d 	eorscc	r3, r0, sp, ror #18
    2070:	65725f30 	ldrbvs	r5, [r2, #-3888]!	; 0xfffff0d0
    2074:	74006461 	strvc	r6, [r0], #-1121	; 0xfffffb9f
    2078:	006d7265 	rsbeq	r7, sp, r5, ror #4
    207c:	63746567 	cmnvs	r4, #432013312	; 0x19c00000
    2080:	75007268 	strvc	r7, [r0, #-616]	; 0xfffffd98
    2084:	2e747261 	cdpcs	2, 7, cr7, cr4, cr1, {3}
    2088:	68630063 	stmdavs	r3!, {r0, r1, r5, r6}^
    208c:	006b6365 	rsbeq	r6, fp, r5, ror #6
    2090:	66746567 	ldrbtvs	r6, [r4], -r7, ror #10
    2094:	00656c69 	rsbeq	r6, r5, r9, ror #24
    2098:	73746567 	cmnvc	r4, #432013312	; 0x19c00000
    209c:	706d6300 	rsbvc	r6, sp, r0, lsl #6
    20a0:	006d756e 	rsbeq	r7, sp, lr, ror #10
    20a4:	63747570 	cmnvs	r4, #112, 10	; 0x1c000000
    20a8:	70007268 	andvc	r7, r0, r8, ror #4
    20ac:	00737475 	rsbseq	r7, r3, r5, ror r4

Disassembly of section .debug_loc:

00000000 <.debug_loc>:
   0:	00000000 	andeq	r0, r0, r0
   4:	00000004 	andeq	r0, r0, r4
   8:	007d0002 	rsbseq	r0, sp, r2
   c:	00000004 	andeq	r0, r0, r4
  10:	00000008 	andeq	r0, r0, r8
  14:	087d0002 	ldmdaeq	sp!, {r1}^
  18:	00000008 	andeq	r0, r0, r8
  1c:	000000e8 	andeq	r0, r0, r8, ror #1
  20:	047b0002 	ldrbteq	r0, [fp], #-2
	...
  2c:	000000e8 	andeq	r0, r0, r8, ror #1
  30:	000000ec 	andeq	r0, r0, ip, ror #1
  34:	007d0002 	rsbseq	r0, sp, r2
  38:	000000ec 	andeq	r0, r0, ip, ror #1
  3c:	000000f0 	strdeq	r0, [r0], -r0	; <UNPREDICTABLE>
  40:	087d0002 	ldmdaeq	sp!, {r1}^
  44:	000000f0 	strdeq	r0, [r0], -r0	; <UNPREDICTABLE>
  48:	00000258 	andeq	r0, r0, r8, asr r2
  4c:	047b0002 	ldrbteq	r0, [fp], #-2
	...
  5c:	00000004 	andeq	r0, r0, r4
  60:	007d0002 	rsbseq	r0, sp, r2
  64:	00000004 	andeq	r0, r0, r4
  68:	00000008 	andeq	r0, r0, r8
  6c:	047d0002 	ldrbteq	r0, [sp], #-2
  70:	00000008 	andeq	r0, r0, r8
  74:	00000030 	andeq	r0, r0, r0, lsr r0
  78:	047b0002 	ldrbteq	r0, [fp], #-2
	...
  84:	00000030 	andeq	r0, r0, r0, lsr r0
  88:	00000034 	andeq	r0, r0, r4, lsr r0
  8c:	007d0002 	rsbseq	r0, sp, r2
  90:	00000034 	andeq	r0, r0, r4, lsr r0
  94:	00000038 	andeq	r0, r0, r8, lsr r0
  98:	047d0002 	ldrbteq	r0, [sp], #-2
  9c:	00000038 	andeq	r0, r0, r8, lsr r0
  a0:	00000044 	andeq	r0, r0, r4, asr #32
  a4:	047b0002 	ldrbteq	r0, [fp], #-2
	...
  b0:	00000044 	andeq	r0, r0, r4, asr #32
  b4:	00000048 	andeq	r0, r0, r8, asr #32
  b8:	007d0002 	rsbseq	r0, sp, r2
  bc:	00000048 	andeq	r0, r0, r8, asr #32
  c0:	0000004c 	andeq	r0, r0, ip, asr #32
  c4:	047d0002 	ldrbteq	r0, [sp], #-2
  c8:	0000004c 	andeq	r0, r0, ip, asr #32
  cc:	00000080 	andeq	r0, r0, r0, lsl #1
  d0:	047b0002 	ldrbteq	r0, [fp], #-2
	...
  dc:	00000080 	andeq	r0, r0, r0, lsl #1
  e0:	00000084 	andeq	r0, r0, r4, lsl #1
  e4:	007d0002 	rsbseq	r0, sp, r2
  e8:	00000084 	andeq	r0, r0, r4, lsl #1
  ec:	00000088 	andeq	r0, r0, r8, lsl #1
  f0:	047d0002 	ldrbteq	r0, [sp], #-2
  f4:	00000088 	andeq	r0, r0, r8, lsl #1
  f8:	000000b0 	strheq	r0, [r0], -r0	; <UNPREDICTABLE>
  fc:	047b0002 	ldrbteq	r0, [fp], #-2
	...
 108:	000000b0 	strheq	r0, [r0], -r0	; <UNPREDICTABLE>
 10c:	000000b4 	strheq	r0, [r0], -r4
 110:	007d0002 	rsbseq	r0, sp, r2
 114:	000000b4 	strheq	r0, [r0], -r4
 118:	000000b8 	strheq	r0, [r0], -r8
 11c:	047d0002 	ldrbteq	r0, [sp], #-2
 120:	000000b8 	strheq	r0, [r0], -r8
 124:	00000144 	andeq	r0, r0, r4, asr #2
 128:	047b0002 	ldrbteq	r0, [fp], #-2
	...
 134:	00000144 	andeq	r0, r0, r4, asr #2
 138:	00000148 	andeq	r0, r0, r8, asr #2
 13c:	007d0002 	rsbseq	r0, sp, r2
 140:	00000148 	andeq	r0, r0, r8, asr #2
 144:	0000014c 	andeq	r0, r0, ip, asr #2
 148:	047d0002 	ldrbteq	r0, [sp], #-2
 14c:	0000014c 	andeq	r0, r0, ip, asr #2
 150:	000001b4 			; <UNDEFINED> instruction: 0x000001b4
 154:	047b0002 	ldrbteq	r0, [fp], #-2
	...
 160:	000001b4 			; <UNDEFINED> instruction: 0x000001b4
 164:	000001b8 			; <UNDEFINED> instruction: 0x000001b8
 168:	007d0002 	rsbseq	r0, sp, r2
 16c:	000001b8 			; <UNDEFINED> instruction: 0x000001b8
 170:	000001bc 			; <UNDEFINED> instruction: 0x000001bc
 174:	047d0002 	ldrbteq	r0, [sp], #-2
 178:	000001bc 			; <UNDEFINED> instruction: 0x000001bc
 17c:	00000398 	muleq	r0, r8, r3
 180:	047b0002 	ldrbteq	r0, [fp], #-2
	...
 18c:	00000398 	muleq	r0, r8, r3
 190:	0000039c 	muleq	r0, ip, r3
 194:	007d0002 	rsbseq	r0, sp, r2
 198:	0000039c 	muleq	r0, ip, r3
 19c:	000003a0 	andeq	r0, r0, r0, lsr #7
 1a0:	047d0002 	ldrbteq	r0, [sp], #-2
 1a4:	000003a0 	andeq	r0, r0, r0, lsr #7
 1a8:	000004dc 	ldrdeq	r0, [r0], -ip
 1ac:	047b0002 	ldrbteq	r0, [fp], #-2
	...
 1b8:	000004dc 	ldrdeq	r0, [r0], -ip
 1bc:	000004e0 	andeq	r0, r0, r0, ror #9
 1c0:	007d0002 	rsbseq	r0, sp, r2
 1c4:	000004e0 	andeq	r0, r0, r0, ror #9
 1c8:	000004e4 	andeq	r0, r0, r4, ror #9
 1cc:	087d0002 	ldmdaeq	sp!, {r1}^
 1d0:	000004e4 	andeq	r0, r0, r4, ror #9
 1d4:	00000508 	andeq	r0, r0, r8, lsl #10
 1d8:	047b0002 	ldrbteq	r0, [fp], #-2
	...
 1e4:	00000508 	andeq	r0, r0, r8, lsl #10
 1e8:	0000050c 	andeq	r0, r0, ip, lsl #10
 1ec:	007d0002 	rsbseq	r0, sp, r2
 1f0:	0000050c 	andeq	r0, r0, ip, lsl #10
 1f4:	00000510 	andeq	r0, r0, r0, lsl r5
 1f8:	047d0002 	ldrbteq	r0, [sp], #-2
 1fc:	00000510 	andeq	r0, r0, r0, lsl r5
 200:	00000560 	andeq	r0, r0, r0, ror #10
 204:	047b0002 	ldrbteq	r0, [fp], #-2
	...
 210:	00000560 	andeq	r0, r0, r0, ror #10
 214:	00000564 	andeq	r0, r0, r4, ror #10
 218:	007d0002 	rsbseq	r0, sp, r2
 21c:	00000564 	andeq	r0, r0, r4, ror #10
 220:	00000568 	andeq	r0, r0, r8, ror #10
 224:	047d0002 	ldrbteq	r0, [sp], #-2
 228:	00000568 	andeq	r0, r0, r8, ror #10
 22c:	000005e0 	andeq	r0, r0, r0, ror #11
 230:	047b0002 	ldrbteq	r0, [fp], #-2
	...
 23c:	000005e0 	andeq	r0, r0, r0, ror #11
 240:	000005e4 	andeq	r0, r0, r4, ror #11
 244:	007d0002 	rsbseq	r0, sp, r2
 248:	000005e4 	andeq	r0, r0, r4, ror #11
 24c:	000005e8 	andeq	r0, r0, r8, ror #11
 250:	087d0002 	ldmdaeq	sp!, {r1}^
 254:	000005e8 	andeq	r0, r0, r8, ror #11
 258:	0000060c 	andeq	r0, r0, ip, lsl #12
 25c:	047b0002 	ldrbteq	r0, [fp], #-2
	...
 268:	0000060c 	andeq	r0, r0, ip, lsl #12
 26c:	00000610 	andeq	r0, r0, r0, lsl r6
 270:	007d0002 	rsbseq	r0, sp, r2
 274:	00000610 	andeq	r0, r0, r0, lsl r6
 278:	00000614 	andeq	r0, r0, r4, lsl r6
 27c:	047d0002 	ldrbteq	r0, [sp], #-2
 280:	00000614 	andeq	r0, r0, r4, lsl r6
 284:	000006ac 	andeq	r0, r0, ip, lsr #13
 288:	047b0002 	ldrbteq	r0, [fp], #-2
	...
 294:	000006ac 	andeq	r0, r0, ip, lsr #13
 298:	000006b0 			; <UNDEFINED> instruction: 0x000006b0
 29c:	007d0002 	rsbseq	r0, sp, r2
 2a0:	000006b0 			; <UNDEFINED> instruction: 0x000006b0
 2a4:	000006b4 			; <UNDEFINED> instruction: 0x000006b4
 2a8:	087d0002 	ldmdaeq	sp!, {r1}^
 2ac:	000006b4 			; <UNDEFINED> instruction: 0x000006b4
 2b0:	000006e8 	andeq	r0, r0, r8, ror #13
 2b4:	047b0002 	ldrbteq	r0, [fp], #-2
	...
 2c0:	000006e8 	andeq	r0, r0, r8, ror #13
 2c4:	000006ec 	andeq	r0, r0, ip, ror #13
 2c8:	007d0002 	rsbseq	r0, sp, r2
 2cc:	000006ec 	andeq	r0, r0, ip, ror #13
 2d0:	000006f0 	strdeq	r0, [r0], -r0	; <UNPREDICTABLE>
 2d4:	087d0002 	ldmdaeq	sp!, {r1}^
 2d8:	000006f0 	strdeq	r0, [r0], -r0	; <UNPREDICTABLE>
 2dc:	0000072c 	andeq	r0, r0, ip, lsr #14
 2e0:	047b0002 	ldrbteq	r0, [fp], #-2
	...
 2ec:	0000072c 	andeq	r0, r0, ip, lsr #14
 2f0:	00000730 	andeq	r0, r0, r0, lsr r7
 2f4:	007d0002 	rsbseq	r0, sp, r2
 2f8:	00000730 	andeq	r0, r0, r0, lsr r7
 2fc:	00000734 	andeq	r0, r0, r4, lsr r7
 300:	087d0002 	ldmdaeq	sp!, {r1}^
 304:	00000734 	andeq	r0, r0, r4, lsr r7
 308:	000007dc 	ldrdeq	r0, [r0], -ip
 30c:	047b0002 	ldrbteq	r0, [fp], #-2
	...
 318:	000007dc 	ldrdeq	r0, [r0], -ip
 31c:	000007e0 	andeq	r0, r0, r0, ror #15
 320:	007d0002 	rsbseq	r0, sp, r2
 324:	000007e0 	andeq	r0, r0, r0, ror #15
 328:	000007e4 	andeq	r0, r0, r4, ror #15
 32c:	087d0002 	ldmdaeq	sp!, {r1}^
 330:	000007e4 	andeq	r0, r0, r4, ror #15
 334:	0000088c 	andeq	r0, r0, ip, lsl #17
 338:	047b0002 	ldrbteq	r0, [fp], #-2
	...
 344:	0000088c 	andeq	r0, r0, ip, lsl #17
 348:	00000890 	muleq	r0, r0, r8
 34c:	007d0002 	rsbseq	r0, sp, r2
 350:	00000890 	muleq	r0, r0, r8
 354:	00000894 	muleq	r0, r4, r8
 358:	087d0002 	ldmdaeq	sp!, {r1}^
 35c:	00000894 	muleq	r0, r4, r8
 360:	000008e4 	andeq	r0, r0, r4, ror #17
 364:	047b0002 	ldrbteq	r0, [fp], #-2
	...
 370:	000008e4 	andeq	r0, r0, r4, ror #17
 374:	000008e8 	andeq	r0, r0, r8, ror #17
 378:	007d0002 	rsbseq	r0, sp, r2
 37c:	000008e8 	andeq	r0, r0, r8, ror #17
 380:	000008ec 	andeq	r0, r0, ip, ror #17
 384:	087d0002 	ldmdaeq	sp!, {r1}^
 388:	000008ec 	andeq	r0, r0, ip, ror #17
 38c:	00000ee0 	andeq	r0, r0, r0, ror #29
 390:	047b0002 	ldrbteq	r0, [fp], #-2
	...
 39c:	00000ee0 	andeq	r0, r0, r0, ror #29
 3a0:	00000ee4 	andeq	r0, r0, r4, ror #29
 3a4:	007d0002 	rsbseq	r0, sp, r2
 3a8:	00000ee4 	andeq	r0, r0, r4, ror #29
 3ac:	00000ee8 	andeq	r0, r0, r8, ror #29
 3b0:	047d0002 	ldrbteq	r0, [sp], #-2
 3b4:	00000ee8 	andeq	r0, r0, r8, ror #29
 3b8:	00000f04 	andeq	r0, r0, r4, lsl #30
 3bc:	047b0002 	ldrbteq	r0, [fp], #-2
	...
 3c8:	00000f04 	andeq	r0, r0, r4, lsl #30
 3cc:	00000f08 	andeq	r0, r0, r8, lsl #30
 3d0:	007d0002 	rsbseq	r0, sp, r2
 3d4:	00000f08 	andeq	r0, r0, r8, lsl #30
 3d8:	00000f0c 	andeq	r0, r0, ip, lsl #30
 3dc:	047d0002 	ldrbteq	r0, [sp], #-2
 3e0:	00000f0c 	andeq	r0, r0, ip, lsl #30
 3e4:	00001570 	andeq	r1, r0, r0, ror r5
 3e8:	047b0002 	ldrbteq	r0, [fp], #-2
	...
 3f4:	00001570 	andeq	r1, r0, r0, ror r5
 3f8:	00001574 	andeq	r1, r0, r4, ror r5
 3fc:	007d0002 	rsbseq	r0, sp, r2
 400:	00001574 	andeq	r1, r0, r4, ror r5
 404:	00001578 	andeq	r1, r0, r8, ror r5
 408:	047d0002 	ldrbteq	r0, [sp], #-2
 40c:	00001578 	andeq	r1, r0, r8, ror r5
 410:	000015a8 	andeq	r1, r0, r8, lsr #11
 414:	047b0002 	ldrbteq	r0, [fp], #-2
	...
 420:	000015a8 	andeq	r1, r0, r8, lsr #11
 424:	000015ac 	andeq	r1, r0, ip, lsr #11
 428:	007d0002 	rsbseq	r0, sp, r2
 42c:	000015ac 	andeq	r1, r0, ip, lsr #11
 430:	000015b0 			; <UNDEFINED> instruction: 0x000015b0
 434:	087d0002 	ldmdaeq	sp!, {r1}^
 438:	000015b0 			; <UNDEFINED> instruction: 0x000015b0
 43c:	000015d4 	ldrdeq	r1, [r0], -r4
 440:	047b0002 	ldrbteq	r0, [fp], #-2
	...
 44c:	000015d4 	ldrdeq	r1, [r0], -r4
 450:	000015d8 	ldrdeq	r1, [r0], -r8
 454:	007d0002 	rsbseq	r0, sp, r2
 458:	000015d8 	ldrdeq	r1, [r0], -r8
 45c:	000015dc 	ldrdeq	r1, [r0], -ip
 460:	087d0002 	ldmdaeq	sp!, {r1}^
 464:	000015dc 	ldrdeq	r1, [r0], -ip
 468:	000015e4 	andeq	r1, r0, r4, ror #11
 46c:	047b0002 	ldrbteq	r0, [fp], #-2
	...
 478:	000015e4 	andeq	r1, r0, r4, ror #11
 47c:	000015e8 	andeq	r1, r0, r8, ror #11
 480:	007d0002 	rsbseq	r0, sp, r2
 484:	000015e8 	andeq	r1, r0, r8, ror #11
 488:	000015ec 	andeq	r1, r0, ip, ror #11
 48c:	087d0002 	ldmdaeq	sp!, {r1}^
 490:	000015ec 	andeq	r1, r0, ip, ror #11
 494:	00001648 	andeq	r1, r0, r8, asr #12
 498:	047b0002 	ldrbteq	r0, [fp], #-2
	...
 4a4:	00001648 	andeq	r1, r0, r8, asr #12
 4a8:	0000164c 	andeq	r1, r0, ip, asr #12
 4ac:	007d0002 	rsbseq	r0, sp, r2
 4b0:	0000164c 	andeq	r1, r0, ip, asr #12
 4b4:	00001650 	andeq	r1, r0, r0, asr r6
 4b8:	047d0002 	ldrbteq	r0, [sp], #-2
 4bc:	00001650 	andeq	r1, r0, r0, asr r6
 4c0:	00001694 	muleq	r0, r4, r6
 4c4:	047b0002 	ldrbteq	r0, [fp], #-2
	...
 4d0:	00001694 	muleq	r0, r4, r6
 4d4:	00001698 	muleq	r0, r8, r6
 4d8:	007d0002 	rsbseq	r0, sp, r2
 4dc:	00001698 	muleq	r0, r8, r6
 4e0:	0000169c 	muleq	r0, ip, r6
 4e4:	047d0002 	ldrbteq	r0, [sp], #-2
 4e8:	0000169c 	muleq	r0, ip, r6
 4ec:	000016e0 	andeq	r1, r0, r0, ror #13
 4f0:	047b0002 	ldrbteq	r0, [fp], #-2
	...
 4fc:	000016e0 	andeq	r1, r0, r0, ror #13
 500:	000016e4 	andeq	r1, r0, r4, ror #13
 504:	007d0002 	rsbseq	r0, sp, r2
 508:	000016e4 	andeq	r1, r0, r4, ror #13
 50c:	000016e8 	andeq	r1, r0, r8, ror #13
 510:	047d0002 	ldrbteq	r0, [sp], #-2
 514:	000016e8 	andeq	r1, r0, r8, ror #13
 518:	00001754 	andeq	r1, r0, r4, asr r7
 51c:	047b0002 	ldrbteq	r0, [fp], #-2
	...
 528:	00001754 	andeq	r1, r0, r4, asr r7
 52c:	00001758 	andeq	r1, r0, r8, asr r7
 530:	007d0002 	rsbseq	r0, sp, r2
 534:	00001758 	andeq	r1, r0, r8, asr r7
 538:	0000175c 	andeq	r1, r0, ip, asr r7
 53c:	047d0002 	ldrbteq	r0, [sp], #-2
 540:	0000175c 	andeq	r1, r0, ip, asr r7
 544:	000017e8 	andeq	r1, r0, r8, ror #15
 548:	047b0002 	ldrbteq	r0, [fp], #-2
	...
 554:	000017e8 	andeq	r1, r0, r8, ror #15
 558:	000017ec 	andeq	r1, r0, ip, ror #15
 55c:	007d0002 	rsbseq	r0, sp, r2
 560:	000017ec 	andeq	r1, r0, ip, ror #15
 564:	000017f0 	strdeq	r1, [r0], -r0
 568:	047d0002 	ldrbteq	r0, [sp], #-2
 56c:	000017f0 	strdeq	r1, [r0], -r0
 570:	00001ae8 	andeq	r1, r0, r8, ror #21
 574:	047b0002 	ldrbteq	r0, [fp], #-2
	...
 580:	00001ae8 	andeq	r1, r0, r8, ror #21
 584:	00001aec 	andeq	r1, r0, ip, ror #21
 588:	007d0002 	rsbseq	r0, sp, r2
 58c:	00001aec 	andeq	r1, r0, ip, ror #21
 590:	00001af0 	strdeq	r1, [r0], -r0
 594:	047d0002 	ldrbteq	r0, [sp], #-2
 598:	00001af0 	strdeq	r1, [r0], -r0
 59c:	00001c3c 	andeq	r1, r0, ip, lsr ip
 5a0:	047b0002 	ldrbteq	r0, [fp], #-2
	...
 5ac:	00001c3c 	andeq	r1, r0, ip, lsr ip
 5b0:	00001c40 	andeq	r1, r0, r0, asr #24
 5b4:	007d0002 	rsbseq	r0, sp, r2
 5b8:	00001c40 	andeq	r1, r0, r0, asr #24
 5bc:	00001c44 	andeq	r1, r0, r4, asr #24
 5c0:	047d0002 	ldrbteq	r0, [sp], #-2
 5c4:	00001c44 	andeq	r1, r0, r4, asr #24
 5c8:	00001f48 	andeq	r1, r0, r8, asr #30
 5cc:	047b0002 	ldrbteq	r0, [fp], #-2
	...
 5d8:	00001f48 	andeq	r1, r0, r8, asr #30
 5dc:	00001f4c 	andeq	r1, r0, ip, asr #30
 5e0:	007d0002 	rsbseq	r0, sp, r2
 5e4:	00001f4c 	andeq	r1, r0, ip, asr #30
 5e8:	00001f50 	andeq	r1, r0, r0, asr pc
 5ec:	047d0002 	ldrbteq	r0, [sp], #-2
 5f0:	00001f50 	andeq	r1, r0, r0, asr pc
 5f4:	00002250 	andeq	r2, r0, r0, asr r2
 5f8:	047b0002 	ldrbteq	r0, [fp], #-2
	...
 604:	00002250 	andeq	r2, r0, r0, asr r2
 608:	00002254 	andeq	r2, r0, r4, asr r2
 60c:	007d0002 	rsbseq	r0, sp, r2
 610:	00002254 	andeq	r2, r0, r4, asr r2
 614:	00002258 	andeq	r2, r0, r8, asr r2
 618:	047d0002 	ldrbteq	r0, [sp], #-2
 61c:	00002258 	andeq	r2, r0, r8, asr r2
 620:	00002274 	andeq	r2, r0, r4, ror r2
 624:	047b0002 	ldrbteq	r0, [fp], #-2
	...
 630:	00002274 	andeq	r2, r0, r4, ror r2
 634:	00002278 	andeq	r2, r0, r8, ror r2
 638:	007d0002 	rsbseq	r0, sp, r2
 63c:	00002278 	andeq	r2, r0, r8, ror r2
 640:	0000227c 	andeq	r2, r0, ip, ror r2
 644:	087d0002 	ldmdaeq	sp!, {r1}^
 648:	0000227c 	andeq	r2, r0, ip, ror r2
 64c:	000022d8 	ldrdeq	r2, [r0], -r8
 650:	047b0002 	ldrbteq	r0, [fp], #-2
	...
 65c:	000022d8 	ldrdeq	r2, [r0], -r8
 660:	000022dc 	ldrdeq	r2, [r0], -ip
 664:	007d0002 	rsbseq	r0, sp, r2
 668:	000022dc 	ldrdeq	r2, [r0], -ip
 66c:	000022e0 	andeq	r2, r0, r0, ror #5
 670:	047d0002 	ldrbteq	r0, [sp], #-2
 674:	000022e0 	andeq	r2, r0, r0, ror #5
 678:	00002394 	muleq	r0, r4, r3
 67c:	047b0002 	ldrbteq	r0, [fp], #-2
	...
 688:	00002394 	muleq	r0, r4, r3
 68c:	00002398 	muleq	r0, r8, r3
 690:	007d0002 	rsbseq	r0, sp, r2
 694:	00002398 	muleq	r0, r8, r3
 698:	0000239c 	muleq	r0, ip, r3
 69c:	047d0002 	ldrbteq	r0, [sp], #-2
 6a0:	0000239c 	muleq	r0, ip, r3
 6a4:	000023ec 	andeq	r2, r0, ip, ror #7
 6a8:	047b0002 	ldrbteq	r0, [fp], #-2
	...
 6b4:	000023ec 	andeq	r2, r0, ip, ror #7
 6b8:	000023f0 	strdeq	r2, [r0], -r0
 6bc:	007d0002 	rsbseq	r0, sp, r2
 6c0:	000023f0 	strdeq	r2, [r0], -r0
 6c4:	000023f4 	strdeq	r2, [r0], -r4
 6c8:	047d0002 	ldrbteq	r0, [sp], #-2
 6cc:	000023f4 	strdeq	r2, [r0], -r4
 6d0:	0000246c 	andeq	r2, r0, ip, ror #8
 6d4:	047b0002 	ldrbteq	r0, [fp], #-2
	...
 6e0:	0000246c 	andeq	r2, r0, ip, ror #8
 6e4:	00002470 	andeq	r2, r0, r0, ror r4
 6e8:	007d0002 	rsbseq	r0, sp, r2
 6ec:	00002470 	andeq	r2, r0, r0, ror r4
 6f0:	00002474 	andeq	r2, r0, r4, ror r4
 6f4:	047d0002 	ldrbteq	r0, [sp], #-2
 6f8:	00002474 	andeq	r2, r0, r4, ror r4
 6fc:	0000258c 	andeq	r2, r0, ip, lsl #11
 700:	047b0002 	ldrbteq	r0, [fp], #-2
	...
 70c:	0000258c 	andeq	r2, r0, ip, lsl #11
 710:	00002590 	muleq	r0, r0, r5
 714:	007d0002 	rsbseq	r0, sp, r2
 718:	00002590 	muleq	r0, r0, r5
 71c:	00002594 	muleq	r0, r4, r5
 720:	047d0002 	ldrbteq	r0, [sp], #-2
 724:	00002594 	muleq	r0, r4, r5
 728:	00002614 	andeq	r2, r0, r4, lsl r6
 72c:	047b0002 	ldrbteq	r0, [fp], #-2
	...
 738:	00002614 	andeq	r2, r0, r4, lsl r6
 73c:	00002618 	andeq	r2, r0, r8, lsl r6
 740:	007d0002 	rsbseq	r0, sp, r2
 744:	00002618 	andeq	r2, r0, r8, lsl r6
 748:	0000261c 	andeq	r2, r0, ip, lsl r6
 74c:	087d0002 	ldmdaeq	sp!, {r1}^
 750:	0000261c 	andeq	r2, r0, ip, lsl r6
 754:	00002d4c 	andeq	r2, r0, ip, asr #26
 758:	047b0002 	ldrbteq	r0, [fp], #-2
	...
 764:	00002d4c 	andeq	r2, r0, ip, asr #26
 768:	00002d50 	andeq	r2, r0, r0, asr sp
 76c:	007d0002 	rsbseq	r0, sp, r2
 770:	00002d50 	andeq	r2, r0, r0, asr sp
 774:	00002d54 	andeq	r2, r0, r4, asr sp
 778:	087d0002 	ldmdaeq	sp!, {r1}^
 77c:	00002d54 	andeq	r2, r0, r4, asr sp
 780:	00003054 	andeq	r3, r0, r4, asr r0
 784:	047b0002 	ldrbteq	r0, [fp], #-2
	...
 790:	00003054 	andeq	r3, r0, r4, asr r0
 794:	00003058 	andeq	r3, r0, r8, asr r0
 798:	007d0002 	rsbseq	r0, sp, r2
 79c:	00003058 	andeq	r3, r0, r8, asr r0
 7a0:	0000305c 	andeq	r3, r0, ip, asr r0
 7a4:	087d0002 	ldmdaeq	sp!, {r1}^
 7a8:	0000305c 	andeq	r3, r0, ip, asr r0
 7ac:	00003210 	andeq	r3, r0, r0, lsl r2
 7b0:	047b0002 	ldrbteq	r0, [fp], #-2
	...
 7bc:	00003210 	andeq	r3, r0, r0, lsl r2
 7c0:	00003214 	andeq	r3, r0, r4, lsl r2
 7c4:	007d0002 	rsbseq	r0, sp, r2
 7c8:	00003214 	andeq	r3, r0, r4, lsl r2
 7cc:	00003218 	andeq	r3, r0, r8, lsl r2
 7d0:	087d0002 	ldmdaeq	sp!, {r1}^
 7d4:	00003218 	andeq	r3, r0, r8, lsl r2
 7d8:	00003228 	andeq	r3, r0, r8, lsr #4
 7dc:	047b0002 	ldrbteq	r0, [fp], #-2
	...
 7e8:	00003228 	andeq	r3, r0, r8, lsr #4
 7ec:	0000322c 	andeq	r3, r0, ip, lsr #4
 7f0:	007d0002 	rsbseq	r0, sp, r2
 7f4:	0000322c 	andeq	r3, r0, ip, lsr #4
 7f8:	00003230 	andeq	r3, r0, r0, lsr r2
 7fc:	047d0002 	ldrbteq	r0, [sp], #-2
 800:	00003230 	andeq	r3, r0, r0, lsr r2
 804:	00003298 	muleq	r0, r8, r2
 808:	047b0002 	ldrbteq	r0, [fp], #-2
	...
 814:	00003298 	muleq	r0, r8, r2
 818:	0000329c 	muleq	r0, ip, r2
 81c:	007d0002 	rsbseq	r0, sp, r2
 820:	0000329c 	muleq	r0, ip, r2
 824:	000032a0 	andeq	r3, r0, r0, lsr #5
 828:	047d0002 	ldrbteq	r0, [sp], #-2
 82c:	000032a0 	andeq	r3, r0, r0, lsr #5
 830:	000032e4 	andeq	r3, r0, r4, ror #5
 834:	047b0002 	ldrbteq	r0, [fp], #-2
	...
 840:	000032e4 	andeq	r3, r0, r4, ror #5
 844:	000032e8 	andeq	r3, r0, r8, ror #5
 848:	007d0002 	rsbseq	r0, sp, r2
 84c:	000032e8 	andeq	r3, r0, r8, ror #5
 850:	000032ec 	andeq	r3, r0, ip, ror #5
 854:	047d0002 	ldrbteq	r0, [sp], #-2
 858:	000032ec 	andeq	r3, r0, ip, ror #5
 85c:	00003358 	andeq	r3, r0, r8, asr r3
 860:	047b0002 	ldrbteq	r0, [fp], #-2
	...
 86c:	00003358 	andeq	r3, r0, r8, asr r3
 870:	0000335c 	andeq	r3, r0, ip, asr r3
 874:	007d0002 	rsbseq	r0, sp, r2
 878:	0000335c 	andeq	r3, r0, ip, asr r3
 87c:	00003360 	andeq	r3, r0, r0, ror #6
 880:	047d0002 	ldrbteq	r0, [sp], #-2
 884:	00003360 	andeq	r3, r0, r0, ror #6
 888:	000033a8 	andeq	r3, r0, r8, lsr #7
 88c:	047b0002 	ldrbteq	r0, [fp], #-2
	...
 898:	000033a8 	andeq	r3, r0, r8, lsr #7
 89c:	000033ac 	andeq	r3, r0, ip, lsr #7
 8a0:	007d0002 	rsbseq	r0, sp, r2
 8a4:	000033ac 	andeq	r3, r0, ip, lsr #7
 8a8:	000033b0 			; <UNDEFINED> instruction: 0x000033b0
 8ac:	047d0002 	ldrbteq	r0, [sp], #-2
 8b0:	000033b0 			; <UNDEFINED> instruction: 0x000033b0
 8b4:	00003428 	andeq	r3, r0, r8, lsr #8
 8b8:	047b0002 	ldrbteq	r0, [fp], #-2
	...
 8c4:	00003428 	andeq	r3, r0, r8, lsr #8
 8c8:	0000342c 	andeq	r3, r0, ip, lsr #8
 8cc:	007d0002 	rsbseq	r0, sp, r2
 8d0:	0000342c 	andeq	r3, r0, ip, lsr #8
 8d4:	00003430 	andeq	r3, r0, r0, lsr r4
 8d8:	087d0002 	ldmdaeq	sp!, {r1}^
 8dc:	00003430 	andeq	r3, r0, r0, lsr r4
 8e0:	0000356c 	andeq	r3, r0, ip, ror #10
 8e4:	047b0002 	ldrbteq	r0, [fp], #-2
	...
 8f4:	00000004 	andeq	r0, r0, r4
 8f8:	007d0002 	rsbseq	r0, sp, r2
 8fc:	00000004 	andeq	r0, r0, r4
 900:	00000008 	andeq	r0, r0, r8
 904:	087d0002 	ldmdaeq	sp!, {r1}^
 908:	00000008 	andeq	r0, r0, r8
 90c:	00000018 	andeq	r0, r0, r8, lsl r0
 910:	047b0002 	ldrbteq	r0, [fp], #-2
	...
 91c:	00000018 	andeq	r0, r0, r8, lsl r0
 920:	0000001c 	andeq	r0, r0, ip, lsl r0
 924:	007d0002 	rsbseq	r0, sp, r2
 928:	0000001c 	andeq	r0, r0, ip, lsl r0
 92c:	00000020 	andeq	r0, r0, r0, lsr #32
 930:	047d0002 	ldrbteq	r0, [sp], #-2
 934:	00000020 	andeq	r0, r0, r0, lsr #32
 938:	00000080 	andeq	r0, r0, r0, lsl #1
 93c:	047b0002 	ldrbteq	r0, [fp], #-2
	...
 948:	00000080 	andeq	r0, r0, r0, lsl #1
 94c:	00000084 	andeq	r0, r0, r4, lsl #1
 950:	007d0002 	rsbseq	r0, sp, r2
 954:	00000084 	andeq	r0, r0, r4, lsl #1
 958:	00000088 	andeq	r0, r0, r8, lsl #1
 95c:	047d0002 	ldrbteq	r0, [sp], #-2
 960:	00000088 	andeq	r0, r0, r8, lsl #1
 964:	00000108 	andeq	r0, r0, r8, lsl #2
 968:	047b0002 	ldrbteq	r0, [fp], #-2
	...
 974:	00000108 	andeq	r0, r0, r8, lsl #2
 978:	0000010c 	andeq	r0, r0, ip, lsl #2
 97c:	007d0002 	rsbseq	r0, sp, r2
 980:	0000010c 	andeq	r0, r0, ip, lsl #2
 984:	00000110 	andeq	r0, r0, r0, lsl r1
 988:	087d0002 	ldmdaeq	sp!, {r1}^
 98c:	00000110 	andeq	r0, r0, r0, lsl r1
 990:	000001cc 	andeq	r0, r0, ip, asr #3
 994:	047b0002 	ldrbteq	r0, [fp], #-2
	...
 9a4:	00000004 	andeq	r0, r0, r4
 9a8:	007d0002 	rsbseq	r0, sp, r2
 9ac:	00000004 	andeq	r0, r0, r4
 9b0:	00000008 	andeq	r0, r0, r8
 9b4:	047d0002 	ldrbteq	r0, [sp], #-2
 9b8:	00000008 	andeq	r0, r0, r8
 9bc:	00000234 	andeq	r0, r0, r4, lsr r2
 9c0:	047b0002 	ldrbteq	r0, [fp], #-2
	...
 9d0:	00000004 	andeq	r0, r0, r4
 9d4:	007d0002 	rsbseq	r0, sp, r2
 9d8:	00000004 	andeq	r0, r0, r4
 9dc:	00000008 	andeq	r0, r0, r8
 9e0:	047d0002 	ldrbteq	r0, [sp], #-2
 9e4:	00000008 	andeq	r0, r0, r8
 9e8:	0000006c 	andeq	r0, r0, ip, rrx
 9ec:	047b0002 	ldrbteq	r0, [fp], #-2
	...
 9f8:	0000006c 	andeq	r0, r0, ip, rrx
 9fc:	00000070 	andeq	r0, r0, r0, ror r0
 a00:	007d0002 	rsbseq	r0, sp, r2
 a04:	00000070 	andeq	r0, r0, r0, ror r0
 a08:	00000074 	andeq	r0, r0, r4, ror r0
 a0c:	047d0002 	ldrbteq	r0, [sp], #-2
 a10:	00000074 	andeq	r0, r0, r4, ror r0
 a14:	000000ec 	andeq	r0, r0, ip, ror #1
 a18:	047b0002 	ldrbteq	r0, [fp], #-2
	...
 a24:	000000ec 	andeq	r0, r0, ip, ror #1
 a28:	000000f0 	strdeq	r0, [r0], -r0	; <UNPREDICTABLE>
 a2c:	007d0002 	rsbseq	r0, sp, r2
 a30:	000000f0 	strdeq	r0, [r0], -r0	; <UNPREDICTABLE>
 a34:	000000f4 	strdeq	r0, [r0], -r4
 a38:	047d0002 	ldrbteq	r0, [sp], #-2
 a3c:	000000f4 	strdeq	r0, [r0], -r4
 a40:	00000184 	andeq	r0, r0, r4, lsl #3
 a44:	047b0002 	ldrbteq	r0, [fp], #-2
	...
 a50:	00000184 	andeq	r0, r0, r4, lsl #3
 a54:	00000188 	andeq	r0, r0, r8, lsl #3
 a58:	007d0002 	rsbseq	r0, sp, r2
 a5c:	00000188 	andeq	r0, r0, r8, lsl #3
 a60:	0000018c 	andeq	r0, r0, ip, lsl #3
 a64:	047d0002 	ldrbteq	r0, [sp], #-2
 a68:	0000018c 	andeq	r0, r0, ip, lsl #3
 a6c:	000001d8 	ldrdeq	r0, [r0], -r8
 a70:	047b0002 	ldrbteq	r0, [fp], #-2
	...
 a7c:	000001d8 	ldrdeq	r0, [r0], -r8
 a80:	000001dc 	ldrdeq	r0, [r0], -ip
 a84:	007d0002 	rsbseq	r0, sp, r2
 a88:	000001dc 	ldrdeq	r0, [r0], -ip
 a8c:	000001e0 	andeq	r0, r0, r0, ror #3
 a90:	047d0002 	ldrbteq	r0, [sp], #-2
 a94:	000001e0 	andeq	r0, r0, r0, ror #3
 a98:	00000254 	andeq	r0, r0, r4, asr r2
 a9c:	047b0002 	ldrbteq	r0, [fp], #-2
	...
 aa8:	00000254 	andeq	r0, r0, r4, asr r2
 aac:	00000258 	andeq	r0, r0, r8, asr r2
 ab0:	007d0002 	rsbseq	r0, sp, r2
 ab4:	00000258 	andeq	r0, r0, r8, asr r2
 ab8:	0000025c 	andeq	r0, r0, ip, asr r2
 abc:	0c7d0002 	ldcleq	0, cr0, [sp], #-8
 ac0:	0000025c 	andeq	r0, r0, ip, asr r2
 ac4:	00000330 	andeq	r0, r0, r0, lsr r3
 ac8:	047b0002 	ldrbteq	r0, [fp], #-2
	...
 ad4:	00000330 	andeq	r0, r0, r0, lsr r3
 ad8:	00000334 	andeq	r0, r0, r4, lsr r3
 adc:	007d0002 	rsbseq	r0, sp, r2
 ae0:	00000334 	andeq	r0, r0, r4, lsr r3
 ae4:	00000338 	andeq	r0, r0, r8, lsr r3
 ae8:	0c7d0002 	ldcleq	0, cr0, [sp], #-8
 aec:	00000338 	andeq	r0, r0, r8, lsr r3
 af0:	00000510 	andeq	r0, r0, r0, lsl r5
 af4:	047b0002 	ldrbteq	r0, [fp], #-2
	...
 b00:	00000510 	andeq	r0, r0, r0, lsl r5
 b04:	00000514 	andeq	r0, r0, r4, lsl r5
 b08:	007d0002 	rsbseq	r0, sp, r2
 b0c:	00000514 	andeq	r0, r0, r4, lsl r5
 b10:	00000518 	andeq	r0, r0, r8, lsl r5
 b14:	087d0002 	ldmdaeq	sp!, {r1}^
 b18:	00000518 	andeq	r0, r0, r8, lsl r5
 b1c:	000005a8 	andeq	r0, r0, r8, lsr #11
 b20:	047b0002 	ldrbteq	r0, [fp], #-2
	...
 b2c:	000005a8 	andeq	r0, r0, r8, lsr #11
 b30:	000005ac 	andeq	r0, r0, ip, lsr #11
 b34:	007d0002 	rsbseq	r0, sp, r2
 b38:	000005ac 	andeq	r0, r0, ip, lsr #11
 b3c:	000005b0 			; <UNDEFINED> instruction: 0x000005b0
 b40:	087d0002 	ldmdaeq	sp!, {r1}^
 b44:	000005b0 			; <UNDEFINED> instruction: 0x000005b0
 b48:	00000698 	muleq	r0, r8, r6
 b4c:	047b0002 	ldrbteq	r0, [fp], #-2
	...
 b58:	00000698 	muleq	r0, r8, r6
 b5c:	0000069c 	muleq	r0, ip, r6
 b60:	007d0002 	rsbseq	r0, sp, r2
 b64:	0000069c 	muleq	r0, ip, r6
 b68:	000006a0 	andeq	r0, r0, r0, lsr #13
 b6c:	087d0002 	ldmdaeq	sp!, {r1}^
 b70:	000006a0 	andeq	r0, r0, r0, lsr #13
 b74:	0000075c 	andeq	r0, r0, ip, asr r7
 b78:	047b0002 	ldrbteq	r0, [fp], #-2
	...
 b88:	00000004 	andeq	r0, r0, r4
 b8c:	007d0002 	rsbseq	r0, sp, r2
 b90:	00000004 	andeq	r0, r0, r4
 b94:	00000008 	andeq	r0, r0, r8
 b98:	087d0002 	ldmdaeq	sp!, {r1}^
 b9c:	00000008 	andeq	r0, r0, r8
 ba0:	00000038 	andeq	r0, r0, r8, lsr r0
 ba4:	047b0002 	ldrbteq	r0, [fp], #-2
	...
 bb0:	00000038 	andeq	r0, r0, r8, lsr r0
 bb4:	0000003c 	andeq	r0, r0, ip, lsr r0
 bb8:	007d0002 	rsbseq	r0, sp, r2
 bbc:	0000003c 	andeq	r0, r0, ip, lsr r0
 bc0:	00000040 	andeq	r0, r0, r0, asr #32
 bc4:	047d0002 	ldrbteq	r0, [sp], #-2
 bc8:	00000040 	andeq	r0, r0, r0, asr #32
 bcc:	00000144 	andeq	r0, r0, r4, asr #2
 bd0:	047b0002 	ldrbteq	r0, [fp], #-2
	...
 bdc:	00000144 	andeq	r0, r0, r4, asr #2
 be0:	00000148 	andeq	r0, r0, r8, asr #2
 be4:	007d0002 	rsbseq	r0, sp, r2
 be8:	00000148 	andeq	r0, r0, r8, asr #2
 bec:	0000014c 	andeq	r0, r0, ip, asr #2
 bf0:	087d0002 	ldmdaeq	sp!, {r1}^
 bf4:	0000014c 	andeq	r0, r0, ip, asr #2
 bf8:	000001bc 			; <UNDEFINED> instruction: 0x000001bc
 bfc:	047b0002 	ldrbteq	r0, [fp], #-2
	...
 c08:	000001bc 			; <UNDEFINED> instruction: 0x000001bc
 c0c:	000001c0 	andeq	r0, r0, r0, asr #3
 c10:	007d0002 	rsbseq	r0, sp, r2
 c14:	000001c0 	andeq	r0, r0, r0, asr #3
 c18:	000001c4 	andeq	r0, r0, r4, asr #3
 c1c:	087d0002 	ldmdaeq	sp!, {r1}^
 c20:	000001c4 	andeq	r0, r0, r4, asr #3
 c24:	00000204 	andeq	r0, r0, r4, lsl #4
 c28:	047b0002 	ldrbteq	r0, [fp], #-2
	...
 c38:	00000004 	andeq	r0, r0, r4
 c3c:	007d0002 	rsbseq	r0, sp, r2
 c40:	00000004 	andeq	r0, r0, r4
 c44:	00000008 	andeq	r0, r0, r8
 c48:	047d0002 	ldrbteq	r0, [sp], #-2
 c4c:	00000008 	andeq	r0, r0, r8
 c50:	0000004c 	andeq	r0, r0, ip, asr #32
 c54:	047b0002 	ldrbteq	r0, [fp], #-2
	...
 c60:	0000004c 	andeq	r0, r0, ip, asr #32
 c64:	00000050 	andeq	r0, r0, r0, asr r0
 c68:	007d0002 	rsbseq	r0, sp, r2
 c6c:	00000050 	andeq	r0, r0, r0, asr r0
 c70:	00000054 	andeq	r0, r0, r4, asr r0
 c74:	087d0002 	ldmdaeq	sp!, {r1}^
 c78:	00000054 	andeq	r0, r0, r4, asr r0
 c7c:	00000098 	muleq	r0, r8, r0
 c80:	047b0002 	ldrbteq	r0, [fp], #-2
	...
 c90:	00000004 	andeq	r0, r0, r4
 c94:	007d0002 	rsbseq	r0, sp, r2
 c98:	00000004 	andeq	r0, r0, r4
 c9c:	00000008 	andeq	r0, r0, r8
 ca0:	087d0002 	ldmdaeq	sp!, {r1}^
 ca4:	00000008 	andeq	r0, r0, r8
 ca8:	00000060 	andeq	r0, r0, r0, rrx
 cac:	047b0002 	ldrbteq	r0, [fp], #-2
	...
 cb8:	00000060 	andeq	r0, r0, r0, rrx
 cbc:	00000064 	andeq	r0, r0, r4, rrx
 cc0:	007d0002 	rsbseq	r0, sp, r2
 cc4:	00000064 	andeq	r0, r0, r4, rrx
 cc8:	00000068 	andeq	r0, r0, r8, rrx
 ccc:	087d0002 	ldmdaeq	sp!, {r1}^
 cd0:	00000068 	andeq	r0, r0, r8, rrx
 cd4:	000000b8 	strheq	r0, [r0], -r8
 cd8:	047b0002 	ldrbteq	r0, [fp], #-2
	...
 ce4:	000000b8 	strheq	r0, [r0], -r8
 ce8:	000000bc 	strheq	r0, [r0], -ip
 cec:	007d0002 	rsbseq	r0, sp, r2
 cf0:	000000bc 	strheq	r0, [r0], -ip
 cf4:	000000c0 	andeq	r0, r0, r0, asr #1
 cf8:	087d0002 	ldmdaeq	sp!, {r1}^
 cfc:	000000c0 	andeq	r0, r0, r0, asr #1
 d00:	00000114 	andeq	r0, r0, r4, lsl r1
 d04:	047b0002 	ldrbteq	r0, [fp], #-2
	...
 d10:	00000114 	andeq	r0, r0, r4, lsl r1
 d14:	00000118 	andeq	r0, r0, r8, lsl r1
 d18:	007d0002 	rsbseq	r0, sp, r2
 d1c:	00000118 	andeq	r0, r0, r8, lsl r1
 d20:	0000011c 	andeq	r0, r0, ip, lsl r1
 d24:	047d0002 	ldrbteq	r0, [sp], #-2
 d28:	0000011c 	andeq	r0, r0, ip, lsl r1
 d2c:	000001cc 	andeq	r0, r0, ip, asr #3
 d30:	047b0002 	ldrbteq	r0, [fp], #-2
	...
 d40:	00000004 	andeq	r0, r0, r4
 d44:	007d0002 	rsbseq	r0, sp, r2
 d48:	00000004 	andeq	r0, r0, r4
 d4c:	00000008 	andeq	r0, r0, r8
 d50:	047d0002 	ldrbteq	r0, [sp], #-2
 d54:	00000008 	andeq	r0, r0, r8
 d58:	00000054 	andeq	r0, r0, r4, asr r0
 d5c:	047b0002 	ldrbteq	r0, [fp], #-2
	...
 d68:	00000054 	andeq	r0, r0, r4, asr r0
 d6c:	00000058 	andeq	r0, r0, r8, asr r0
 d70:	007d0002 	rsbseq	r0, sp, r2
 d74:	00000058 	andeq	r0, r0, r8, asr r0
 d78:	0000005c 	andeq	r0, r0, ip, asr r0
 d7c:	047d0002 	ldrbteq	r0, [sp], #-2
 d80:	0000005c 	andeq	r0, r0, ip, asr r0
 d84:	000000a0 	andeq	r0, r0, r0, lsr #1
 d88:	047b0002 	ldrbteq	r0, [fp], #-2
	...
 d94:	000000a0 	andeq	r0, r0, r0, lsr #1
 d98:	000000a4 	andeq	r0, r0, r4, lsr #1
 d9c:	007d0002 	rsbseq	r0, sp, r2
 da0:	000000a4 	andeq	r0, r0, r4, lsr #1
 da4:	000000a8 	andeq	r0, r0, r8, lsr #1
 da8:	087d0002 	ldmdaeq	sp!, {r1}^
 dac:	000000a8 	andeq	r0, r0, r8, lsr #1
 db0:	00000100 	andeq	r0, r0, r0, lsl #2
 db4:	047b0002 	ldrbteq	r0, [fp], #-2
	...
 dc0:	00000100 	andeq	r0, r0, r0, lsl #2
 dc4:	00000104 	andeq	r0, r0, r4, lsl #2
 dc8:	007d0002 	rsbseq	r0, sp, r2
 dcc:	00000104 	andeq	r0, r0, r4, lsl #2
 dd0:	00000108 	andeq	r0, r0, r8, lsl #2
 dd4:	087d0002 	ldmdaeq	sp!, {r1}^
 dd8:	00000108 	andeq	r0, r0, r8, lsl #2
 ddc:	000001d4 	ldrdeq	r0, [r0], -r4
 de0:	047b0002 	ldrbteq	r0, [fp], #-2
	...
 dec:	000001d4 	ldrdeq	r0, [r0], -r4
 df0:	000001d8 	ldrdeq	r0, [r0], -r8
 df4:	007d0002 	rsbseq	r0, sp, r2
 df8:	000001d8 	ldrdeq	r0, [r0], -r8
 dfc:	000001dc 	ldrdeq	r0, [r0], -ip
 e00:	087d0002 	ldmdaeq	sp!, {r1}^
 e04:	000001dc 	ldrdeq	r0, [r0], -ip
 e08:	000002d8 	ldrdeq	r0, [r0], -r8
 e0c:	047b0002 	ldrbteq	r0, [fp], #-2
	...

Disassembly of section .debug_pubtypes:

00000000 <.debug_pubtypes>:
   0:	0000000e 	andeq	r0, r0, lr
   4:	00000002 	andeq	r0, r0, r2
   8:	01b20000 			; <UNDEFINED> instruction: 0x01b20000
   c:	00000000 	andeq	r0, r0, r0
  10:	06230000 	strteq	r0, [r3], -r0
  14:	00020000 	andeq	r0, r2, r0
  18:	000001b2 			; <UNDEFINED> instruction: 0x000001b2
  1c:	0000380d 	andeq	r3, r0, sp, lsl #16
  20:	00000025 	andeq	r0, r0, r5, lsr #32
  24:	33676572 	cmncc	r7, #478150656	; 0x1c800000
  28:	00745f32 	rsbseq	r5, r4, r2, lsr pc
  2c:	00000037 	andeq	r0, r0, r7, lsr r0
  30:	31676572 	smccc	30290	; 0x7652
  34:	00745f36 	rsbseq	r5, r4, r6, lsr pc
  38:	00000049 	andeq	r0, r0, r9, asr #32
  3c:	38676572 	stmdacc	r7!, {r1, r4, r5, r6, r8, sl, sp, lr}^
  40:	9200745f 	andls	r7, r0, #1593835520	; 0x5f000000
  44:	68000000 	stmdavs	r0, {}	; <UNPREDICTABLE>
  48:	69645f77 	stmdbvs	r4!, {r0, r1, r2, r4, r5, r6, r8, r9, sl, fp, ip, lr}^
  4c:	6c746367 	ldclvs	3, cr6, [r4], #-412	; 0xfffffe64
  50:	63696d5f 	cmnvs	r9, #6080	; 0x17c0
  54:	65736f72 	ldrbvs	r6, [r3, #-3954]!	; 0xfffff08e
  58:	646e6f63 	strbtvs	r6, [lr], #-3939	; 0xfffff09d
  5c:	00745f73 	rsbseq	r5, r4, r3, ror pc
  60:	00000205 	andeq	r0, r0, r5, lsl #4
  64:	655f7768 	ldrbvs	r7, [pc, #-1896]	; fffff904 <__bss_end__+0xffff97c4>
  68:	635f696d 	cmpvs	pc, #1785856	; 0x1b4000
  6c:	5f6c7274 	svcpl	0x006c7274
  70:	02a40074 	adceq	r0, r4, #116	; 0x74
  74:	77680000 	strbvc	r0, [r8, -r0]!
  78:	696d655f 	stmdbvs	sp!, {r0, r1, r2, r3, r4, r6, r8, sl, sp, lr}^
  7c:	6174735f 	cmnvs	r4, pc, asr r3
  80:	00745f74 	rsbseq	r5, r4, r4, ror pc
  84:	0000035c 	andeq	r0, r0, ip, asr r3
  88:	645f7768 	ldrbvs	r7, [pc], #-1896	; 90 <irq_handler+0xc>
  8c:	5f6d6172 	svcpl	0x006d6172
  90:	306c7463 	rsbcc	r7, ip, r3, ror #8
  94:	00745f31 	rsbseq	r5, r4, r1, lsr pc
  98:	00000413 	andeq	r0, r0, r3, lsl r4
  9c:	645f7768 	ldrbvs	r7, [pc], #-1896	; a4 <irq_handler+0x20>
  a0:	5f6d6172 	svcpl	0x006d6172
  a4:	306c7463 	rsbcc	r7, ip, r3, ror #8
  a8:	00745f32 	rsbseq	r5, r4, r2, lsr pc
  ac:	000004d6 	ldrdeq	r0, [r0], -r6
  b0:	645f7768 	ldrbvs	r7, [pc], #-1896	; b8 <irq_handler+0x34>
  b4:	5f6d6172 	svcpl	0x006d6172
  b8:	306c7463 	rsbcc	r7, ip, r3, ror #8
  bc:	00745f34 	rsbseq	r5, r4, r4, lsr pc
  c0:	0000059a 	muleq	r0, sl, r5
  c4:	645f7768 	ldrbvs	r7, [pc], #-1896	; cc <irq_handler+0x48>
  c8:	5f6d6172 	svcpl	0x006d6172
  cc:	306c7463 	rsbcc	r7, ip, r3, ror #8
  d0:	00745f35 	rsbseq	r5, r4, r5, lsr pc
  d4:	0000065e 	andeq	r0, r0, lr, asr r6
  d8:	645f7768 	ldrbvs	r7, [pc], #-1896	; e0 <irq_handler+0x5c>
  dc:	5f6d6172 	svcpl	0x006d6172
  e0:	306c7463 	rsbcc	r7, ip, r3, ror #8
  e4:	00745f36 	rsbseq	r5, r4, r6, lsr pc
  e8:	00000722 	andeq	r0, r0, r2, lsr #14
  ec:	645f7768 	ldrbvs	r7, [pc], #-1896	; f4 <irq_handler+0x70>
  f0:	5f6d6172 	svcpl	0x006d6172
  f4:	306c7463 	rsbcc	r7, ip, r3, ror #8
  f8:	00745f37 	rsbseq	r5, r4, r7, lsr pc
  fc:	000007e6 	andeq	r0, r0, r6, ror #15
 100:	645f7768 	ldrbvs	r7, [pc], #-1896	; 108 <irq_handler+0x84>
 104:	5f6d6172 	svcpl	0x006d6172
 108:	306c7463 	rsbcc	r7, ip, r3, ror #8
 10c:	00745f38 	rsbseq	r5, r4, r8, lsr pc
 110:	000008aa 	andeq	r0, r0, sl, lsr #17
 114:	645f7768 	ldrbvs	r7, [pc], #-1896	; 11c <irq_handler+0x98>
 118:	5f6d6172 	svcpl	0x006d6172
 11c:	316c7463 	cmncc	ip, r3, ror #8
 120:	00745f30 	rsbseq	r5, r4, r0, lsr pc
 124:	0000096e 	andeq	r0, r0, lr, ror #18
 128:	645f7768 	ldrbvs	r7, [pc], #-1896	; 130 <irq_handler+0xac>
 12c:	5f6d6172 	svcpl	0x006d6172
 130:	316c7463 	cmncc	ip, r3, ror #8
 134:	00745f31 	rsbseq	r5, r4, r1, lsr pc
 138:	00000a1d 	andeq	r0, r0, sp, lsl sl
 13c:	645f7768 	ldrbvs	r7, [pc], #-1896	; 144 <irq_handler+0xc0>
 140:	5f6d6172 	svcpl	0x006d6172
 144:	316c7463 	cmncc	ip, r3, ror #8
 148:	00745f32 	rsbseq	r5, r4, r2, lsr pc
 14c:	00000ae1 	andeq	r0, r0, r1, ror #21
 150:	645f7768 	ldrbvs	r7, [pc], #-1896	; 158 <irq_handler+0xd4>
 154:	5f6d6172 	svcpl	0x006d6172
 158:	316c7463 	cmncc	ip, r3, ror #8
 15c:	00745f33 	rsbseq	r5, r4, r3, lsr pc
 160:	00000ba5 	andeq	r0, r0, r5, lsr #23
 164:	645f7768 	ldrbvs	r7, [pc], #-1896	; 16c <irq_handler+0xe8>
 168:	5f6d6172 	svcpl	0x006d6172
 16c:	316c7463 	cmncc	ip, r3, ror #8
 170:	00745f34 	rsbseq	r5, r4, r4, lsr pc
 174:	00000c69 	andeq	r0, r0, r9, ror #24
 178:	645f7768 	ldrbvs	r7, [pc], #-1896	; 180 <irq_handler+0xfc>
 17c:	5f6d6172 	svcpl	0x006d6172
 180:	316c7463 	cmncc	ip, r3, ror #8
 184:	00745f35 	rsbseq	r5, r4, r5, lsr pc
 188:	00000d2d 	andeq	r0, r0, sp, lsr #26
 18c:	645f7768 	ldrbvs	r7, [pc], #-1896	; 194 <irq_handler+0x110>
 190:	5f6d6172 	svcpl	0x006d6172
 194:	316c7463 	cmncc	ip, r3, ror #8
 198:	00745f36 	rsbseq	r5, r4, r6, lsr pc
 19c:	00000db2 			; <UNDEFINED> instruction: 0x00000db2
 1a0:	645f7768 	ldrbvs	r7, [pc], #-1896	; 1a8 <irq_handler+0x124>
 1a4:	5f6d6172 	svcpl	0x006d6172
 1a8:	316c7463 	cmncc	ip, r3, ror #8
 1ac:	00745f37 	rsbseq	r5, r4, r7, lsr pc
 1b0:	00000e76 	andeq	r0, r0, r6, ror lr
 1b4:	645f7768 	ldrbvs	r7, [pc], #-1896	; 1bc <irq_handler+0x138>
 1b8:	5f6d6172 	svcpl	0x006d6172
 1bc:	316c7463 	cmncc	ip, r3, ror #8
 1c0:	00745f38 	rsbseq	r5, r4, r8, lsr pc
 1c4:	00000efb 	strdeq	r0, [r0], -fp
 1c8:	645f7768 	ldrbvs	r7, [pc], #-1896	; 1d0 <irq_handler+0x14c>
 1cc:	5f6d6172 	svcpl	0x006d6172
 1d0:	316c7463 	cmncc	ip, r3, ror #8
 1d4:	00745f39 	rsbseq	r5, r4, r9, lsr pc
 1d8:	00000f80 	andeq	r0, r0, r0, lsl #31
 1dc:	645f7768 	ldrbvs	r7, [pc], #-1896	; 1e4 <irq_handler+0x160>
 1e0:	5f6d6172 	svcpl	0x006d6172
 1e4:	326c7463 	rsbcc	r7, ip, #1660944384	; 0x63000000
 1e8:	00745f30 	rsbseq	r5, r4, r0, lsr pc
 1ec:	00000ff6 	strdeq	r0, [r0], -r6
 1f0:	645f7768 	ldrbvs	r7, [pc], #-1896	; 1f8 <irq_handler+0x174>
 1f4:	5f6d6172 	svcpl	0x006d6172
 1f8:	326c7463 	rsbcc	r7, ip, #1660944384	; 0x63000000
 1fc:	00745f31 	rsbseq	r5, r4, r1, lsr pc
 200:	0000105d 	andeq	r1, r0, sp, asr r0
 204:	645f7768 	ldrbvs	r7, [pc], #-1896	; 20c <irq_handler+0x188>
 208:	5f6d6172 	svcpl	0x006d6172
 20c:	326c7463 	rsbcc	r7, ip, #1660944384	; 0x63000000
 210:	00745f36 	rsbseq	r5, r4, r6, lsr pc
 214:	000010af 	andeq	r1, r0, pc, lsr #1
 218:	645f7768 	ldrbvs	r7, [pc], #-1896	; 220 <irq_handler+0x19c>
 21c:	5f6d6172 	svcpl	0x006d6172
 220:	326c7463 	rsbcc	r7, ip, #1660944384	; 0x63000000
 224:	00745f39 	rsbseq	r5, r4, r9, lsr pc
 228:	00001101 	andeq	r1, r0, r1, lsl #2
 22c:	645f7768 	ldrbvs	r7, [pc], #-1896	; 234 <irq_handler+0x1b0>
 230:	5f6d6172 	svcpl	0x006d6172
 234:	336c7463 	cmncc	ip, #1660944384	; 0x63000000
 238:	00745f30 	rsbseq	r5, r4, r0, lsr pc
 23c:	00001153 	andeq	r1, r0, r3, asr r1
 240:	645f7768 	ldrbvs	r7, [pc], #-1896	; 248 <irq_handler+0x1c4>
 244:	5f6d6172 	svcpl	0x006d6172
 248:	336c7463 	cmncc	ip, #1660944384	; 0x63000000
 24c:	00745f32 	rsbseq	r5, r4, r2, lsr pc
 250:	000011a5 	andeq	r1, r0, r5, lsr #3
 254:	645f7768 	ldrbvs	r7, [pc], #-1896	; 25c <irq_handler+0x1d8>
 258:	5f6d6172 	svcpl	0x006d6172
 25c:	336c7463 	cmncc	ip, #1660944384	; 0x63000000
 260:	00745f33 	rsbseq	r5, r4, r3, lsr pc
 264:	000011fa 	strdeq	r1, [r0], -sl
 268:	645f7768 	ldrbvs	r7, [pc], #-1896	; 270 <irq_handler+0x1ec>
 26c:	5f6d6172 	svcpl	0x006d6172
 270:	336c7463 	cmncc	ip, #1660944384	; 0x63000000
 274:	00745f34 	rsbseq	r5, r4, r4, lsr pc
 278:	00001261 	andeq	r1, r0, r1, ror #4
 27c:	645f7768 	ldrbvs	r7, [pc], #-1896	; 284 <irq_handler+0x200>
 280:	5f6d6172 	svcpl	0x006d6172
 284:	346c7463 	strbtcc	r7, [ip], #-1123	; 0xfffffb9d
 288:	00745f30 	rsbseq	r5, r4, r0, lsr pc
 28c:	0000135d 	andeq	r1, r0, sp, asr r3
 290:	635f7768 	cmpvs	pc, #104, 14	; 0x1a00000
 294:	74636b6c 	strbtvc	r6, [r3], #-2924	; 0xfffff494
 298:	635f6c72 	cmpvs	pc, #29184	; 0x7200
 29c:	745f7570 	ldrbvc	r7, [pc], #-1392	; 2a4 <irq_handler+0x220>
 2a0:	0014b100 	andseq	fp, r4, r0, lsl #2
 2a4:	5f776800 	svcpl	0x00776800
 2a8:	636b6c63 	cmnvs	fp, #25344	; 0x6300
 2ac:	5f6c7274 	svcpl	0x006c7274
 2b0:	73756268 	cmnvc	r5, #104, 4	; 0x80000006
 2b4:	cf00745f 	svcgt	0x0000745f
 2b8:	68000015 	stmdavs	r0, {r0, r2, r4}
 2bc:	6c635f77 	stclvs	15, cr5, [r3], #-476	; 0xfffffe24
 2c0:	7274636b 	rsbsvc	r6, r4, #-1409286143	; 0xac000001
 2c4:	6d655f6c 	stclvs	15, cr5, [r5, #-432]!	; 0xfffffe50
 2c8:	00745f69 	rsbseq	r5, r4, r9, ror #30
 2cc:	000016db 	ldrdeq	r1, [r0], -fp
 2d0:	635f7768 	cmpvs	pc, #104, 14	; 0x1a00000
 2d4:	74636b6c 	strbtvc	r6, [r3], #-2924	; 0xfffff494
 2d8:	665f6c72 			; <UNDEFINED> instruction: 0x665f6c72
 2dc:	5f636172 	svcpl	0x00636172
 2e0:	17c30074 			; <UNDEFINED> instruction: 0x17c30074
 2e4:	77680000 	strbvc	r0, [r8, -r0]!
 2e8:	6b6c635f 	blvs	1b1906c <__bss_end__+0x1b12f2c>
 2ec:	6c727463 	cfldrdvs	mvd7, [r2], #-396	; 0xfffffe74
 2f0:	6b6c635f 	blvs	1b19074 <__bss_end__+0x1b12f34>
 2f4:	5f716573 	svcpl	0x00716573
 2f8:	193b0074 	ldmdbne	fp!, {r2, r4, r5, r6}
 2fc:	77680000 	strbvc	r0, [r8, -r0]!
 300:	776f705f 			; <UNDEFINED> instruction: 0x776f705f
 304:	355f7265 	ldrbcc	r7, [pc, #-613]	; a7 <irq_handler+0x23>
 308:	72746376 	rsbsvc	r6, r4, #-671088639	; 0xd8000001
 30c:	00745f6c 	rsbseq	r5, r4, ip, ror #30
 310:	00001a47 	andeq	r1, r0, r7, asr #20
 314:	705f7768 	subsvc	r7, pc, r8, ror #14
 318:	7265776f 	rsbvc	r7, r5, #29097984	; 0x1bc0000
 31c:	6464765f 	strbtvs	r7, [r4], #-1631	; 0xfffff9a1
 320:	72746364 	rsbsvc	r6, r4, #100, 6	; 0x90000001
 324:	00745f6c 	rsbseq	r5, r4, ip, ror #30
 328:	00001b41 	andeq	r1, r0, r1, asr #22
 32c:	705f7768 	subsvc	r7, pc, r8, ror #14
 330:	7265776f 	rsbvc	r7, r5, #29097984	; 0x1bc0000
 334:	6464765f 	strbtvs	r7, [r4], #-1631	; 0xfffff9a1
 338:	72746361 	rsbsvc	r6, r4, #-2080374783	; 0x84000001
 33c:	00745f6c 	rsbseq	r5, r4, ip, ror #30
 340:	00001c4a 	andeq	r1, r0, sl, asr #24
 344:	705f7768 	subsvc	r7, pc, r8, ror #14
 348:	7265776f 	rsbvc	r7, r5, #29097984	; 0x1bc0000
 34c:	6464765f 	strbtvs	r7, [r4], #-1631	; 0xfffff9a1
 350:	74636f69 	strbtvc	r6, [r3], #-3945	; 0xfffff097
 354:	745f6c72 	ldrbvc	r6, [pc], #-3186	; 35c <irq_handler+0x2d8>
 358:	001cea00 	andseq	lr, ip, r0, lsl #20
 35c:	5f776800 	svcpl	0x00776800
 360:	65776f70 	ldrbvs	r6, [r7, #-3952]!	; 0xfffff090
 364:	64765f72 	ldrbtvs	r5, [r6], #-3954	; 0xfffff08e
 368:	6d656d64 	stclvs	13, cr6, [r5, #-400]!	; 0xfffffe70
 36c:	6c727463 	cfldrdvs	mvd7, [r2], #-396	; 0xfffffe74
 370:	0700745f 	smlsdeq	r0, pc, r4, r7	; <UNPREDICTABLE>
 374:	6800001e 	stmdavs	r0, {r1, r2, r3, r4}
 378:	6f705f77 	svcvs	0x00705f77
 37c:	5f726577 	svcpl	0x00726577
 380:	63646364 	cmnvs	r4, #100, 6	; 0x90000001
 384:	5f327034 	svcpl	0x00327034
 388:	1fd90074 	svcne	0x00d90074
 38c:	77680000 	strbvc	r0, [r8, -r0]!
 390:	776f705f 			; <UNDEFINED> instruction: 0x776f705f
 394:	735f7265 	cmpvc	pc, #1342177286	; 0x50000006
 398:	745f7374 	ldrbvc	r7, [pc], #-884	; 3a0 <irq_handler+0x31c>
 39c:	00209d00 	eoreq	r9, r0, r0, lsl #26
 3a0:	5f776800 	svcpl	0x00776800
 3a4:	65776f70 	ldrbvs	r6, [r7, #-3952]!	; 0xfffff090
 3a8:	61625f72 	smcvs	9714	; 0x25f2
 3ac:	6f6d7474 	svcvs	0x006d7474
 3b0:	6f74696e 	svcvs	0x0074696e
 3b4:	00745f72 	rsbseq	r5, r4, r2, ror pc
 3b8:	0000213a 	andeq	r2, r0, sl, lsr r1
 3bc:	755f7768 	ldrbvc	r7, [pc, #-1896]	; fffffc5c <__bss_end__+0xffff9b1c>
 3c0:	64747261 	ldrbtvs	r7, [r4], #-609	; 0xfffffd9f
 3c4:	72646762 	rsbvc	r6, r4, #25690112	; 0x1880000
 3c8:	ca00745f 	bgt	1d54c <__bss_end__+0x1740c>
 3cc:	68000021 	stmdavs	r0, {r0, r5}
 3d0:	61755f77 	cmnvs	r5, r7, ror pc
 3d4:	62647472 	rsbvs	r7, r4, #1912602624	; 0x72000000
 3d8:	72737267 	rsbsvc	r7, r3, #1879048198	; 0x70000006
 3dc:	7263655f 	rsbvc	r6, r3, #398458880	; 0x17c00000
 3e0:	b000745f 	andlt	r7, r0, pc, asr r4
 3e4:	68000022 	stmdavs	r0, {r1, r5}
 3e8:	61755f77 	cmnvs	r5, r7, ror pc
 3ec:	62647472 	rsbvs	r7, r4, #1912602624	; 0x72000000
 3f0:	5f726667 	svcpl	0x00726667
 3f4:	23010074 	movwcs	r0, #4212	; 0x1074
 3f8:	77680000 	strbvc	r0, [r8, -r0]!
 3fc:	7261755f 	rsbvc	r7, r1, #398458880	; 0x17c00000
 400:	67626474 			; <UNDEFINED> instruction: 0x67626474
 404:	64726269 	ldrbtvs	r6, [r2], #-617	; 0xfffffd97
 408:	6b00745f 	blvs	1d58c <__bss_end__+0x1744c>
 40c:	68000023 	stmdavs	r0, {r0, r1, r5}
 410:	61755f77 	cmnvs	r5, r7, ror pc
 414:	62647472 	rsbvs	r7, r4, #1912602624	; 0x72000000
 418:	72626667 	rsbvc	r6, r2, #108003328	; 0x6700000
 41c:	00745f64 	rsbseq	r5, r4, r4, ror #30
 420:	0000243b 	andeq	r2, r0, fp, lsr r4
 424:	755f7768 	ldrbvc	r7, [pc, #-1896]	; fffffcc4 <__bss_end__+0xffff9b84>
 428:	64747261 	ldrbtvs	r7, [r4], #-609	; 0xfffffd9f
 42c:	636c6762 	cmnvs	ip, #25690112	; 0x1880000
 430:	5f685f72 	svcpl	0x00685f72
 434:	25680074 	strbcs	r0, [r8, #-116]!	; 0xffffff8c
 438:	77680000 	strbvc	r0, [r8, -r0]!
 43c:	7261755f 	rsbvc	r7, r1, #398458880	; 0x17c00000
 440:	67626474 			; <UNDEFINED> instruction: 0x67626474
 444:	745f7263 	ldrbvc	r7, [pc], #-611	; 44c <irq_handler+0x3c8>
 448:	0025e100 	eoreq	lr, r5, r0, lsl #2
 44c:	5f776800 	svcpl	0x00776800
 450:	74726175 	ldrbtvc	r6, [r2], #-373	; 0xfffffe8b
 454:	69676264 	stmdbvs	r7!, {r2, r5, r6, r9, sp, lr}^
 458:	5f736c66 	svcpl	0x00736c66
 45c:	26fc0074 	uxtahcs	r0, ip, r4
 460:	77680000 	strbvc	r0, [r8, -r0]!
 464:	7261755f 	rsbvc	r7, r1, #398458880	; 0x17c00000
 468:	67626474 			; <UNDEFINED> instruction: 0x67626474
 46c:	63736d69 	cmnvs	r3, #6720	; 0x1a40
 470:	8600745f 			; <UNDEFINED> instruction: 0x8600745f
 474:	68000028 	stmdavs	r0, {r3, r5}
 478:	73755f77 	cmnvc	r5, #476	; 0x1dc
 47c:	79687062 	stmdbvc	r8!, {r1, r5, r6, ip, sp, lr}^
 480:	7274635f 	rsbsvc	r6, r4, #2080374785	; 0x7c000001
 484:	00745f6c 	rsbseq	r5, r4, ip, ror #30
 488:	0000295c 	andeq	r2, r0, ip, asr r9
 48c:	755f7768 	ldrbvc	r7, [pc, #-1896]	; fffffd2c <__bss_end__+0xffff9bec>
 490:	68706273 	ldmdavs	r0!, {r0, r1, r4, r5, r6, r9, sp, lr}^
 494:	74735f79 	ldrbtvc	r5, [r3], #-3961	; 0xfffff087
 498:	73757461 	cmnvc	r5, #1627389952	; 0x61000000
 49c:	e000745f 	and	r7, r0, pc, asr r4
 4a0:	6800002a 	stmdavs	r0, {r1, r3, r5}
 4a4:	726c5f77 	rsbvc	r5, ip, #476	; 0x1dc
 4a8:	5f636461 	svcpl	0x00636461
 4ac:	6c727463 	cfldrdvs	mvd7, [r2], #-396	; 0xfffffe74
 4b0:	00745f31 	rsbseq	r5, r4, r1, lsr pc
 4b4:	00002aeb 	andeq	r2, r0, fp, ror #21
 4b8:	6c6f6f62 	stclvs	15, cr6, [pc], #-392	; 338 <irq_handler+0x2b4>
 4bc:	002afd00 	eoreq	pc, sl, r0, lsl #26
 4c0:	4f574400 	svcmi	0x00574400
 4c4:	08004452 	stmdaeq	r0, {r1, r4, r6, sl, lr}
 4c8:	5f00002b 	svcpl	0x0000002b
 4cc:	635f7768 	cmpvs	pc, #104, 14	; 0x1a00000
 4d0:	74636b6c 	strbtvc	r6, [r3], #-2924	; 0xfffff494
 4d4:	625f6c72 	subsvs	r6, pc, #29184	; 0x7200
 4d8:	73617079 	cmnvc	r1, #121	; 0x79
 4dc:	6c635f73 	stclvs	15, cr5, [r3], #-460	; 0xfffffe34
 4e0:	00745f6b 	rsbseq	r5, r4, fp, ror #30
 4e4:	00002b41 	andeq	r2, r0, r1, asr #22
 4e8:	635f7768 	cmpvs	pc, #104, 14	; 0x1a00000
 4ec:	74636b6c 	strbtvc	r6, [r3], #-2924	; 0xfffff494
 4f0:	625f6c72 	subsvs	r6, pc, #29184	; 0x7200
 4f4:	73617079 	cmnvc	r1, #121	; 0x79
 4f8:	6c635f73 	stclvs	15, cr5, [r3], #-460	; 0xfffffe34
 4fc:	00745f6b 	rsbseq	r5, r4, fp, ror #30
 500:	00002b96 	muleq	r0, r6, fp
 504:	655f7768 	ldrbvs	r7, [pc, #-1896]	; fffffda4 <__bss_end__+0xffff9c64>
 508:	435f696d 	cmpmi	pc, #1785856	; 0x1b4000
 50c:	6b636f6c 	blvs	18dc2c4 <__bss_end__+0x18d6184>
 510:	74617453 	strbtvc	r7, [r1], #-1107	; 0xfffffbad
 514:	00745f65 	rsbseq	r5, r4, r5, ror #30
 518:	00002ba1 	andeq	r2, r0, r1, lsr #23
 51c:	5f77685f 	svcpl	0x0077685f
 520:	5f696d65 	svcpl	0x00696d65
 524:	546d654d 	strbtpl	r6, [sp], #-1357	; 0xfffffab3
 528:	5f657079 	svcpl	0x00657079
 52c:	2bcc0074 	blcs	ff300704 <__bss_end__+0xff2fa5c4>
 530:	77680000 	strbvc	r0, [r8, -r0]!
 534:	696d655f 	stmdbvs	sp!, {r0, r1, r2, r3, r4, r6, r8, sl, sp, lr}^
 538:	6d654d5f 	stclvs	13, cr4, [r5, #-380]!	; 0xfffffe84
 53c:	65707954 	ldrbvs	r7, [r0, #-2388]!	; 0xfffff6ac
 540:	ee00745f 	cfmvsr	mvf0, r7
 544:	5400002b 	strpl	r0, [r0], #-43	; 0xffffffd5
 548:	566e6950 			; <UNDEFINED> instruction: 0x566e6950
 54c:	61746c6f 	cmnvs	r4, pc, ror #24
 550:	1c006567 	cfstr32ne	mvfx6, [r0], {103}	; 0x67
 554:	5400002c 	strpl	r0, [r0], #-44	; 0xffffffd4
 558:	446e6950 	strbtmi	r6, [lr], #-2384	; 0xfffff6b0
 55c:	65766972 	ldrbvs	r6, [r6, #-2418]!	; 0xfffff68e
 560:	002c2800 	eoreq	r2, ip, r0, lsl #16
 564:	5f776800 	svcpl	0x00776800
 568:	5f696d65 	svcpl	0x00696d65
 56c:	636f6c43 	cmnvs	pc, #17152	; 0x4300
 570:	7065446b 	rsbvc	r4, r5, fp, ror #8
 574:	65646e65 	strbvs	r6, [r4, #-3685]!	; 0xfffff19b
 578:	6552746e 	ldrbvs	r7, [r2, #-1134]	; 0xfffffb92
 57c:	17007367 	strne	r7, [r0, -r7, ror #6]
 580:	6800002d 	stmdavs	r0, {r0, r2, r3, r5}
 584:	6d655f77 	stclvs	15, cr5, [r5, #-476]!	; 0xfffffe24
 588:	6c435f69 	mcrrvs	15, 6, r5, r3, cr9
 58c:	446b636f 	strbtmi	r6, [fp], #-879	; 0xfffffc91
 590:	6e657065 	cdpvs	0, 6, cr7, cr5, cr5, {3}
 594:	746e6564 	strbtvc	r6, [lr], #-1380	; 0xfffffa9c
 598:	73676552 	cmnvc	r7, #343932928	; 0x14800000
 59c:	4500745f 	strmi	r7, [r0, #-1119]	; 0xfffffba1
 5a0:	6800002d 	stmdavs	r0, {r0, r2, r3, r5}
 5a4:	6d655f77 	stclvs	15, cr5, [r5, #-476]!	; 0xfffffe24
 5a8:	68435f69 	stmdavs	r3, {r0, r3, r5, r6, r8, r9, sl, fp, ip, lr}^
 5ac:	65537069 	ldrbvs	r7, [r3, #-105]	; 0xffffff97
 5b0:	7463656c 	strbtvc	r6, [r3], #-1388	; 0xfffffa94
 5b4:	6b73614d 	blvs	1cd8af0 <__bss_end__+0x1cd29b0>
 5b8:	9500745f 	strls	r7, [r0, #-1119]	; 0xfffffba1
 5bc:	6800002d 	stmdavs	r0, {r0, r2, r3, r5}
 5c0:	6d655f77 	stclvs	15, cr5, [r5, #-476]!	; 0xfffffe24
 5c4:	6f545f69 	svcvs	0x00545f69
 5c8:	446c6174 	strbtmi	r6, [ip], #-372	; 0xfffffe8c
 5cc:	536d6172 	cmnpl	sp, #-2147483620	; 0x8000001c
 5d0:	5f657a69 	svcpl	0x00657a69
 5d4:	2da10074 	stccs	0, cr0, [r1, #464]!	; 0x1d0
 5d8:	685f0000 	ldmdavs	pc, {}^	; <UNPREDICTABLE>
 5dc:	6f705f77 	svcvs	0x00705f77
 5e0:	5f726577 	svcpl	0x00726577
 5e4:	65447635 	strbvs	r7, [r4, #-1589]	; 0xfffff9cb
 5e8:	74636574 	strbtvc	r6, [r3], #-1396	; 0xfffffa8c
 5ec:	5f6e6f69 	svcpl	0x006e6f69
 5f0:	2dc10074 	stclcs	0, cr0, [r1, #464]	; 0x1d0
 5f4:	77680000 	strbvc	r0, [r8, -r0]!
 5f8:	776f705f 			; <UNDEFINED> instruction: 0x776f705f
 5fc:	355f7265 	ldrbcc	r7, [pc, #-613]	; 39f <irq_handler+0x31b>
 600:	74654476 	strbtvc	r4, [r5], #-1142	; 0xfffffb8a
 604:	69746365 	ldmdbvs	r4!, {r0, r2, r5, r6, r8, r9, sp, lr}^
 608:	745f6e6f 	ldrbvc	r6, [pc], #-3695	; 610 <irq_handler+0x58c>
 60c:	002dcd00 	eoreq	ip, sp, r0, lsl #26
 610:	69646400 	stmdbvs	r4!, {sl, sp, lr}^
 614:	696d655f 	stmdbvs	sp!, {r0, r1, r2, r3, r4, r6, r8, sl, sp, lr}^
 618:	7261765f 	rsbvc	r7, r1, #99614720	; 0x5f00000
 61c:	61745f73 	cmnvs	r4, r3, ror pc
 620:	2e530067 	cdpcs	0, 5, cr0, cr3, cr7, {3}
 624:	64640000 	strbtvs	r0, [r4], #-0
 628:	6d655f69 	stclvs	15, cr5, [r5, #-420]!	; 0xfffffe5c
 62c:	61765f69 	cmnvs	r6, r9, ror #30
 630:	745f7372 	ldrbvc	r7, [pc], #-882	; 638 <irq_handler+0x5b4>
 634:	00000000 	andeq	r0, r0, r0
 638:	00001600 	andeq	r1, r0, r0, lsl #12
 63c:	bf000200 	svclt	0x00000200
 640:	c3000039 	movwgt	r0, #57	; 0x39
 644:	33000000 	movwcc	r0, #0
 648:	75000000 	strvc	r0, [r0, #-0]
 64c:	00003233 	andeq	r3, r0, r3, lsr r2
 650:	ee000000 	cdp	0, 0, cr0, cr0, cr0, {0}
 654:	02000000 	andeq	r0, r0, #0
 658:	003a8200 	eorseq	r8, sl, r0, lsl #4
 65c:	0004d100 	andeq	sp, r4, r0, lsl #2
 660:	00002c00 	andeq	r2, r0, r0, lsl #24
 664:	755f5f00 	ldrbvc	r5, [pc, #-3840]	; fffff76c <__bss_end__+0xffff962c>
 668:	00450038 	subeq	r0, r5, r8, lsr r0
 66c:	5f5f0000 	svcpl	0x005f0000
 670:	00363175 	eorseq	r3, r6, r5, ror r1
 674:	0000005e 	andeq	r0, r0, lr, asr r0
 678:	33755f5f 	cmncc	r5, #380	; 0x17c
 67c:	00930032 	addseq	r0, r3, r2, lsr r0
 680:	61740000 	cmnvs	r4, r0
 684:	65685f67 	strbvs	r5, [r8, #-3943]!	; 0xfffff099
 688:	72656461 	rsbvc	r6, r5, #1627389952	; 0x61000000
 68c:	0000bc00 	andeq	fp, r0, r0, lsl #24
 690:	67617400 	strbvs	r7, [r1, -r0, lsl #8]!
 694:	726f635f 	rsbvc	r6, pc, #2080374785	; 0x7c000001
 698:	00f30065 	rscseq	r0, r3, r5, rrx
 69c:	61740000 	cmnvs	r4, r0
 6a0:	656d5f67 	strbvs	r5, [sp, #-3943]!	; 0xfffff099
 6a4:	0032336d 	eorseq	r3, r2, sp, ror #6
 6a8:	0000011c 	andeq	r0, r0, ip, lsl r1
 6ac:	5f676174 	svcpl	0x00676174
 6b0:	65646976 	strbvs	r6, [r4, #-2422]!	; 0xfffff68a
 6b4:	7865746f 	stmdavc	r5!, {r0, r1, r2, r3, r5, r6, sl, ip, sp, lr}^
 6b8:	01a30074 			; <UNDEFINED> instruction: 0x01a30074
 6bc:	61740000 	cmnvs	r4, r0
 6c0:	61725f67 	cmnvs	r2, r7, ror #30
 6c4:	7369646d 	cmnvc	r9, #1828716544	; 0x6d000000
 6c8:	01da006b 	bicseq	r0, sl, fp, rrx
 6cc:	61740000 	cmnvs	r4, r0
 6d0:	6e695f67 	cdpvs	15, 6, cr5, cr9, cr7, {3}
 6d4:	64727469 	ldrbtvs	r7, [r2], #-1129	; 0xfffffb97
 6d8:	00020300 	andeq	r0, r2, r0, lsl #6
 6dc:	67617400 	strbvs	r7, [r1, -r0, lsl #8]!
 6e0:	7265735f 	rsbvc	r7, r5, #2080374785	; 0x7c000001
 6e4:	6e6c6169 	powvsez	f6, f4, #1.0
 6e8:	022c0072 	eoreq	r0, ip, #114	; 0x72
 6ec:	61740000 	cmnvs	r4, r0
 6f0:	65725f67 	ldrbvs	r5, [r2, #-3943]!	; 0xfffff099
 6f4:	69736976 	ldmdbvs	r3!, {r1, r2, r4, r5, r6, r8, fp, sp, lr}^
 6f8:	47006e6f 	strmi	r6, [r0, -pc, ror #28]
 6fc:	74000002 	strvc	r0, [r0], #-2
 700:	765f6761 	ldrbvc	r6, [pc], -r1, ror #14
 704:	6f656469 	svcvs	0x00656469
 708:	0062666c 	rsbeq	r6, r2, ip, ror #12
 70c:	00000318 	andeq	r0, r0, r8, lsl r3
 710:	5f676174 	svcpl	0x00676174
 714:	6c646d63 	stclvs	13, cr6, [r4], #-396	; 0xfffffe74
 718:	00656e69 	rsbeq	r6, r5, r9, ror #28
 71c:	00000343 	andeq	r0, r0, r3, asr #6
 720:	5f676174 	svcpl	0x00676174
 724:	726f6361 	rsbvc	r6, pc, #-2080374783	; 0x84000001
 728:	0388006e 	orreq	r0, r8, #110	; 0x6e
 72c:	61740000 	cmnvs	r4, r0
 730:	656d5f67 	strbvs	r5, [sp, #-3943]!	; 0xfffff099
 734:	6b6c636d 	blvs	1b194f0 <__bss_end__+0x1b133b0>
 738:	00042500 	andeq	r2, r4, r0, lsl #10
 73c:	67617400 	strbvs	r7, [r1, -r0, lsl #8]!
 740:	00000000 	andeq	r0, r0, r0
 744:	00000e00 	andeq	r0, r0, r0, lsl #28
 748:	53000200 	movwpl	r0, #512	; 0x200
 74c:	9200003f 	andls	r0, r0, #63	; 0x3f
 750:	00000003 	andeq	r0, r0, r3
 754:	0e000000 	cdpeq	0, 0, cr0, cr0, cr0, {0}
 758:	02000000 	andeq	r0, r0, #0
 75c:	0042e500 	subeq	lr, r2, r0, lsl #10
 760:	0001fd00 	andeq	pc, r1, r0, lsl #26
 764:	00000000 	andeq	r0, r0, r0
 768:	00004100 	andeq	r4, r0, r0, lsl #2
 76c:	e2000200 	and	r0, r0, #0, 4
 770:	f5000044 			; <UNDEFINED> instruction: 0xf5000044
 774:	25000000 	strcs	r0, [r0, #-0]
 778:	72000000 	andvc	r0, r0, #0
 77c:	32336765 	eorscc	r6, r3, #26476544	; 0x1940000
 780:	7c00745f 	cfstrsvc	mvf7, [r0], {95}	; 0x5f
 784:	68000000 	stmdavs	r0, {}	; <UNPREDICTABLE>
 788:	69645f77 	stmdbvs	r4!, {r0, r1, r2, r4, r5, r6, r8, r9, sl, fp, ip, lr}^
 78c:	6c746367 	ldclvs	3, cr6, [r4], #-412	; 0xfffffe64
 790:	63696d5f 	cmnvs	r9, #6080	; 0x17c0
 794:	65736f72 	ldrbvs	r6, [r3, #-3954]!	; 0xfffff08e
 798:	646e6f63 	strbtvs	r6, [lr], #-3939	; 0xfffff09d
 79c:	00745f73 	rsbseq	r5, r4, r3, ror pc
 7a0:	0000008f 	andeq	r0, r0, pc, lsl #1
 7a4:	524f5744 	subpl	r5, pc, #68, 14	; 0x1100000
 7a8:	00000044 	andeq	r0, r0, r4, asr #32
 7ac:	00840000 	addeq	r0, r4, r0
 7b0:	00020000 	andeq	r0, r2, r0
 7b4:	0000462d 	andeq	r4, r0, sp, lsr #12
 7b8:	000004c9 	andeq	r0, r0, r9, asr #9
 7bc:	00000033 	andeq	r0, r0, r3, lsr r0
 7c0:	00323375 	eorseq	r3, r2, r5, ror r3
 7c4:	0000004c 	andeq	r0, r0, ip, asr #32
 7c8:	00676572 	rsbeq	r6, r7, r2, ror r5
 7cc:	0000009d 	muleq	r0, sp, r0
 7d0:	34676572 	strbtcc	r6, [r7], #-1394	; 0xfffffa8e
 7d4:	00011300 	andeq	r1, r1, r0, lsl #6
 7d8:	42504100 	subsmi	r4, r0, #0, 2
 7dc:	48435f48 	stmdami	r3, {r3, r6, r8, r9, sl, fp, ip, lr}^
 7e0:	0001fd00 	andeq	pc, r1, r0, lsl #26
 7e4:	5f776800 	svcpl	0x00776800
 7e8:	68627061 	stmdavs	r2!, {r0, r5, r6, ip, sp, lr}^
 7ec:	646d635f 	strbtvs	r6, [sp], #-863	; 0xfffffca1
 7f0:	0800745f 	stmdaeq	r0, {r0, r1, r2, r3, r4, r6, sl, ip, sp, lr}
 7f4:	68000003 	stmdavs	r0, {r0, r1}
 7f8:	70675f77 	rsbvc	r5, r7, r7, ror pc
 7fc:	635f696d 	cmpvs	pc, #1785856	; 0x1b4000
 800:	306c7274 	rsbcc	r7, ip, r4, ror r2
 804:	5500745f 	strpl	r7, [r0, #-1119]	; 0xfffffba1
 808:	5f000003 	svcpl	0x00000003
 80c:	68627061 	stmdavs	r2!, {r0, r5, r6, ip, sp, lr}^
 810:	616d645f 	cmnvs	sp, pc, asr r4
 814:	6d70675f 	ldclvs	7, cr6, [r0, #-380]!	; 0xfffffe84
 818:	745f3169 	ldrbvc	r3, [pc], #-361	; 820 <irq_handler+0x79c>
 81c:	00039a00 	andeq	r9, r3, r0, lsl #20
 820:	62706100 	rsbsvs	r6, r0, #0, 2
 824:	6d645f68 	stclvs	15, cr5, [r4, #-416]!	; 0xfffffe60
 828:	70675f61 	rsbvc	r5, r7, r1, ror #30
 82c:	5f31696d 	svcpl	0x0031696d
 830:	00000074 	andeq	r0, r0, r4, ror r0
 834:	00610000 	rsbeq	r0, r1, r0
 838:	00020000 	andeq	r0, r2, r0
 83c:	00004af6 	strdeq	r4, [r0], -r6
 840:	0000034f 	andeq	r0, r0, pc, asr #6
 844:	00000025 	andeq	r0, r0, r5, lsr #32
 848:	33676572 	cmncc	r7, #478150656	; 0x1c800000
 84c:	00745f32 	rsbseq	r5, r4, r2, lsr pc
 850:	00000037 	andeq	r0, r0, r7, lsr r0
 854:	31676572 	smccc	30290	; 0x7652
 858:	00745f36 	rsbseq	r5, r4, r6, lsr pc
 85c:	00000049 	andeq	r0, r0, r9, asr #32
 860:	38676572 	stmdacc	r7!, {r1, r4, r5, r6, r8, sl, sp, lr}^
 864:	ec00745f 	cfstrs	mvf7, [r0], {95}	; 0x5f
 868:	68000000 	stmdavs	r0, {}	; <UNPREDICTABLE>
 86c:	61755f77 	cmnvs	r5, r7, ror pc
 870:	62647472 	rsbvs	r7, r4, #1912602624	; 0x72000000
 874:	5f726467 	svcpl	0x00726467
 878:	01d20074 	bicseq	r0, r2, r4, ror r0
 87c:	77680000 	strbvc	r0, [r8, -r0]!
 880:	7261755f 	rsbvc	r7, r1, #398458880	; 0x17c00000
 884:	67626474 			; <UNDEFINED> instruction: 0x67626474
 888:	745f7266 	ldrbvc	r7, [pc], #-614	; 890 <irq_handler+0x80c>
 88c:	0001e400 	andeq	lr, r1, r0, lsl #8
 890:	4f574400 	svcmi	0x00574400
 894:	00004452 	andeq	r4, r0, r2, asr r4
 898:	Address 0x00000898 is out of bounds.

