
main.elf:     file format elf32-littlearm


Disassembly of section .reset:

00000000 <_start>:
   0:	e59ff088 	ldr	pc, [pc, #136]	; 90 <irq_handler+0xc>
   4:	eafffffe 	b	4 <_start+0x4>
   8:	eafffffe 	b	8 <_start+0x8>
   c:	eafffffe 	b	c <_start+0xc>
  10:	eafffffe 	b	10 <_start+0x10>
  14:	eafffffe 	b	14 <_start+0x14>
  18:	e59ff074 	ldr	pc, [pc, #116]	; 94 <irq_handler+0x10>
  1c:	eafffffe 	b	1c <_start+0x1c>

00000020 <reset_handler>:
  20:	e3a0d902 	mov	sp, #32768	; 0x8000
  24:	e10f4000 	mrs	r4, CPSR
  28:	e3c4400f 	bic	r4, r4, #15
  2c:	e3844002 	orr	r4, r4, #2
  30:	e121f004 	msr	CPSR_c, r4
  34:	e3a0da07 	mov	sp, #28672	; 0x7000
  38:	e10f4000 	mrs	r4, CPSR
  3c:	e3c4400f 	bic	r4, r4, #15
  40:	e3844003 	orr	r4, r4, #3
  44:	e121f004 	msr	CPSR_c, r4
  48:	ee114f10 	mrc	15, 0, r4, cr1, cr0, {0}
  4c:	e3a05001 	mov	r5, #1
  50:	e1c44685 	bic	r4, r4, r5, lsl #13
  54:	ee014f10 	mcr	15, 0, r4, cr1, cr0, {0}
  58:	ea000422 	b	10e8 <Main>

0000005c <enable_irq>:
  5c:	e92d4010 	push	{r4, lr}
  60:	e10f4000 	mrs	r4, CPSR
  64:	e3c44080 	bic	r4, r4, #128	; 0x80
  68:	e121f004 	msr	CPSR_c, r4
  6c:	e8bd8010 	pop	{r4, pc}

00000070 <disable_irq>:
  70:	e92d4010 	push	{r4, lr}
  74:	e10f4000 	mrs	r4, CPSR
  78:	e3844080 	orr	r4, r4, #128	; 0x80
  7c:	e121f004 	msr	CPSR_c, r4
  80:	e8bd8010 	pop	{r4, pc}

00000084 <irq_handler>:
  84:	e25ee004 	subs	lr, lr, #4
  88:	e92d5fff 	push	{r0, r1, r2, r3, r4, r5, r6, r7, r8, r9, sl, fp, ip, lr}
  8c:	e8fd9fff 	ldm	sp!, {r0, r1, r2, r3, r4, r5, r6, r7, r8, r9, sl, fp, ip, pc}^
  90:	00000020 	andeq	r0, r0, r0, lsr #32
  94:	00000084 	andeq	r0, r0, r4, lsl #1

Disassembly of section .text:

00001000 <ddrtest>:
    1000:	e92d4800 	push	{fp, lr}
    1004:	e28db004 	add	fp, sp, #4
    1008:	e24dd010 	sub	sp, sp, #16
    100c:	e59f30c8 	ldr	r3, [pc, #200]	; 10dc <ddrtest+0xdc>
    1010:	e50b300c 	str	r3, [fp, #-12]
    1014:	e3a03101 	mov	r3, #1073741824	; 0x40000000
    1018:	e50b3010 	str	r3, [fp, #-16]
    101c:	e3a03000 	mov	r3, #0
    1020:	e50b3008 	str	r3, [fp, #-8]
    1024:	ea000009 	b	1050 <ddrtest+0x50>
    1028:	e51b3008 	ldr	r3, [fp, #-8]
    102c:	e1a03103 	lsl	r3, r3, #2
    1030:	e51b2010 	ldr	r2, [fp, #-16]
    1034:	e0823003 	add	r3, r2, r3
    1038:	e51b2008 	ldr	r2, [fp, #-8]
    103c:	e3c22008 	bic	r2, r2, #8
    1040:	e5832000 	str	r2, [r3]
    1044:	e51b3008 	ldr	r3, [fp, #-8]
    1048:	e2833001 	add	r3, r3, #1
    104c:	e50b3008 	str	r3, [fp, #-8]
    1050:	e51b2008 	ldr	r2, [fp, #-8]
    1054:	e59f3084 	ldr	r3, [pc, #132]	; 10e0 <ddrtest+0xe0>
    1058:	e1520003 	cmp	r2, r3
    105c:	9afffff1 	bls	1028 <ddrtest+0x28>
    1060:	e3a03000 	mov	r3, #0
    1064:	e50b3008 	str	r3, [fp, #-8]
    1068:	ea000013 	b	10bc <ddrtest+0xbc>
    106c:	e51b3008 	ldr	r3, [fp, #-8]
    1070:	e1a03103 	lsl	r3, r3, #2
    1074:	e51b2010 	ldr	r2, [fp, #-16]
    1078:	e0823003 	add	r3, r2, r3
    107c:	e5933000 	ldr	r3, [r3]
    1080:	e50b3014 	str	r3, [fp, #-20]	; 0xffffffec
    1084:	e51b3008 	ldr	r3, [fp, #-8]
    1088:	e3c33008 	bic	r3, r3, #8
    108c:	e51b2014 	ldr	r2, [fp, #-20]	; 0xffffffec
    1090:	e1520003 	cmp	r2, r3
    1094:	0a000005 	beq	10b0 <ddrtest+0xb0>
    1098:	e51b0008 	ldr	r0, [fp, #-8]
    109c:	eb000bc0 	bl	3fa4 <PrintHex>
    10a0:	e59f003c 	ldr	r0, [pc, #60]	; 10e4 <ddrtest+0xe4>
    10a4:	eb0011df 	bl	5828 <puts>
    10a8:	e51b0014 	ldr	r0, [fp, #-20]	; 0xffffffec
    10ac:	eb000bbc 	bl	3fa4 <PrintHex>
    10b0:	e51b3008 	ldr	r3, [fp, #-8]
    10b4:	e2833001 	add	r3, r3, #1
    10b8:	e50b3008 	str	r3, [fp, #-8]
    10bc:	e51b2008 	ldr	r2, [fp, #-8]
    10c0:	e59f3018 	ldr	r3, [pc, #24]	; 10e0 <ddrtest+0xe0>
    10c4:	e1520003 	cmp	r2, r3
    10c8:	9affffe7 	bls	106c <ddrtest+0x6c>
    10cc:	e3a03000 	mov	r3, #0
    10d0:	e1a00003 	mov	r0, r3
    10d4:	e24bd004 	sub	sp, fp, #4
    10d8:	e8bd8800 	pop	{fp, pc}
    10dc:	41f00000 	mvnsmi	r0, r0
    10e0:	00fffffe 	ldrshteq	pc, [pc], #254	; <UNPREDICTABLE>
    10e4:	00005a60 	andeq	r5, r0, r0, ror #20

000010e8 <Main>:
    10e8:	e92d4800 	push	{fp, lr}
    10ec:	e28db004 	add	fp, sp, #4
    10f0:	e24dd048 	sub	sp, sp, #72	; 0x48
    10f4:	eb000db2 	bl	47c4 <init>
    10f8:	eb000279 	bl	1ae4 <start>
    10fc:	e59f3138 	ldr	r3, [pc, #312]	; 123c <Main+0x154>
    1100:	e5933000 	ldr	r3, [r3]
    1104:	e1a00003 	mov	r0, r3
    1108:	eb0011c6 	bl	5828 <puts>
    110c:	e3a00101 	mov	r0, #1073741824	; 0x40000000
    1110:	eb000e1e 	bl	4990 <init_taglist>
    1114:	e59f0124 	ldr	r0, [pc, #292]	; 1240 <Main+0x158>
    1118:	eb0011c2 	bl	5828 <puts>
    111c:	e24b302c 	sub	r3, fp, #44	; 0x2c
    1120:	e1a00003 	mov	r0, r3
    1124:	eb00107d 	bl	5320 <cmdline>
    1128:	e50b000c 	str	r0, [fp, #-12]
    112c:	e51b300c 	ldr	r3, [fp, #-12]
    1130:	e3530001 	cmp	r3, #1
    1134:	1a000016 	bne	1194 <Main+0xac>
    1138:	e51b302c 	ldr	r3, [fp, #-44]	; 0xffffffd4
    113c:	e1a00003 	mov	r0, r3
    1140:	e59f10fc 	ldr	r1, [pc, #252]	; 1244 <Main+0x15c>
    1144:	eb000ed9 	bl	4cb0 <strcmp>
    1148:	e1a03000 	mov	r3, r0
    114c:	e3530000 	cmp	r3, #0
    1150:	1a00000f 	bne	1194 <Main+0xac>
    1154:	e3a03000 	mov	r3, #0
    1158:	e50b3008 	str	r3, [fp, #-8]
    115c:	ea000009 	b	1188 <Main+0xa0>
    1160:	e59f00e0 	ldr	r0, [pc, #224]	; 1248 <Main+0x160>
    1164:	eb0011af 	bl	5828 <puts>
    1168:	e59f30cc 	ldr	r3, [pc, #204]	; 123c <Main+0x154>
    116c:	e51b2008 	ldr	r2, [fp, #-8]
    1170:	e7933102 	ldr	r3, [r3, r2, lsl #2]
    1174:	e1a00003 	mov	r0, r3
    1178:	eb0011aa 	bl	5828 <puts>
    117c:	e51b3008 	ldr	r3, [fp, #-8]
    1180:	e2833001 	add	r3, r3, #1
    1184:	e50b3008 	str	r3, [fp, #-8]
    1188:	e51b3008 	ldr	r3, [fp, #-8]
    118c:	e3530002 	cmp	r3, #2
    1190:	dafffff2 	ble	1160 <Main+0x78>
    1194:	e51b300c 	ldr	r3, [fp, #-12]
    1198:	e3530002 	cmp	r3, #2
    119c:	1a000009 	bne	11c8 <Main+0xe0>
    11a0:	e51b302c 	ldr	r3, [fp, #-44]	; 0xffffffd4
    11a4:	e1a00003 	mov	r0, r3
    11a8:	e59f109c 	ldr	r1, [pc, #156]	; 124c <Main+0x164>
    11ac:	eb000ebf 	bl	4cb0 <strcmp>
    11b0:	e1a03000 	mov	r3, r0
    11b4:	e3530000 	cmp	r3, #0
    11b8:	1a000002 	bne	11c8 <Main+0xe0>
    11bc:	e51b3028 	ldr	r3, [fp, #-40]	; 0xffffffd8
    11c0:	e1a00003 	mov	r0, r3
    11c4:	eb0010a6 	bl	5464 <cmd_get>
    11c8:	e51b300c 	ldr	r3, [fp, #-12]
    11cc:	e3530002 	cmp	r3, #2
    11d0:	1a000009 	bne	11fc <Main+0x114>
    11d4:	e51b302c 	ldr	r3, [fp, #-44]	; 0xffffffd4
    11d8:	e1a00003 	mov	r0, r3
    11dc:	e59f106c 	ldr	r1, [pc, #108]	; 1250 <Main+0x168>
    11e0:	eb000eb2 	bl	4cb0 <strcmp>
    11e4:	e1a03000 	mov	r3, r0
    11e8:	e3530000 	cmp	r3, #0
    11ec:	1a000002 	bne	11fc <Main+0x114>
    11f0:	e51b3028 	ldr	r3, [fp, #-40]	; 0xffffffd8
    11f4:	e1a00003 	mov	r0, r3
    11f8:	eb0010b7 	bl	54dc <cmd_go>
    11fc:	e51b300c 	ldr	r3, [fp, #-12]
    1200:	e3530001 	cmp	r3, #1
    1204:	1a000007 	bne	1228 <Main+0x140>
    1208:	e51b302c 	ldr	r3, [fp, #-44]	; 0xffffffd4
    120c:	e1a00003 	mov	r0, r3
    1210:	e59f103c 	ldr	r1, [pc, #60]	; 1254 <Main+0x16c>
    1214:	eb000ea5 	bl	4cb0 <strcmp>
    1218:	e1a03000 	mov	r3, r0
    121c:	e3530000 	cmp	r3, #0
    1220:	1a000000 	bne	1228 <Main+0x140>
    1224:	ebffff75 	bl	1000 <ddrtest>
    1228:	e3a0000a 	mov	r0, #10
    122c:	eb00116a 	bl	57dc <putchr>
    1230:	e3a0000d 	mov	r0, #13
    1234:	eb001168 	bl	57dc <putchr>
    1238:	eaffffb5 	b	1114 <Main+0x2c>
    123c:	00006000 	andeq	r6, r0, r0
    1240:	00005ad4 	ldrdeq	r5, [r0], -r4
    1244:	00005ae0 	andeq	r5, r0, r0, ror #21
    1248:	00005ae4 	andeq	r5, r0, r4, ror #21
    124c:	00005ae8 	andeq	r5, r0, r8, ror #21
    1250:	00005aec 	andeq	r5, r0, ip, ror #21
    1254:	00005af0 	strdeq	r5, [r0], -r0

00001258 <hw_emi_IsControllerHalted>:
    1258:	e52db004 	push	{fp}		; (str fp, [sp, #-4]!)
    125c:	e28db000 	add	fp, sp, #0
    1260:	e59f301c 	ldr	r3, [pc, #28]	; 1284 <hw_emi_IsControllerHalted+0x2c>
    1264:	e5933000 	ldr	r3, [r3]
    1268:	e1a030a3 	lsr	r3, r3, #1
    126c:	e2033001 	and	r3, r3, #1
    1270:	e20330ff 	and	r3, r3, #255	; 0xff
    1274:	e1a00003 	mov	r0, r3
    1278:	e28bd000 	add	sp, fp, #0
    127c:	e49db004 	pop	{fp}		; (ldr fp, [sp], #4)
    1280:	e12fff1e 	bx	lr
    1284:	80020010 	andhi	r0, r2, r0, lsl r0

00001288 <hw_core_drain_write_buffer>:
    1288:	e52db004 	push	{fp}		; (str fp, [sp, #-4]!)
    128c:	e28db000 	add	fp, sp, #0
    1290:	e28bd000 	add	sp, fp, #0
    1294:	e49db004 	pop	{fp}		; (ldr fp, [sp], #4)
    1298:	e12fff1e 	bx	lr

0000129c <hw_emi_IsDramSupported>:
    129c:	e52db004 	push	{fp}		; (str fp, [sp, #-4]!)
    12a0:	e28db000 	add	fp, sp, #0
    12a4:	e59f3028 	ldr	r3, [pc, #40]	; 12d4 <hw_emi_IsDramSupported+0x38>
    12a8:	e5933000 	ldr	r3, [r3]
    12ac:	e2033102 	and	r3, r3, #-2147483648	; 0x80000000
    12b0:	e3530000 	cmp	r3, #0
    12b4:	0a000001 	beq	12c0 <hw_emi_IsDramSupported+0x24>
    12b8:	e3a03001 	mov	r3, #1
    12bc:	ea000000 	b	12c4 <hw_emi_IsDramSupported+0x28>
    12c0:	e3a03000 	mov	r3, #0
    12c4:	e1a00003 	mov	r0, r3
    12c8:	e28bd000 	add	sp, fp, #0
    12cc:	e49db004 	pop	{fp}		; (ldr fp, [sp], #4)
    12d0:	e12fff1e 	bx	lr
    12d4:	80020010 	andhi	r0, r2, r0, lsl r0

000012d8 <hw_emi_ClearReset>:
    12d8:	e52db004 	push	{fp}		; (str fp, [sp, #-4]!)
    12dc:	e28db000 	add	fp, sp, #0
    12e0:	e59f301c 	ldr	r3, [pc, #28]	; 1304 <hw_emi_ClearReset+0x2c>
    12e4:	e3a02102 	mov	r2, #-2147483648	; 0x80000000
    12e8:	e5832000 	str	r2, [r3]
    12ec:	e59f3010 	ldr	r3, [pc, #16]	; 1304 <hw_emi_ClearReset+0x2c>
    12f0:	e3a02101 	mov	r2, #1073741824	; 0x40000000
    12f4:	e5832000 	str	r2, [r3]
    12f8:	e28bd000 	add	sp, fp, #0
    12fc:	e49db004 	pop	{fp}		; (ldr fp, [sp], #4)
    1300:	e12fff1e 	bx	lr
    1304:	80020008 	andhi	r0, r2, r8

00001308 <hw_clkctrl_SetEmiClkRefXtalDiv>:
    1308:	e52db004 	push	{fp}		; (str fp, [sp, #-4]!)
    130c:	e28db000 	add	fp, sp, #0
    1310:	e24dd00c 	sub	sp, sp, #12
    1314:	e50b0008 	str	r0, [fp, #-8]
    1318:	e59f3070 	ldr	r3, [pc, #112]	; 1390 <hw_clkctrl_SetEmiClkRefXtalDiv+0x88>
    131c:	e5933000 	ldr	r3, [r3]
    1320:	e2033202 	and	r3, r3, #536870912	; 0x20000000
    1324:	e3530000 	cmp	r3, #0
    1328:	0a000001 	beq	1334 <hw_clkctrl_SetEmiClkRefXtalDiv+0x2c>
    132c:	e59f3060 	ldr	r3, [pc, #96]	; 1394 <hw_clkctrl_SetEmiClkRefXtalDiv+0x8c>
    1330:	ea000012 	b	1380 <hw_clkctrl_SetEmiClkRefXtalDiv+0x78>
    1334:	e59f3054 	ldr	r3, [pc, #84]	; 1390 <hw_clkctrl_SetEmiClkRefXtalDiv+0x88>
    1338:	e5933000 	ldr	r3, [r3]
    133c:	e2033102 	and	r3, r3, #-2147483648	; 0x80000000
    1340:	e3530000 	cmp	r3, #0
    1344:	0a000001 	beq	1350 <hw_clkctrl_SetEmiClkRefXtalDiv+0x48>
    1348:	e59f3048 	ldr	r3, [pc, #72]	; 1398 <hw_clkctrl_SetEmiClkRefXtalDiv+0x90>
    134c:	ea00000b 	b	1380 <hw_clkctrl_SetEmiClkRefXtalDiv+0x78>
    1350:	e59f1038 	ldr	r1, [pc, #56]	; 1390 <hw_clkctrl_SetEmiClkRefXtalDiv+0x88>
    1354:	e51b3008 	ldr	r3, [fp, #-8]
    1358:	e20330ff 	and	r3, r3, #255	; 0xff
    135c:	e203300f 	and	r3, r3, #15
    1360:	e20320ff 	and	r2, r3, #255	; 0xff
    1364:	e5913000 	ldr	r3, [r1]
    1368:	e202200f 	and	r2, r2, #15
    136c:	e3c33c0f 	bic	r3, r3, #3840	; 0xf00
    1370:	e1a02402 	lsl	r2, r2, #8
    1374:	e1823003 	orr	r3, r2, r3
    1378:	e5813000 	str	r3, [r1]
    137c:	e3a03000 	mov	r3, #0
    1380:	e1a00003 	mov	r0, r3
    1384:	e28bd000 	add	sp, fp, #0
    1388:	e49db004 	pop	{fp}		; (ldr fp, [sp], #4)
    138c:	e12fff1e 	bx	lr
    1390:	800400a0 	andhi	r0, r4, r0, lsr #1
    1394:	f011a004 			; <UNDEFINED> instruction: 0xf011a004
    1398:	f011a005 			; <UNDEFINED> instruction: 0xf011a005

0000139c <hw_clkctrl_SetEmiRefXtalClkGate>:
    139c:	e52db004 	push	{fp}		; (str fp, [sp, #-4]!)
    13a0:	e28db000 	add	fp, sp, #0
    13a4:	e24dd00c 	sub	sp, sp, #12
    13a8:	e50b0008 	str	r0, [fp, #-8]
    13ac:	e51b3008 	ldr	r3, [fp, #-8]
    13b0:	e3530000 	cmp	r3, #0
    13b4:	0a000005 	beq	13d0 <hw_clkctrl_SetEmiRefXtalClkGate+0x34>
    13b8:	e59f3048 	ldr	r3, [pc, #72]	; 1408 <hw_clkctrl_SetEmiRefXtalClkGate+0x6c>
    13bc:	e59f2044 	ldr	r2, [pc, #68]	; 1408 <hw_clkctrl_SetEmiRefXtalClkGate+0x6c>
    13c0:	e5922000 	ldr	r2, [r2]
    13c4:	e3822102 	orr	r2, r2, #-2147483648	; 0x80000000
    13c8:	e5832000 	str	r2, [r3]
    13cc:	ea000005 	b	13e8 <hw_clkctrl_SetEmiRefXtalClkGate+0x4c>
    13d0:	e59f3030 	ldr	r3, [pc, #48]	; 1408 <hw_clkctrl_SetEmiRefXtalClkGate+0x6c>
    13d4:	e59f202c 	ldr	r2, [pc, #44]	; 1408 <hw_clkctrl_SetEmiRefXtalClkGate+0x6c>
    13d8:	e5922000 	ldr	r2, [r2]
    13dc:	e3c22102 	bic	r2, r2, #-2147483648	; 0x80000000
    13e0:	e5832000 	str	r2, [r3]
    13e4:	e1a00000 	nop			; (mov r0, r0)
    13e8:	e59f3018 	ldr	r3, [pc, #24]	; 1408 <hw_clkctrl_SetEmiRefXtalClkGate+0x6c>
    13ec:	e5933000 	ldr	r3, [r3]
    13f0:	e2033202 	and	r3, r3, #536870912	; 0x20000000
    13f4:	e3530000 	cmp	r3, #0
    13f8:	1afffffa 	bne	13e8 <hw_clkctrl_SetEmiRefXtalClkGate+0x4c>
    13fc:	e28bd000 	add	sp, fp, #0
    1400:	e49db004 	pop	{fp}		; (ldr fp, [sp], #4)
    1404:	e12fff1e 	bx	lr
    1408:	800400a0 	andhi	r0, r4, r0, lsr #1

0000140c <hw_clkctrl_SetClkBypass>:
    140c:	e52db004 	push	{fp}		; (str fp, [sp, #-4]!)
    1410:	e28db000 	add	fp, sp, #0
    1414:	e24dd00c 	sub	sp, sp, #12
    1418:	e50b0008 	str	r0, [fp, #-8]
    141c:	e50b100c 	str	r1, [fp, #-12]
    1420:	e51b3008 	ldr	r3, [fp, #-8]
    1424:	e3530010 	cmp	r3, #16
    1428:	0a00002a 	beq	14d8 <hw_clkctrl_SetClkBypass+0xcc>
    142c:	e3530010 	cmp	r3, #16
    1430:	8a000006 	bhi	1450 <hw_clkctrl_SetClkBypass+0x44>
    1434:	e3530002 	cmp	r3, #2
    1438:	0a000030 	beq	1500 <hw_clkctrl_SetClkBypass+0xf4>
    143c:	e3530008 	cmp	r3, #8
    1440:	0a000024 	beq	14d8 <hw_clkctrl_SetClkBypass+0xcc>
    1444:	e3530001 	cmp	r3, #1
    1448:	0a000036 	beq	1528 <hw_clkctrl_SetClkBypass+0x11c>
    144c:	ea00003a 	b	153c <hw_clkctrl_SetClkBypass+0x130>
    1450:	e3530040 	cmp	r3, #64	; 0x40
    1454:	0a00000e 	beq	1494 <hw_clkctrl_SetClkBypass+0x88>
    1458:	e3530080 	cmp	r3, #128	; 0x80
    145c:	0a000002 	beq	146c <hw_clkctrl_SetClkBypass+0x60>
    1460:	e3530020 	cmp	r3, #32
    1464:	0a00001b 	beq	14d8 <hw_clkctrl_SetClkBypass+0xcc>
    1468:	ea000033 	b	153c <hw_clkctrl_SetClkBypass+0x130>
    146c:	e51b300c 	ldr	r3, [fp, #-12]
    1470:	e3530000 	cmp	r3, #0
    1474:	1a000032 	bne	1544 <hw_clkctrl_SetClkBypass+0x138>
    1478:	e59f3144 	ldr	r3, [pc, #324]	; 15c4 <hw_clkctrl_SetClkBypass+0x1b8>
    147c:	e5933000 	ldr	r3, [r3]
    1480:	e2033080 	and	r3, r3, #128	; 0x80
    1484:	e3530000 	cmp	r3, #0
    1488:	0a00002f 	beq	154c <hw_clkctrl_SetClkBypass+0x140>
    148c:	e59f3134 	ldr	r3, [pc, #308]	; 15c8 <hw_clkctrl_SetClkBypass+0x1bc>
    1490:	ea000047 	b	15b4 <hw_clkctrl_SetClkBypass+0x1a8>
    1494:	e51b300c 	ldr	r3, [fp, #-12]
    1498:	e3530000 	cmp	r3, #0
    149c:	0a000006 	beq	14bc <hw_clkctrl_SetClkBypass+0xb0>
    14a0:	e59f3124 	ldr	r3, [pc, #292]	; 15cc <hw_clkctrl_SetClkBypass+0x1c0>
    14a4:	e5933000 	ldr	r3, [r3]
    14a8:	e2033102 	and	r3, r3, #-2147483648	; 0x80000000
    14ac:	e3530000 	cmp	r3, #0
    14b0:	0a000027 	beq	1554 <hw_clkctrl_SetClkBypass+0x148>
    14b4:	e59f3114 	ldr	r3, [pc, #276]	; 15d0 <hw_clkctrl_SetClkBypass+0x1c4>
    14b8:	ea00003d 	b	15b4 <hw_clkctrl_SetClkBypass+0x1a8>
    14bc:	e59f3100 	ldr	r3, [pc, #256]	; 15c4 <hw_clkctrl_SetClkBypass+0x1b8>
    14c0:	e5933000 	ldr	r3, [r3]
    14c4:	e2033902 	and	r3, r3, #32768	; 0x8000
    14c8:	e3530000 	cmp	r3, #0
    14cc:	0a000022 	beq	155c <hw_clkctrl_SetClkBypass+0x150>
    14d0:	e59f30fc 	ldr	r3, [pc, #252]	; 15d4 <hw_clkctrl_SetClkBypass+0x1c8>
    14d4:	ea000036 	b	15b4 <hw_clkctrl_SetClkBypass+0x1a8>
    14d8:	e51b300c 	ldr	r3, [fp, #-12]
    14dc:	e3530000 	cmp	r3, #0
    14e0:	1a00001f 	bne	1564 <hw_clkctrl_SetClkBypass+0x158>
    14e4:	e59f30d8 	ldr	r3, [pc, #216]	; 15c4 <hw_clkctrl_SetClkBypass+0x1b8>
    14e8:	e5933000 	ldr	r3, [r3]
    14ec:	e2033102 	and	r3, r3, #-2147483648	; 0x80000000
    14f0:	e3530000 	cmp	r3, #0
    14f4:	0a00001c 	beq	156c <hw_clkctrl_SetClkBypass+0x160>
    14f8:	e59f30d8 	ldr	r3, [pc, #216]	; 15d8 <hw_clkctrl_SetClkBypass+0x1cc>
    14fc:	ea00002c 	b	15b4 <hw_clkctrl_SetClkBypass+0x1a8>
    1500:	e51b300c 	ldr	r3, [fp, #-12]
    1504:	e3530000 	cmp	r3, #0
    1508:	1a000019 	bne	1574 <hw_clkctrl_SetClkBypass+0x168>
    150c:	e59f30b0 	ldr	r3, [pc, #176]	; 15c4 <hw_clkctrl_SetClkBypass+0x1b8>
    1510:	e5933000 	ldr	r3, [r3]
    1514:	e2033502 	and	r3, r3, #8388608	; 0x800000
    1518:	e3530000 	cmp	r3, #0
    151c:	0a000016 	beq	157c <hw_clkctrl_SetClkBypass+0x170>
    1520:	e59f30b4 	ldr	r3, [pc, #180]	; 15dc <hw_clkctrl_SetClkBypass+0x1d0>
    1524:	ea000022 	b	15b4 <hw_clkctrl_SetClkBypass+0x1a8>
    1528:	e51b300c 	ldr	r3, [fp, #-12]
    152c:	e3530000 	cmp	r3, #0
    1530:	0a000013 	beq	1584 <hw_clkctrl_SetClkBypass+0x178>
    1534:	e59f30a4 	ldr	r3, [pc, #164]	; 15e0 <hw_clkctrl_SetClkBypass+0x1d4>
    1538:	ea00001d 	b	15b4 <hw_clkctrl_SetClkBypass+0x1a8>
    153c:	e59f30a0 	ldr	r3, [pc, #160]	; 15e4 <hw_clkctrl_SetClkBypass+0x1d8>
    1540:	ea00001b 	b	15b4 <hw_clkctrl_SetClkBypass+0x1a8>
    1544:	e1a00000 	nop			; (mov r0, r0)
    1548:	ea00000e 	b	1588 <hw_clkctrl_SetClkBypass+0x17c>
    154c:	e1a00000 	nop			; (mov r0, r0)
    1550:	ea00000c 	b	1588 <hw_clkctrl_SetClkBypass+0x17c>
    1554:	e1a00000 	nop			; (mov r0, r0)
    1558:	ea00000a 	b	1588 <hw_clkctrl_SetClkBypass+0x17c>
    155c:	e1a00000 	nop			; (mov r0, r0)
    1560:	ea000008 	b	1588 <hw_clkctrl_SetClkBypass+0x17c>
    1564:	e1a00000 	nop			; (mov r0, r0)
    1568:	ea000006 	b	1588 <hw_clkctrl_SetClkBypass+0x17c>
    156c:	e1a00000 	nop			; (mov r0, r0)
    1570:	ea000004 	b	1588 <hw_clkctrl_SetClkBypass+0x17c>
    1574:	e1a00000 	nop			; (mov r0, r0)
    1578:	ea000002 	b	1588 <hw_clkctrl_SetClkBypass+0x17c>
    157c:	e1a00000 	nop			; (mov r0, r0)
    1580:	ea000000 	b	1588 <hw_clkctrl_SetClkBypass+0x17c>
    1584:	e1a00000 	nop			; (mov r0, r0)
    1588:	e51b300c 	ldr	r3, [fp, #-12]
    158c:	e3530000 	cmp	r3, #0
    1590:	0a000003 	beq	15a4 <hw_clkctrl_SetClkBypass+0x198>
    1594:	e59f304c 	ldr	r3, [pc, #76]	; 15e8 <hw_clkctrl_SetClkBypass+0x1dc>
    1598:	e51b2008 	ldr	r2, [fp, #-8]
    159c:	e5832000 	str	r2, [r3]
    15a0:	ea000002 	b	15b0 <hw_clkctrl_SetClkBypass+0x1a4>
    15a4:	e59f3040 	ldr	r3, [pc, #64]	; 15ec <hw_clkctrl_SetClkBypass+0x1e0>
    15a8:	e51b2008 	ldr	r2, [fp, #-8]
    15ac:	e5832000 	str	r2, [r3]
    15b0:	e3a03000 	mov	r3, #0
    15b4:	e1a00003 	mov	r0, r3
    15b8:	e28bd000 	add	sp, fp, #0
    15bc:	e49db004 	pop	{fp}		; (ldr fp, [sp], #4)
    15c0:	e12fff1e 	bx	lr
    15c4:	800400f0 	strdhi	r0, [r4], -r0	; <UNPREDICTABLE>
    15c8:	f011a007 			; <UNDEFINED> instruction: 0xf011a007
    15cc:	800400a0 	andhi	r0, r4, r0, lsr #1
    15d0:	f011a006 			; <UNDEFINED> instruction: 0xf011a006
    15d4:	f011a008 			; <UNDEFINED> instruction: 0xf011a008
    15d8:	f011a009 			; <UNDEFINED> instruction: 0xf011a009
    15dc:	f011a00a 			; <UNDEFINED> instruction: 0xf011a00a
    15e0:	f011a00b 			; <UNDEFINED> instruction: 0xf011a00b
    15e4:	f011a00c 			; <UNDEFINED> instruction: 0xf011a00c
    15e8:	80040114 	andhi	r0, r4, r4, lsl r1
    15ec:	80040118 	andhi	r0, r4, r8, lsl r1

000015f0 <ddi_emi_InitClockSpeedDependentVars>:
    15f0:	e52db004 	push	{fp}		; (str fp, [sp, #-4]!)
    15f4:	e28db000 	add	fp, sp, #0
    15f8:	e59f30f4 	ldr	r3, [pc, #244]	; 16f4 <ddi_emi_InitClockSpeedDependentVars+0x104>
    15fc:	e5932000 	ldr	r2, [r3]
    1600:	e59f30f0 	ldr	r3, [pc, #240]	; 16f8 <ddi_emi_InitClockSpeedDependentVars+0x108>
    1604:	e5832008 	str	r2, [r3, #8]
    1608:	e59f30ec 	ldr	r3, [pc, #236]	; 16fc <ddi_emi_InitClockSpeedDependentVars+0x10c>
    160c:	e5932000 	ldr	r2, [r3]
    1610:	e59f30e0 	ldr	r3, [pc, #224]	; 16f8 <ddi_emi_InitClockSpeedDependentVars+0x108>
    1614:	e5832010 	str	r2, [r3, #16]
    1618:	e59f30e0 	ldr	r3, [pc, #224]	; 1700 <ddi_emi_InitClockSpeedDependentVars+0x110>
    161c:	e5932000 	ldr	r2, [r3]
    1620:	e59f30d0 	ldr	r3, [pc, #208]	; 16f8 <ddi_emi_InitClockSpeedDependentVars+0x108>
    1624:	e5832014 	str	r2, [r3, #20]
    1628:	e59f30d4 	ldr	r3, [pc, #212]	; 1704 <ddi_emi_InitClockSpeedDependentVars+0x114>
    162c:	e5932000 	ldr	r2, [r3]
    1630:	e59f30c0 	ldr	r3, [pc, #192]	; 16f8 <ddi_emi_InitClockSpeedDependentVars+0x108>
    1634:	e5832018 	str	r2, [r3, #24]
    1638:	e59f30c8 	ldr	r3, [pc, #200]	; 1708 <ddi_emi_InitClockSpeedDependentVars+0x118>
    163c:	e5932000 	ldr	r2, [r3]
    1640:	e59f30b0 	ldr	r3, [pc, #176]	; 16f8 <ddi_emi_InitClockSpeedDependentVars+0x108>
    1644:	e583201c 	str	r2, [r3, #28]
    1648:	e59f30bc 	ldr	r3, [pc, #188]	; 170c <ddi_emi_InitClockSpeedDependentVars+0x11c>
    164c:	e5932000 	ldr	r2, [r3]
    1650:	e59f30a0 	ldr	r3, [pc, #160]	; 16f8 <ddi_emi_InitClockSpeedDependentVars+0x108>
    1654:	e5832020 	str	r2, [r3, #32]
    1658:	e59f30b0 	ldr	r3, [pc, #176]	; 1710 <ddi_emi_InitClockSpeedDependentVars+0x120>
    165c:	e5932000 	ldr	r2, [r3]
    1660:	e59f3090 	ldr	r3, [pc, #144]	; 16f8 <ddi_emi_InitClockSpeedDependentVars+0x108>
    1664:	e5832024 	str	r2, [r3, #36]	; 0x24
    1668:	e59f30a4 	ldr	r3, [pc, #164]	; 1714 <ddi_emi_InitClockSpeedDependentVars+0x124>
    166c:	e5932000 	ldr	r2, [r3]
    1670:	e59f3080 	ldr	r3, [pc, #128]	; 16f8 <ddi_emi_InitClockSpeedDependentVars+0x108>
    1674:	e5832028 	str	r2, [r3, #40]	; 0x28
    1678:	e59f3098 	ldr	r3, [pc, #152]	; 1718 <ddi_emi_InitClockSpeedDependentVars+0x128>
    167c:	e5932000 	ldr	r2, [r3]
    1680:	e59f3070 	ldr	r3, [pc, #112]	; 16f8 <ddi_emi_InitClockSpeedDependentVars+0x108>
    1684:	e583202c 	str	r2, [r3, #44]	; 0x2c
    1688:	e59f308c 	ldr	r3, [pc, #140]	; 171c <ddi_emi_InitClockSpeedDependentVars+0x12c>
    168c:	e5932000 	ldr	r2, [r3]
    1690:	e59f3060 	ldr	r3, [pc, #96]	; 16f8 <ddi_emi_InitClockSpeedDependentVars+0x108>
    1694:	e5832030 	str	r2, [r3, #48]	; 0x30
    1698:	e59f3080 	ldr	r3, [pc, #128]	; 1720 <ddi_emi_InitClockSpeedDependentVars+0x130>
    169c:	e5932000 	ldr	r2, [r3]
    16a0:	e59f3050 	ldr	r3, [pc, #80]	; 16f8 <ddi_emi_InitClockSpeedDependentVars+0x108>
    16a4:	e5832034 	str	r2, [r3, #52]	; 0x34
    16a8:	e59f3074 	ldr	r3, [pc, #116]	; 1724 <ddi_emi_InitClockSpeedDependentVars+0x134>
    16ac:	e5932000 	ldr	r2, [r3]
    16b0:	e59f3040 	ldr	r3, [pc, #64]	; 16f8 <ddi_emi_InitClockSpeedDependentVars+0x108>
    16b4:	e5832038 	str	r2, [r3, #56]	; 0x38
    16b8:	e59f3068 	ldr	r3, [pc, #104]	; 1728 <ddi_emi_InitClockSpeedDependentVars+0x138>
    16bc:	e5932000 	ldr	r2, [r3]
    16c0:	e59f3030 	ldr	r3, [pc, #48]	; 16f8 <ddi_emi_InitClockSpeedDependentVars+0x108>
    16c4:	e583203c 	str	r2, [r3, #60]	; 0x3c
    16c8:	e59f305c 	ldr	r3, [pc, #92]	; 172c <ddi_emi_InitClockSpeedDependentVars+0x13c>
    16cc:	e5932000 	ldr	r2, [r3]
    16d0:	e59f3020 	ldr	r3, [pc, #32]	; 16f8 <ddi_emi_InitClockSpeedDependentVars+0x108>
    16d4:	e583200c 	str	r2, [r3, #12]
    16d8:	e59f3050 	ldr	r3, [pc, #80]	; 1730 <ddi_emi_InitClockSpeedDependentVars+0x140>
    16dc:	e5932000 	ldr	r2, [r3]
    16e0:	e59f3010 	ldr	r3, [pc, #16]	; 16f8 <ddi_emi_InitClockSpeedDependentVars+0x108>
    16e4:	e5832040 	str	r2, [r3, #64]	; 0x40
    16e8:	e28bd000 	add	sp, fp, #0
    16ec:	e49db004 	pop	{fp}		; (ldr fp, [sp], #4)
    16f0:	e12fff1e 	bx	lr
    16f4:	800e0010 	andhi	r0, lr, r0, lsl r0
    16f8:	000060b4 	strheq	r6, [r0], -r4
    16fc:	800e0030 	andhi	r0, lr, r0, lsr r0
    1700:	800e0034 	andhi	r0, lr, r4, lsr r0
    1704:	800e003c 	andhi	r0, lr, ip, lsr r0
    1708:	800e0044 	andhi	r0, lr, r4, asr #32
    170c:	800e0048 	andhi	r0, lr, r8, asr #32
    1710:	800e004c 	andhi	r0, lr, ip, asr #32
    1714:	800e0050 	andhi	r0, lr, r0, asr r0
    1718:	800e0054 	andhi	r0, lr, r4, asr r0
    171c:	800e0068 	andhi	r0, lr, r8, rrx
    1720:	800e0080 	andhi	r0, lr, r0, lsl #1
    1724:	800e0084 	andhi	r0, lr, r4, lsl #1
    1728:	800e0088 	andhi	r0, lr, r8, lsl #1
    172c:	800e001c 	andhi	r0, lr, ip, lsl r0
    1730:	800e00a0 	andhi	r0, lr, r0, lsr #1

00001734 <ddi_emi_EnterAutoMemoryClockGateMode>:
    1734:	e92d4800 	push	{fp, lr}
    1738:	e28db004 	add	fp, sp, #4
    173c:	e3a00001 	mov	r0, #1
    1740:	eb00001c 	bl	17b8 <hw_emi_SetMemoryClockGateAutoFlag>
    1744:	e3a00001 	mov	r0, #1
    1748:	eb000004 	bl	1760 <hw_emi_EnterMemoryClockGateMode>
    174c:	e59f3008 	ldr	r3, [pc, #8]	; 175c <ddi_emi_EnterAutoMemoryClockGateMode+0x28>
    1750:	e3a02001 	mov	r2, #1
    1754:	e5832048 	str	r2, [r3, #72]	; 0x48
    1758:	e8bd8800 	pop	{fp, pc}
    175c:	000060b4 	strheq	r6, [r0], -r4

00001760 <hw_emi_EnterMemoryClockGateMode>:
    1760:	e52db004 	push	{fp}		; (str fp, [sp, #-4]!)
    1764:	e28db000 	add	fp, sp, #0
    1768:	e24dd00c 	sub	sp, sp, #12
    176c:	e50b0008 	str	r0, [fp, #-8]
    1770:	e51b3008 	ldr	r3, [fp, #-8]
    1774:	e3530000 	cmp	r3, #0
    1778:	0a000005 	beq	1794 <hw_emi_EnterMemoryClockGateMode+0x34>
    177c:	e59f3030 	ldr	r3, [pc, #48]	; 17b4 <hw_emi_EnterMemoryClockGateMode+0x54>
    1780:	e59f202c 	ldr	r2, [pc, #44]	; 17b4 <hw_emi_EnterMemoryClockGateMode+0x54>
    1784:	e5922000 	ldr	r2, [r2]
    1788:	e3822702 	orr	r2, r2, #524288	; 0x80000
    178c:	e5832000 	str	r2, [r3]
    1790:	ea000004 	b	17a8 <hw_emi_EnterMemoryClockGateMode+0x48>
    1794:	e59f3018 	ldr	r3, [pc, #24]	; 17b4 <hw_emi_EnterMemoryClockGateMode+0x54>
    1798:	e59f2014 	ldr	r2, [pc, #20]	; 17b4 <hw_emi_EnterMemoryClockGateMode+0x54>
    179c:	e5922000 	ldr	r2, [r2]
    17a0:	e3c22702 	bic	r2, r2, #524288	; 0x80000
    17a4:	e5832000 	str	r2, [r3]
    17a8:	e28bd000 	add	sp, fp, #0
    17ac:	e49db004 	pop	{fp}		; (ldr fp, [sp], #4)
    17b0:	e12fff1e 	bx	lr
    17b4:	800e0040 	andhi	r0, lr, r0, asr #32

000017b8 <hw_emi_SetMemoryClockGateAutoFlag>:
    17b8:	e52db004 	push	{fp}		; (str fp, [sp, #-4]!)
    17bc:	e28db000 	add	fp, sp, #0
    17c0:	e24dd00c 	sub	sp, sp, #12
    17c4:	e50b0008 	str	r0, [fp, #-8]
    17c8:	e51b3008 	ldr	r3, [fp, #-8]
    17cc:	e3530000 	cmp	r3, #0
    17d0:	0a00000e 	beq	1810 <hw_emi_SetMemoryClockGateAutoFlag+0x58>
    17d4:	e59f3054 	ldr	r3, [pc, #84]	; 1830 <hw_emi_SetMemoryClockGateAutoFlag+0x78>
    17d8:	e1d330b0 	ldrh	r3, [r3]
    17dc:	e1a03803 	lsl	r3, r3, #16
    17e0:	e1a03823 	lsr	r3, r3, #16
    17e4:	e3530000 	cmp	r3, #0
    17e8:	1a000002 	bne	17f8 <hw_emi_SetMemoryClockGateAutoFlag+0x40>
    17ec:	e59f303c 	ldr	r3, [pc, #60]	; 1830 <hw_emi_SetMemoryClockGateAutoFlag+0x78>
    17f0:	e3a02020 	mov	r2, #32
    17f4:	e1c320b0 	strh	r2, [r3]
    17f8:	e59f3034 	ldr	r3, [pc, #52]	; 1834 <hw_emi_SetMemoryClockGateAutoFlag+0x7c>
    17fc:	e59f2030 	ldr	r2, [pc, #48]	; 1834 <hw_emi_SetMemoryClockGateAutoFlag+0x7c>
    1800:	e5922000 	ldr	r2, [r2]
    1804:	e3822b02 	orr	r2, r2, #2048	; 0x800
    1808:	e5832000 	str	r2, [r3]
    180c:	ea000004 	b	1824 <hw_emi_SetMemoryClockGateAutoFlag+0x6c>
    1810:	e59f301c 	ldr	r3, [pc, #28]	; 1834 <hw_emi_SetMemoryClockGateAutoFlag+0x7c>
    1814:	e59f2018 	ldr	r2, [pc, #24]	; 1834 <hw_emi_SetMemoryClockGateAutoFlag+0x7c>
    1818:	e5922000 	ldr	r2, [r2]
    181c:	e3c22b02 	bic	r2, r2, #2048	; 0x800
    1820:	e5832000 	str	r2, [r3]
    1824:	e28bd000 	add	sp, fp, #0
    1828:	e49db004 	pop	{fp}		; (ldr fp, [sp], #4)
    182c:	e12fff1e 	bx	lr
    1830:	800e0078 	andhi	r0, lr, r8, ror r0
    1834:	800e0040 	andhi	r0, lr, r0, asr #32

00001838 <ddi_emi_ExitAutoMemorySelfRefreshMode>:
    1838:	e92d4800 	push	{fp, lr}
    183c:	e28db004 	add	fp, sp, #4
    1840:	e3a00000 	mov	r0, #0
    1844:	eb000768 	bl	35ec <hw_emi_EnterMemorySelfRefreshMode>
    1848:	e3a00000 	mov	r0, #0
    184c:	eb00077c 	bl	3644 <hw_emi_SetMemorySelfRefeshAutoFlag>
    1850:	e59f3008 	ldr	r3, [pc, #8]	; 1860 <ddi_emi_ExitAutoMemorySelfRefreshMode+0x28>
    1854:	e3a02000 	mov	r2, #0
    1858:	e5832044 	str	r2, [r3, #68]	; 0x44
    185c:	e8bd8800 	pop	{fp, pc}
    1860:	000060b4 	strheq	r6, [r0], -r4

00001864 <ddi_emi_StartHighCpuPriority>:
    1864:	e52db004 	push	{fp}		; (str fp, [sp, #-4]!)
    1868:	e28db000 	add	fp, sp, #0
    186c:	e59f207c 	ldr	r2, [pc, #124]	; 18f0 <ddi_emi_StartHighCpuPriority+0x8c>
    1870:	e5923000 	ldr	r3, [r2]
    1874:	e3c33817 	bic	r3, r3, #1507328	; 0x170000
    1878:	e3833702 	orr	r3, r3, #524288	; 0x80000
    187c:	e5823000 	str	r3, [r2]
    1880:	e59f2068 	ldr	r2, [pc, #104]	; 18f0 <ddi_emi_StartHighCpuPriority+0x8c>
    1884:	e5923000 	ldr	r3, [r2]
    1888:	e3c33501 	bic	r3, r3, #4194304	; 0x400000
    188c:	e3833502 	orr	r3, r3, #8388608	; 0x800000
    1890:	e5823000 	str	r3, [r2]
    1894:	e59f2058 	ldr	r2, [pc, #88]	; 18f4 <ddi_emi_StartHighCpuPriority+0x90>
    1898:	e5923000 	ldr	r3, [r2]
    189c:	e3c33c01 	bic	r3, r3, #256	; 0x100
    18a0:	e5823000 	str	r3, [r2]
    18a4:	e59f204c 	ldr	r2, [pc, #76]	; 18f8 <ddi_emi_StartHighCpuPriority+0x94>
    18a8:	e5923000 	ldr	r3, [r2]
    18ac:	e3c33001 	bic	r3, r3, #1
    18b0:	e5823000 	str	r3, [r2]
    18b4:	e59f203c 	ldr	r2, [pc, #60]	; 18f8 <ddi_emi_StartHighCpuPriority+0x94>
    18b8:	e5923000 	ldr	r3, [r2]
    18bc:	e3c33c01 	bic	r3, r3, #256	; 0x100
    18c0:	e5823000 	str	r3, [r2]
    18c4:	e59f2030 	ldr	r2, [pc, #48]	; 18fc <ddi_emi_StartHighCpuPriority+0x98>
    18c8:	e5923000 	ldr	r3, [r2]
    18cc:	e3833801 	orr	r3, r3, #65536	; 0x10000
    18d0:	e5823000 	str	r3, [r2]
    18d4:	e59f2024 	ldr	r2, [pc, #36]	; 1900 <ddi_emi_StartHighCpuPriority+0x9c>
    18d8:	e5923000 	ldr	r3, [r2]
    18dc:	e3833001 	orr	r3, r3, #1
    18e0:	e5823000 	str	r3, [r2]
    18e4:	e28bd000 	add	sp, fp, #0
    18e8:	e49db004 	pop	{fp}		; (ldr fp, [sp], #4)
    18ec:	e12fff1e 	bx	lr
    18f0:	80020000 	andhi	r0, r2, r0
    18f4:	800e0004 	andhi	r0, lr, r4
    18f8:	800e0008 	andhi	r0, lr, r8
    18fc:	800e0018 	andhi	r0, lr, r8, lsl r0
    1900:	800e001c 	andhi	r0, lr, ip, lsl r0

00001904 <ddi_clocks_KeepPllPowered>:
    1904:	e92d4800 	push	{fp, lr}
    1908:	e28db004 	add	fp, sp, #4
    190c:	e24dd008 	sub	sp, sp, #8
    1910:	e50b0008 	str	r0, [fp, #-8]
    1914:	e59f3020 	ldr	r3, [pc, #32]	; 193c <ddi_clocks_KeepPllPowered+0x38>
    1918:	e51b2008 	ldr	r2, [fp, #-8]
    191c:	e5832000 	str	r2, [r3]
    1920:	e51b3008 	ldr	r3, [fp, #-8]
    1924:	e3530000 	cmp	r3, #0
    1928:	0a000001 	beq	1934 <ddi_clocks_KeepPllPowered+0x30>
    192c:	e3a00001 	mov	r0, #1
    1930:	eb0003ed 	bl	28ec <hw_clkctrl_PowerPll>
    1934:	e24bd004 	sub	sp, fp, #4
    1938:	e8bd8800 	pop	{fp, pc}
    193c:	000060ac 	andeq	r6, r0, ip, lsr #1

00001940 <hw_digctl_MicrosecondWait>:
    1940:	e92d4800 	push	{fp, lr}
    1944:	e28db004 	add	fp, sp, #4
    1948:	e24dd010 	sub	sp, sp, #16
    194c:	e50b0010 	str	r0, [fp, #-16]
    1950:	e59f3028 	ldr	r3, [pc, #40]	; 1980 <hw_digctl_MicrosecondWait+0x40>
    1954:	e5933000 	ldr	r3, [r3]
    1958:	e50b3008 	str	r3, [fp, #-8]
    195c:	e1a00000 	nop			; (mov r0, r0)
    1960:	e51b0008 	ldr	r0, [fp, #-8]
    1964:	e51b1010 	ldr	r1, [fp, #-16]
    1968:	eb0006f0 	bl	3530 <hw_digctl_CheckTimeOut>
    196c:	e1a03000 	mov	r3, r0
    1970:	e3530000 	cmp	r3, #0
    1974:	0afffff9 	beq	1960 <hw_digctl_MicrosecondWait+0x20>
    1978:	e24bd004 	sub	sp, fp, #4
    197c:	e8bd8800 	pop	{fp, pc}
    1980:	8001c0c0 	andhi	ip, r1, r0, asr #1

00001984 <hw_power_Enable2p5>:
    1984:	e92d4800 	push	{fp, lr}
    1988:	e28db004 	add	fp, sp, #4
    198c:	e24dd008 	sub	sp, sp, #8
    1990:	e50b0008 	str	r0, [fp, #-8]
    1994:	e51b3008 	ldr	r3, [fp, #-8]
    1998:	e3530000 	cmp	r3, #0
    199c:	0a00001b 	beq	1a10 <hw_power_Enable2p5+0x8c>
    19a0:	e59f3084 	ldr	r3, [pc, #132]	; 1a2c <hw_power_Enable2p5+0xa8>
    19a4:	e59f2080 	ldr	r2, [pc, #128]	; 1a2c <hw_power_Enable2p5+0xa8>
    19a8:	e5922000 	ldr	r2, [r2]
    19ac:	e3c22b01 	bic	r2, r2, #1024	; 0x400
    19b0:	e5832000 	str	r2, [r3]
    19b4:	e59f2070 	ldr	r2, [pc, #112]	; 1a2c <hw_power_Enable2p5+0xa8>
    19b8:	e5923000 	ldr	r3, [r2]
    19bc:	e3c3300f 	bic	r3, r3, #15
    19c0:	e3833010 	orr	r3, r3, #16
    19c4:	e5823000 	str	r3, [r2]
    19c8:	e59f305c 	ldr	r3, [pc, #92]	; 1a2c <hw_power_Enable2p5+0xa8>
    19cc:	e59f2058 	ldr	r2, [pc, #88]	; 1a2c <hw_power_Enable2p5+0xa8>
    19d0:	e5922000 	ldr	r2, [r2]
    19d4:	e3822c02 	orr	r2, r2, #512	; 0x200
    19d8:	e5832000 	str	r2, [r3]
    19dc:	e59f3048 	ldr	r3, [pc, #72]	; 1a2c <hw_power_Enable2p5+0xa8>
    19e0:	e59f2044 	ldr	r2, [pc, #68]	; 1a2c <hw_power_Enable2p5+0xa8>
    19e4:	e5922000 	ldr	r2, [r2]
    19e8:	e3822c01 	orr	r2, r2, #256	; 0x100
    19ec:	e5832000 	str	r2, [r3]
    19f0:	e59f0038 	ldr	r0, [pc, #56]	; 1a30 <hw_power_Enable2p5+0xac>
    19f4:	ebffffd1 	bl	1940 <hw_digctl_MicrosecondWait>
    19f8:	e59f302c 	ldr	r3, [pc, #44]	; 1a2c <hw_power_Enable2p5+0xa8>
    19fc:	e59f2028 	ldr	r2, [pc, #40]	; 1a2c <hw_power_Enable2p5+0xa8>
    1a00:	e5922000 	ldr	r2, [r2]
    1a04:	e3c22c02 	bic	r2, r2, #512	; 0x200
    1a08:	e5832000 	str	r2, [r3]
    1a0c:	ea000004 	b	1a24 <hw_power_Enable2p5+0xa0>
    1a10:	e59f3014 	ldr	r3, [pc, #20]	; 1a2c <hw_power_Enable2p5+0xa8>
    1a14:	e59f2010 	ldr	r2, [pc, #16]	; 1a2c <hw_power_Enable2p5+0xa8>
    1a18:	e5922000 	ldr	r2, [r2]
    1a1c:	e3c22c01 	bic	r2, r2, #256	; 0x100
    1a20:	e5832000 	str	r2, [r3]
    1a24:	e24bd004 	sub	sp, fp, #4
    1a28:	e8bd8800 	pop	{fp, pc}
    1a2c:	80044070 	andhi	r4, r4, r0, ror r0
    1a30:	00002710 	andeq	r2, r0, r0, lsl r7

00001a34 <hw_power_Enable1p8>:
    1a34:	e92d4800 	push	{fp, lr}
    1a38:	e28db004 	add	fp, sp, #4
    1a3c:	e24dd008 	sub	sp, sp, #8
    1a40:	e50b0008 	str	r0, [fp, #-8]
    1a44:	e51b3008 	ldr	r3, [fp, #-8]
    1a48:	e3530000 	cmp	r3, #0
    1a4c:	0a00001b 	beq	1ac0 <hw_power_Enable1p8+0x8c>
    1a50:	e59f3084 	ldr	r3, [pc, #132]	; 1adc <hw_power_Enable1p8+0xa8>
    1a54:	e59f2080 	ldr	r2, [pc, #128]	; 1adc <hw_power_Enable1p8+0xa8>
    1a58:	e5922000 	ldr	r2, [r2]
    1a5c:	e3c22b01 	bic	r2, r2, #1024	; 0x400
    1a60:	e5832000 	str	r2, [r3]
    1a64:	e59f2070 	ldr	r2, [pc, #112]	; 1adc <hw_power_Enable1p8+0xa8>
    1a68:	e5923000 	ldr	r3, [r2]
    1a6c:	e3c3301d 	bic	r3, r3, #29
    1a70:	e3833002 	orr	r3, r3, #2
    1a74:	e5823000 	str	r3, [r2]
    1a78:	e59f305c 	ldr	r3, [pc, #92]	; 1adc <hw_power_Enable1p8+0xa8>
    1a7c:	e59f2058 	ldr	r2, [pc, #88]	; 1adc <hw_power_Enable1p8+0xa8>
    1a80:	e5922000 	ldr	r2, [r2]
    1a84:	e3822c02 	orr	r2, r2, #512	; 0x200
    1a88:	e5832000 	str	r2, [r3]
    1a8c:	e59f3048 	ldr	r3, [pc, #72]	; 1adc <hw_power_Enable1p8+0xa8>
    1a90:	e59f2044 	ldr	r2, [pc, #68]	; 1adc <hw_power_Enable1p8+0xa8>
    1a94:	e5922000 	ldr	r2, [r2]
    1a98:	e3822c01 	orr	r2, r2, #256	; 0x100
    1a9c:	e5832000 	str	r2, [r3]
    1aa0:	e59f0038 	ldr	r0, [pc, #56]	; 1ae0 <hw_power_Enable1p8+0xac>
    1aa4:	ebffffa5 	bl	1940 <hw_digctl_MicrosecondWait>
    1aa8:	e59f302c 	ldr	r3, [pc, #44]	; 1adc <hw_power_Enable1p8+0xa8>
    1aac:	e59f2028 	ldr	r2, [pc, #40]	; 1adc <hw_power_Enable1p8+0xa8>
    1ab0:	e5922000 	ldr	r2, [r2]
    1ab4:	e3c22c02 	bic	r2, r2, #512	; 0x200
    1ab8:	e5832000 	str	r2, [r3]
    1abc:	ea000004 	b	1ad4 <hw_power_Enable1p8+0xa0>
    1ac0:	e59f3014 	ldr	r3, [pc, #20]	; 1adc <hw_power_Enable1p8+0xa8>
    1ac4:	e59f2010 	ldr	r2, [pc, #16]	; 1adc <hw_power_Enable1p8+0xa8>
    1ac8:	e5922000 	ldr	r2, [r2]
    1acc:	e3c22c01 	bic	r2, r2, #256	; 0x100
    1ad0:	e5832000 	str	r2, [r3]
    1ad4:	e24bd004 	sub	sp, fp, #4
    1ad8:	e8bd8800 	pop	{fp, pc}
    1adc:	80044070 	andhi	r4, r4, r0, ror r0
    1ae0:	00002710 	andeq	r2, r0, r0, lsl r7

00001ae4 <start>:
    1ae4:	e92d4800 	push	{fp, lr}
    1ae8:	e28db004 	add	fp, sp, #4
    1aec:	e24dd010 	sub	sp, sp, #16
    1af0:	e3a03000 	mov	r3, #0
    1af4:	e50b3008 	str	r3, [fp, #-8]
    1af8:	e3a03004 	mov	r3, #4
    1afc:	e50b300c 	str	r3, [fp, #-12]
    1b00:	e3a03001 	mov	r3, #1
    1b04:	e50b3010 	str	r3, [fp, #-16]
    1b08:	e3a03040 	mov	r3, #64	; 0x40
    1b0c:	e50b3014 	str	r3, [fp, #-20]	; 0xffffffec
    1b10:	eb0006eb 	bl	36c4 <InitDebugSerial>
    1b14:	eb000754 	bl	386c <InitPower>
    1b18:	e51b000c 	ldr	r0, [fp, #-12]
    1b1c:	e51b1010 	ldr	r1, [fp, #-16]
    1b20:	e51b2014 	ldr	r2, [fp, #-20]	; 0xffffffec
    1b24:	eb000004 	bl	1b3c <ddi_emi_PreOsInit>
    1b28:	e50b0008 	str	r0, [fp, #-8]
    1b2c:	e51b3008 	ldr	r3, [fp, #-8]
    1b30:	e1a00003 	mov	r0, r3
    1b34:	e24bd004 	sub	sp, fp, #4
    1b38:	e8bd8800 	pop	{fp, pc}

00001b3c <ddi_emi_PreOsInit>:
    1b3c:	e92d4800 	push	{fp, lr}
    1b40:	e28db004 	add	fp, sp, #4
    1b44:	e24dd030 	sub	sp, sp, #48	; 0x30
    1b48:	e50b0020 	str	r0, [fp, #-32]	; 0xffffffe0
    1b4c:	e50b1024 	str	r1, [fp, #-36]	; 0xffffffdc
    1b50:	e50b2028 	str	r2, [fp, #-40]	; 0xffffffd8
    1b54:	e3a03000 	mov	r3, #0
    1b58:	e54b3006 	strb	r3, [fp, #-6]
    1b5c:	e59f359c 	ldr	r3, [pc, #1436]	; 2100 <ddi_emi_PreOsInit+0x5c4>
    1b60:	e51b2020 	ldr	r2, [fp, #-32]	; 0xffffffe0
    1b64:	e5832004 	str	r2, [r3, #4]
    1b68:	e59f3590 	ldr	r3, [pc, #1424]	; 2100 <ddi_emi_PreOsInit+0x5c4>
    1b6c:	e3a02000 	mov	r2, #0
    1b70:	e5832044 	str	r2, [r3, #68]	; 0x44
    1b74:	e59f3584 	ldr	r3, [pc, #1412]	; 2100 <ddi_emi_PreOsInit+0x5c4>
    1b78:	e3a02000 	mov	r2, #0
    1b7c:	e5832048 	str	r2, [r3, #72]	; 0x48
    1b80:	e59f3578 	ldr	r3, [pc, #1400]	; 2100 <ddi_emi_PreOsInit+0x5c4>
    1b84:	e3a02000 	mov	r2, #0
    1b88:	e583204c 	str	r2, [r3, #76]	; 0x4c
    1b8c:	e59f356c 	ldr	r3, [pc, #1388]	; 2100 <ddi_emi_PreOsInit+0x5c4>
    1b90:	e3a02000 	mov	r2, #0
    1b94:	e5832050 	str	r2, [r3, #80]	; 0x50
    1b98:	e59f3560 	ldr	r3, [pc, #1376]	; 2100 <ddi_emi_PreOsInit+0x5c4>
    1b9c:	e3a02000 	mov	r2, #0
    1ba0:	e5832054 	str	r2, [r3, #84]	; 0x54
    1ba4:	e51b3020 	ldr	r3, [fp, #-32]	; 0xffffffe0
    1ba8:	e3530004 	cmp	r3, #4
    1bac:	1a000004 	bne	1bc4 <ddi_emi_PreOsInit+0x88>
    1bb0:	e3a00001 	mov	r0, #1
    1bb4:	ebffff72 	bl	1984 <hw_power_Enable2p5>
    1bb8:	e3a00001 	mov	r0, #1
    1bbc:	ebffff50 	bl	1904 <ddi_clocks_KeepPllPowered>
    1bc0:	ea000006 	b	1be0 <ddi_emi_PreOsInit+0xa4>
    1bc4:	e51b3020 	ldr	r3, [fp, #-32]	; 0xffffffe0
    1bc8:	e3530002 	cmp	r3, #2
    1bcc:	1a000003 	bne	1be0 <ddi_emi_PreOsInit+0xa4>
    1bd0:	e3a00001 	mov	r0, #1
    1bd4:	ebffff96 	bl	1a34 <hw_power_Enable1p8>
    1bd8:	e3a00001 	mov	r0, #1
    1bdc:	ebffff48 	bl	1904 <ddi_clocks_KeepPllPowered>
    1be0:	e59f351c 	ldr	r3, [pc, #1308]	; 2104 <ddi_emi_PreOsInit+0x5c8>
    1be4:	e5933000 	ldr	r3, [r3]
    1be8:	e2033040 	and	r3, r3, #64	; 0x40
    1bec:	e3530000 	cmp	r3, #0
    1bf0:	0a000004 	beq	1c08 <ddi_emi_PreOsInit+0xcc>
    1bf4:	e59f350c 	ldr	r3, [pc, #1292]	; 2108 <ddi_emi_PreOsInit+0x5cc>
    1bf8:	e5933000 	ldr	r3, [r3]
    1bfc:	e2033102 	and	r3, r3, #-2147483648	; 0x80000000
    1c00:	e3530000 	cmp	r3, #0
    1c04:	0a000009 	beq	1c30 <ddi_emi_PreOsInit+0xf4>
    1c08:	e59f34f4 	ldr	r3, [pc, #1268]	; 2104 <ddi_emi_PreOsInit+0x5c8>
    1c0c:	e5933000 	ldr	r3, [r3]
    1c10:	e2033040 	and	r3, r3, #64	; 0x40
    1c14:	e3530000 	cmp	r3, #0
    1c18:	1a00000f 	bne	1c5c <ddi_emi_PreOsInit+0x120>
    1c1c:	e59f34e8 	ldr	r3, [pc, #1256]	; 210c <ddi_emi_PreOsInit+0x5d0>
    1c20:	e5933000 	ldr	r3, [r3]
    1c24:	e2033902 	and	r3, r3, #32768	; 0x8000
    1c28:	e3530000 	cmp	r3, #0
    1c2c:	1a00000a 	bne	1c5c <ddi_emi_PreOsInit+0x120>
    1c30:	e59f34d8 	ldr	r3, [pc, #1240]	; 2110 <ddi_emi_PreOsInit+0x5d4>
    1c34:	e5933000 	ldr	r3, [r3]
    1c38:	e2033801 	and	r3, r3, #65536	; 0x10000
    1c3c:	e3530000 	cmp	r3, #0
    1c40:	0a000005 	beq	1c5c <ddi_emi_PreOsInit+0x120>
    1c44:	ebffff06 	bl	1864 <ddi_emi_StartHighCpuPriority>
    1c48:	ebfffefa 	bl	1838 <ddi_emi_ExitAutoMemorySelfRefreshMode>
    1c4c:	ebfffeb8 	bl	1734 <ddi_emi_EnterAutoMemoryClockGateMode>
    1c50:	ebfffe66 	bl	15f0 <ddi_emi_InitClockSpeedDependentVars>
    1c54:	e3a03000 	mov	r3, #0
    1c58:	ea000125 	b	20f4 <ddi_emi_PreOsInit+0x5b8>
    1c5c:	e51b3024 	ldr	r3, [fp, #-36]	; 0xffffffdc
    1c60:	e3530000 	cmp	r3, #0
    1c64:	1a000001 	bne	1c70 <ddi_emi_PreOsInit+0x134>
    1c68:	e59f34a4 	ldr	r3, [pc, #1188]	; 2114 <ddi_emi_PreOsInit+0x5d8>
    1c6c:	ea000120 	b	20f4 <ddi_emi_PreOsInit+0x5b8>
    1c70:	e3a03000 	mov	r3, #0
    1c74:	e54b3005 	strb	r3, [fp, #-5]
    1c78:	ea00000d 	b	1cb4 <ddi_emi_PreOsInit+0x178>
    1c7c:	e55b3005 	ldrb	r3, [fp, #-5]
    1c80:	e3a02001 	mov	r2, #1
    1c84:	e1a03312 	lsl	r3, r2, r3
    1c88:	e1a02003 	mov	r2, r3
    1c8c:	e51b3024 	ldr	r3, [fp, #-36]	; 0xffffffdc
    1c90:	e0023003 	and	r3, r2, r3
    1c94:	e3530000 	cmp	r3, #0
    1c98:	0a000002 	beq	1ca8 <ddi_emi_PreOsInit+0x16c>
    1c9c:	e55b3006 	ldrb	r3, [fp, #-6]
    1ca0:	e2833001 	add	r3, r3, #1
    1ca4:	e54b3006 	strb	r3, [fp, #-6]
    1ca8:	e55b3005 	ldrb	r3, [fp, #-5]
    1cac:	e2833001 	add	r3, r3, #1
    1cb0:	e54b3005 	strb	r3, [fp, #-5]
    1cb4:	e55b3005 	ldrb	r3, [fp, #-5]
    1cb8:	e3530003 	cmp	r3, #3
    1cbc:	9affffee 	bls	1c7c <ddi_emi_PreOsInit+0x140>
    1cc0:	e55b3006 	ldrb	r3, [fp, #-6]
    1cc4:	e3530002 	cmp	r3, #2
    1cc8:	9a000001 	bls	1cd4 <ddi_emi_PreOsInit+0x198>
    1ccc:	e59f3444 	ldr	r3, [pc, #1092]	; 2118 <ddi_emi_PreOsInit+0x5dc>
    1cd0:	ea000107 	b	20f4 <ddi_emi_PreOsInit+0x5b8>
    1cd4:	e3a00040 	mov	r0, #64	; 0x40
    1cd8:	e3a01001 	mov	r1, #1
    1cdc:	ebfffdca 	bl	140c <hw_clkctrl_SetClkBypass>
    1ce0:	e3a00000 	mov	r0, #0
    1ce4:	ebfffdac 	bl	139c <hw_clkctrl_SetEmiRefXtalClkGate>
    1ce8:	e3a00001 	mov	r0, #1
    1cec:	ebfffd85 	bl	1308 <hw_clkctrl_SetEmiClkRefXtalDiv>
    1cf0:	ebfffd78 	bl	12d8 <hw_emi_ClearReset>
    1cf4:	ebfffd68 	bl	129c <hw_emi_IsDramSupported>
    1cf8:	e1a03000 	mov	r3, r0
    1cfc:	e3530000 	cmp	r3, #0
    1d00:	1a000001 	bne	1d0c <ddi_emi_PreOsInit+0x1d0>
    1d04:	e59f3410 	ldr	r3, [pc, #1040]	; 211c <ddi_emi_PreOsInit+0x5e0>
    1d08:	ea0000f9 	b	20f4 <ddi_emi_PreOsInit+0x5b8>
    1d0c:	e51b3020 	ldr	r3, [fp, #-32]	; 0xffffffe0
    1d10:	e3530000 	cmp	r3, #0
    1d14:	1a000009 	bne	1d40 <ddi_emi_PreOsInit+0x204>
    1d18:	e3a03002 	mov	r3, #2
    1d1c:	e58d3000 	str	r3, [sp]
    1d20:	e3a03002 	mov	r3, #2
    1d24:	e58d3004 	str	r3, [sp, #4]
    1d28:	e3a00001 	mov	r0, #1
    1d2c:	e3a01002 	mov	r1, #2
    1d30:	e3a02002 	mov	r2, #2
    1d34:	e3a03002 	mov	r3, #2
    1d38:	eb000107 	bl	215c <hw_emi_ConfigureEmiPins>
    1d3c:	ea000025 	b	1dd8 <ddi_emi_PreOsInit+0x29c>
    1d40:	e51b3020 	ldr	r3, [fp, #-32]	; 0xffffffe0
    1d44:	e3530001 	cmp	r3, #1
    1d48:	1a000009 	bne	1d74 <ddi_emi_PreOsInit+0x238>
    1d4c:	e3a03002 	mov	r3, #2
    1d50:	e58d3000 	str	r3, [sp]
    1d54:	e3a03002 	mov	r3, #2
    1d58:	e58d3004 	str	r3, [sp, #4]
    1d5c:	e3a00000 	mov	r0, #0
    1d60:	e3a01002 	mov	r1, #2
    1d64:	e3a02002 	mov	r2, #2
    1d68:	e3a03002 	mov	r3, #2
    1d6c:	eb0000fa 	bl	215c <hw_emi_ConfigureEmiPins>
    1d70:	ea000018 	b	1dd8 <ddi_emi_PreOsInit+0x29c>
    1d74:	e51b3020 	ldr	r3, [fp, #-32]	; 0xffffffe0
    1d78:	e3530002 	cmp	r3, #2
    1d7c:	1a000009 	bne	1da8 <ddi_emi_PreOsInit+0x26c>
    1d80:	e3a03002 	mov	r3, #2
    1d84:	e58d3000 	str	r3, [sp]
    1d88:	e3a03002 	mov	r3, #2
    1d8c:	e58d3004 	str	r3, [sp, #4]
    1d90:	e3a00000 	mov	r0, #0
    1d94:	e3a01002 	mov	r1, #2
    1d98:	e3a02002 	mov	r2, #2
    1d9c:	e3a03002 	mov	r3, #2
    1da0:	eb0000ed 	bl	215c <hw_emi_ConfigureEmiPins>
    1da4:	ea00000b 	b	1dd8 <ddi_emi_PreOsInit+0x29c>
    1da8:	e51b3020 	ldr	r3, [fp, #-32]	; 0xffffffe0
    1dac:	e3530004 	cmp	r3, #4
    1db0:	1a000008 	bne	1dd8 <ddi_emi_PreOsInit+0x29c>
    1db4:	e3a03002 	mov	r3, #2
    1db8:	e58d3000 	str	r3, [sp]
    1dbc:	e3a03002 	mov	r3, #2
    1dc0:	e58d3004 	str	r3, [sp, #4]
    1dc4:	e3a00000 	mov	r0, #0
    1dc8:	e3a01002 	mov	r1, #2
    1dcc:	e3a02002 	mov	r2, #2
    1dd0:	e3a03002 	mov	r3, #2
    1dd4:	eb0000e0 	bl	215c <hw_emi_ConfigureEmiPins>
    1dd8:	eb00027a 	bl	27c8 <hw_emi_DisableEmiPadKeepers>
    1ddc:	e3a00000 	mov	r0, #0
    1de0:	eb0000d4 	bl	2138 <hw_core_EnableIrqInterrupt>
    1de4:	e50b0010 	str	r0, [fp, #-16]
    1de8:	ebfffe92 	bl	1838 <ddi_emi_ExitAutoMemorySelfRefreshMode>
    1dec:	eb000283 	bl	2800 <ddi_emi_ExitAutoMemoryClockGateMode>
    1df0:	eb00028d 	bl	282c <ddi_emi_PrepareForDramSelfRefreshMode>
    1df4:	eb000290 	bl	283c <ddi_emi_EnterStaticSelfRefreshMode>
    1df8:	e50b0014 	str	r0, [fp, #-20]	; 0xffffffec
    1dfc:	e51b3014 	ldr	r3, [fp, #-20]	; 0xffffffec
    1e00:	e3530000 	cmp	r3, #0
    1e04:	0a000001 	beq	1e10 <ddi_emi_PreOsInit+0x2d4>
    1e08:	e51b3014 	ldr	r3, [fp, #-20]	; 0xffffffec
    1e0c:	ea0000b8 	b	20f4 <ddi_emi_PreOsInit+0x5b8>
    1e10:	e51b3020 	ldr	r3, [fp, #-32]	; 0xffffffe0
    1e14:	e3530004 	cmp	r3, #4
    1e18:	1a000011 	bne	1e64 <ddi_emi_PreOsInit+0x328>
    1e1c:	e3a00001 	mov	r0, #1
    1e20:	eb00029e 	bl	28a0 <hw_clkctrl_SetPfdRefEmiGate>
    1e24:	e3a00001 	mov	r0, #1
    1e28:	eb0002af 	bl	28ec <hw_clkctrl_PowerPll>
    1e2c:	e3a0000b 	mov	r0, #11
    1e30:	ebfffec2 	bl	1940 <hw_digctl_MicrosecondWait>
    1e34:	e3a00000 	mov	r0, #0
    1e38:	eb000298 	bl	28a0 <hw_clkctrl_SetPfdRefEmiGate>
    1e3c:	e3a00021 	mov	r0, #33	; 0x21
    1e40:	eb0002bc 	bl	2938 <hw_clkctrl_SetPfdRefEmiDiv>
    1e44:	e3a00002 	mov	r0, #2
    1e48:	eb0002d7 	bl	29ac <hw_clkctrl_SetEmiClkRefEmiDiv>
    1e4c:	e3a00040 	mov	r0, #64	; 0x40
    1e50:	e3a01000 	mov	r1, #0
    1e54:	ebfffd6c 	bl	140c <hw_clkctrl_SetClkBypass>
    1e58:	eb0002f8 	bl	2a40 <hw_dram_Init_ddr_mt46v32m16_6t_96MHz>
    1e5c:	eb0003b7 	bl	2d40 <hw_dram_Init_ddr_mt46v32m16_6t_133MHz_optimized>
    1e60:	ea000012 	b	1eb0 <ddi_emi_PreOsInit+0x374>
    1e64:	e51b3020 	ldr	r3, [fp, #-32]	; 0xffffffe0
    1e68:	e3530002 	cmp	r3, #2
    1e6c:	1a00000f 	bne	1eb0 <ddi_emi_PreOsInit+0x374>
    1e70:	e3a00001 	mov	r0, #1
    1e74:	eb000289 	bl	28a0 <hw_clkctrl_SetPfdRefEmiGate>
    1e78:	e3a00001 	mov	r0, #1
    1e7c:	eb00029a 	bl	28ec <hw_clkctrl_PowerPll>
    1e80:	e3a0000b 	mov	r0, #11
    1e84:	ebfffead 	bl	1940 <hw_digctl_MicrosecondWait>
    1e88:	e3a00000 	mov	r0, #0
    1e8c:	eb000283 	bl	28a0 <hw_clkctrl_SetPfdRefEmiGate>
    1e90:	e3a00021 	mov	r0, #33	; 0x21
    1e94:	eb0002a7 	bl	2938 <hw_clkctrl_SetPfdRefEmiDiv>
    1e98:	e3a00002 	mov	r0, #2
    1e9c:	eb0002c2 	bl	29ac <hw_clkctrl_SetEmiClkRefEmiDiv>
    1ea0:	e3a00040 	mov	r0, #64	; 0x40
    1ea4:	e3a01000 	mov	r1, #0
    1ea8:	ebfffd57 	bl	140c <hw_clkctrl_SetClkBypass>
    1eac:	eb0003f8 	bl	2e94 <hw_dram_Init_mobile_ddr_mt46h32m16lf_5_regs_3_133MHz>
    1eb0:	e59f2268 	ldr	r2, [pc, #616]	; 2120 <ddi_emi_PreOsInit+0x5e4>
    1eb4:	e51b3024 	ldr	r3, [fp, #-36]	; 0xffffffdc
    1eb8:	e20330ff 	and	r3, r3, #255	; 0xff
    1ebc:	e203300f 	and	r3, r3, #15
    1ec0:	e20310ff 	and	r1, r3, #255	; 0xff
    1ec4:	e5923000 	ldr	r3, [r2]
    1ec8:	e201100f 	and	r1, r1, #15
    1ecc:	e3c3300f 	bic	r3, r3, #15
    1ed0:	e1813003 	orr	r3, r1, r3
    1ed4:	e5823000 	str	r3, [r2]
    1ed8:	e55b3006 	ldrb	r3, [fp, #-6]
    1edc:	e3530001 	cmp	r3, #1
    1ee0:	1a000002 	bne	1ef0 <ddi_emi_PreOsInit+0x3b4>
    1ee4:	e51b3028 	ldr	r3, [fp, #-40]	; 0xffffffd8
    1ee8:	e50b300c 	str	r3, [fp, #-12]
    1eec:	ea000004 	b	1f04 <ddi_emi_PreOsInit+0x3c8>
    1ef0:	e55b3006 	ldrb	r3, [fp, #-6]
    1ef4:	e2433001 	sub	r3, r3, #1
    1ef8:	e51b2028 	ldr	r2, [fp, #-40]	; 0xffffffd8
    1efc:	e1a03332 	lsr	r3, r2, r3
    1f00:	e50b300c 	str	r3, [fp, #-12]
    1f04:	e51b300c 	ldr	r3, [fp, #-12]
    1f08:	e3530002 	cmp	r3, #2
    1f0c:	1a00000a 	bne	1f3c <ddi_emi_PreOsInit+0x400>
    1f10:	e59f220c 	ldr	r2, [pc, #524]	; 2124 <ddi_emi_PreOsInit+0x5e8>
    1f14:	e5923000 	ldr	r3, [r2]
    1f18:	e3c33c03 	bic	r3, r3, #768	; 0x300
    1f1c:	e3833b01 	orr	r3, r3, #1024	; 0x400
    1f20:	e5823000 	str	r3, [r2]
    1f24:	e59f21fc 	ldr	r2, [pc, #508]	; 2128 <ddi_emi_PreOsInit+0x5ec>
    1f28:	e5923000 	ldr	r3, [r2]
    1f2c:	e3c33805 	bic	r3, r3, #327680	; 0x50000
    1f30:	e3833802 	orr	r3, r3, #131072	; 0x20000
    1f34:	e5823000 	str	r3, [r2]
    1f38:	ea000045 	b	2054 <ddi_emi_PreOsInit+0x518>
    1f3c:	e51b300c 	ldr	r3, [fp, #-12]
    1f40:	e3530004 	cmp	r3, #4
    1f44:	1a00000a 	bne	1f74 <ddi_emi_PreOsInit+0x438>
    1f48:	e59f21d4 	ldr	r2, [pc, #468]	; 2124 <ddi_emi_PreOsInit+0x5e8>
    1f4c:	e5923000 	ldr	r3, [r2]
    1f50:	e3c33c03 	bic	r3, r3, #768	; 0x300
    1f54:	e3833b01 	orr	r3, r3, #1024	; 0x400
    1f58:	e5823000 	str	r3, [r2]
    1f5c:	e59f21c4 	ldr	r2, [pc, #452]	; 2128 <ddi_emi_PreOsInit+0x5ec>
    1f60:	e5923000 	ldr	r3, [r2]
    1f64:	e3c33806 	bic	r3, r3, #393216	; 0x60000
    1f68:	e3833801 	orr	r3, r3, #65536	; 0x10000
    1f6c:	e5823000 	str	r3, [r2]
    1f70:	ea000037 	b	2054 <ddi_emi_PreOsInit+0x518>
    1f74:	e51b300c 	ldr	r3, [fp, #-12]
    1f78:	e3530008 	cmp	r3, #8
    1f7c:	1a00000a 	bne	1fac <ddi_emi_PreOsInit+0x470>
    1f80:	e59f219c 	ldr	r2, [pc, #412]	; 2124 <ddi_emi_PreOsInit+0x5e8>
    1f84:	e5923000 	ldr	r3, [r2]
    1f88:	e3c33c03 	bic	r3, r3, #768	; 0x300
    1f8c:	e3833b01 	orr	r3, r3, #1024	; 0x400
    1f90:	e5823000 	str	r3, [r2]
    1f94:	e59f218c 	ldr	r2, [pc, #396]	; 2128 <ddi_emi_PreOsInit+0x5ec>
    1f98:	e5923000 	ldr	r3, [r2]
    1f9c:	e3c33806 	bic	r3, r3, #393216	; 0x60000
    1fa0:	e3833801 	orr	r3, r3, #65536	; 0x10000
    1fa4:	e5823000 	str	r3, [r2]
    1fa8:	ea000029 	b	2054 <ddi_emi_PreOsInit+0x518>
    1fac:	e51b300c 	ldr	r3, [fp, #-12]
    1fb0:	e3530010 	cmp	r3, #16
    1fb4:	1a00000a 	bne	1fe4 <ddi_emi_PreOsInit+0x4a8>
    1fb8:	e59f2164 	ldr	r2, [pc, #356]	; 2124 <ddi_emi_PreOsInit+0x5e8>
    1fbc:	e5923000 	ldr	r3, [r2]
    1fc0:	e3c33b01 	bic	r3, r3, #1024	; 0x400
    1fc4:	e3833c03 	orr	r3, r3, #768	; 0x300
    1fc8:	e5823000 	str	r3, [r2]
    1fcc:	e59f2154 	ldr	r2, [pc, #340]	; 2128 <ddi_emi_PreOsInit+0x5ec>
    1fd0:	e5923000 	ldr	r3, [r2]
    1fd4:	e3c33806 	bic	r3, r3, #393216	; 0x60000
    1fd8:	e3833801 	orr	r3, r3, #65536	; 0x10000
    1fdc:	e5823000 	str	r3, [r2]
    1fe0:	ea00001b 	b	2054 <ddi_emi_PreOsInit+0x518>
    1fe4:	e51b300c 	ldr	r3, [fp, #-12]
    1fe8:	e3530020 	cmp	r3, #32
    1fec:	1a000009 	bne	2018 <ddi_emi_PreOsInit+0x4dc>
    1ff0:	e59f212c 	ldr	r2, [pc, #300]	; 2124 <ddi_emi_PreOsInit+0x5e8>
    1ff4:	e5923000 	ldr	r3, [r2]
    1ff8:	e3c33b01 	bic	r3, r3, #1024	; 0x400
    1ffc:	e3833c03 	orr	r3, r3, #768	; 0x300
    2000:	e5823000 	str	r3, [r2]
    2004:	e59f211c 	ldr	r2, [pc, #284]	; 2128 <ddi_emi_PreOsInit+0x5ec>
    2008:	e5923000 	ldr	r3, [r2]
    200c:	e3c33807 	bic	r3, r3, #458752	; 0x70000
    2010:	e5823000 	str	r3, [r2]
    2014:	ea00000e 	b	2054 <ddi_emi_PreOsInit+0x518>
    2018:	e51b300c 	ldr	r3, [fp, #-12]
    201c:	e3530040 	cmp	r3, #64	; 0x40
    2020:	1a000009 	bne	204c <ddi_emi_PreOsInit+0x510>
    2024:	e59f20f8 	ldr	r2, [pc, #248]	; 2124 <ddi_emi_PreOsInit+0x5e8>
    2028:	e5923000 	ldr	r3, [r2]
    202c:	e3c33c05 	bic	r3, r3, #1280	; 0x500
    2030:	e3833c02 	orr	r3, r3, #512	; 0x200
    2034:	e5823000 	str	r3, [r2]
    2038:	e59f20e8 	ldr	r2, [pc, #232]	; 2128 <ddi_emi_PreOsInit+0x5ec>
    203c:	e5923000 	ldr	r3, [r2]
    2040:	e3c33807 	bic	r3, r3, #458752	; 0x70000
    2044:	e5823000 	str	r3, [r2]
    2048:	ea000001 	b	2054 <ddi_emi_PreOsInit+0x518>
    204c:	e59f30c8 	ldr	r3, [pc, #200]	; 211c <ddi_emi_PreOsInit+0x5e0>
    2050:	ea000027 	b	20f4 <ddi_emi_PreOsInit+0x5b8>
    2054:	e51b300c 	ldr	r3, [fp, #-12]
    2058:	e3530002 	cmp	r3, #2
    205c:	1a000007 	bne	2080 <ddi_emi_PreOsInit+0x544>
    2060:	e59f3098 	ldr	r3, [pc, #152]	; 2100 <ddi_emi_PreOsInit+0x5c4>
    2064:	e5933004 	ldr	r3, [r3, #4]
    2068:	e3530001 	cmp	r3, #1
    206c:	1a000003 	bne	2080 <ddi_emi_PreOsInit+0x544>
    2070:	e59f20b4 	ldr	r2, [pc, #180]	; 212c <ddi_emi_PreOsInit+0x5f0>
    2074:	e5923000 	ldr	r3, [r2]
    2078:	e3c33001 	bic	r3, r3, #1
    207c:	e5823000 	str	r3, [r2]
    2080:	e59f2088 	ldr	r2, [pc, #136]	; 2110 <ddi_emi_PreOsInit+0x5d4>
    2084:	e5923000 	ldr	r3, [r2]
    2088:	e3833801 	orr	r3, r3, #65536	; 0x10000
    208c:	e5823000 	str	r3, [r2]
    2090:	eb000504 	bl	34a8 <hw_digctl_GetCurrentTime>
    2094:	e50b0018 	str	r0, [fp, #-24]	; 0xffffffe8
    2098:	e1a00000 	nop			; (mov r0, r0)
    209c:	e59f3064 	ldr	r3, [pc, #100]	; 2108 <ddi_emi_PreOsInit+0x5cc>
    20a0:	e5932000 	ldr	r2, [r3]
    20a4:	e59f3084 	ldr	r3, [pc, #132]	; 2130 <ddi_emi_PreOsInit+0x5f4>
    20a8:	e0023003 	and	r3, r2, r3
    20ac:	e3530000 	cmp	r3, #0
    20b0:	1afffff9 	bne	209c <ddi_emi_PreOsInit+0x560>
    20b4:	e51b0018 	ldr	r0, [fp, #-24]	; 0xffffffe8
    20b8:	e59f1074 	ldr	r1, [pc, #116]	; 2134 <ddi_emi_PreOsInit+0x5f8>
    20bc:	eb00051b 	bl	3530 <hw_digctl_CheckTimeOut>
    20c0:	e1a03000 	mov	r3, r0
    20c4:	e3530000 	cmp	r3, #0
    20c8:	0a000001 	beq	20d4 <ddi_emi_PreOsInit+0x598>
    20cc:	e3a03000 	mov	r3, #0
    20d0:	ea000007 	b	20f4 <ddi_emi_PreOsInit+0x5b8>
    20d4:	eb0004fc 	bl	34cc <ddi_emi_ExitStaticSelfRefreshMode>
    20d8:	e50b0014 	str	r0, [fp, #-20]	; 0xffffffec
    20dc:	ebfffde0 	bl	1864 <ddi_emi_StartHighCpuPriority>
    20e0:	ebfffd93 	bl	1734 <ddi_emi_EnterAutoMemoryClockGateMode>
    20e4:	ebfffd41 	bl	15f0 <ddi_emi_InitClockSpeedDependentVars>
    20e8:	e51b0010 	ldr	r0, [fp, #-16]
    20ec:	eb000011 	bl	2138 <hw_core_EnableIrqInterrupt>
    20f0:	e51b3014 	ldr	r3, [fp, #-20]	; 0xffffffec
    20f4:	e1a00003 	mov	r0, r3
    20f8:	e24bd004 	sub	sp, fp, #4
    20fc:	e8bd8800 	pop	{fp, pc}
    2100:	000060b4 	strheq	r6, [r0], -r4
    2104:	80040110 	andhi	r0, r4, r0, lsl r1
    2108:	800400a0 	andhi	r0, r4, r0, lsr #1
    210c:	800400f0 	strdhi	r0, [r4], -r0	; <UNPREDICTABLE>
    2110:	800e0020 	andhi	r0, lr, r0, lsr #32
    2114:	f0224004 			; <UNDEFINED> instruction: 0xf0224004
    2118:	f0224005 			; <UNDEFINED> instruction: 0xf0224005
    211c:	f0224000 			; <UNDEFINED> instruction: 0xf0224000
    2120:	800e0038 	andhi	r0, lr, r8, lsr r0
    2124:	800e002c 	andhi	r0, lr, ip, lsr #32
    2128:	800e0028 	andhi	r0, lr, r8, lsr #32
    212c:	800e0014 	andhi	r0, lr, r4, lsl r0
    2130:	10020000 	andne	r0, r2, r0
    2134:	00002710 	andeq	r2, r0, r0, lsl r7

00002138 <hw_core_EnableIrqInterrupt>:
    2138:	e52db004 	push	{fp}		; (str fp, [sp, #-4]!)
    213c:	e28db000 	add	fp, sp, #0
    2140:	e24dd00c 	sub	sp, sp, #12
    2144:	e50b0008 	str	r0, [fp, #-8]
    2148:	e51b3008 	ldr	r3, [fp, #-8]
    214c:	e1a00003 	mov	r0, r3
    2150:	e28bd000 	add	sp, fp, #0
    2154:	e49db004 	pop	{fp}		; (ldr fp, [sp], #4)
    2158:	e12fff1e 	bx	lr

0000215c <hw_emi_ConfigureEmiPins>:
    215c:	e52db004 	push	{fp}		; (str fp, [sp, #-4]!)
    2160:	e28db000 	add	fp, sp, #0
    2164:	e24dd014 	sub	sp, sp, #20
    2168:	e50b0008 	str	r0, [fp, #-8]
    216c:	e50b100c 	str	r1, [fp, #-12]
    2170:	e50b2010 	str	r2, [fp, #-16]
    2174:	e50b3014 	str	r3, [fp, #-20]	; 0xffffffec
    2178:	e59f35ec 	ldr	r3, [pc, #1516]	; 276c <hw_emi_ConfigureEmiPins+0x610>
    217c:	e3a02103 	mov	r2, #-1073741824	; 0xc0000000
    2180:	e5832000 	str	r2, [r3]
    2184:	e59f35e4 	ldr	r3, [pc, #1508]	; 2770 <hw_emi_ConfigureEmiPins+0x614>
    2188:	e59f25e4 	ldr	r2, [pc, #1508]	; 2774 <hw_emi_ConfigureEmiPins+0x618>
    218c:	e5832000 	str	r2, [r3]
    2190:	e59f35e0 	ldr	r3, [pc, #1504]	; 2778 <hw_emi_ConfigureEmiPins+0x61c>
    2194:	e51b2008 	ldr	r2, [fp, #-8]
    2198:	e1a02302 	lsl	r2, r2, #6
    219c:	e2021040 	and	r1, r2, #64	; 0x40
    21a0:	e51b200c 	ldr	r2, [fp, #-12]
    21a4:	e1a02202 	lsl	r2, r2, #4
    21a8:	e2022030 	and	r2, r2, #48	; 0x30
    21ac:	e1811002 	orr	r1, r1, r2
    21b0:	e51b2008 	ldr	r2, [fp, #-8]
    21b4:	e1a02502 	lsl	r2, r2, #10
    21b8:	e2022b01 	and	r2, r2, #1024	; 0x400
    21bc:	e1811002 	orr	r1, r1, r2
    21c0:	e51b200c 	ldr	r2, [fp, #-12]
    21c4:	e1a02402 	lsl	r2, r2, #8
    21c8:	e2022c03 	and	r2, r2, #768	; 0x300
    21cc:	e1811002 	orr	r1, r1, r2
    21d0:	e51b2008 	ldr	r2, [fp, #-8]
    21d4:	e1a02702 	lsl	r2, r2, #14
    21d8:	e2022901 	and	r2, r2, #16384	; 0x4000
    21dc:	e1811002 	orr	r1, r1, r2
    21e0:	e51b200c 	ldr	r2, [fp, #-12]
    21e4:	e1a02602 	lsl	r2, r2, #12
    21e8:	e2022a03 	and	r2, r2, #12288	; 0x3000
    21ec:	e1811002 	orr	r1, r1, r2
    21f0:	e51b2008 	ldr	r2, [fp, #-8]
    21f4:	e1a02902 	lsl	r2, r2, #18
    21f8:	e2022701 	and	r2, r2, #262144	; 0x40000
    21fc:	e1811002 	orr	r1, r1, r2
    2200:	e51b200c 	ldr	r2, [fp, #-12]
    2204:	e1a02802 	lsl	r2, r2, #16
    2208:	e2022803 	and	r2, r2, #196608	; 0x30000
    220c:	e1811002 	orr	r1, r1, r2
    2210:	e51b2008 	ldr	r2, [fp, #-8]
    2214:	e1a02b02 	lsl	r2, r2, #22
    2218:	e2022501 	and	r2, r2, #4194304	; 0x400000
    221c:	e1811002 	orr	r1, r1, r2
    2220:	e51b200c 	ldr	r2, [fp, #-12]
    2224:	e1a02a02 	lsl	r2, r2, #20
    2228:	e2022603 	and	r2, r2, #3145728	; 0x300000
    222c:	e1811002 	orr	r1, r1, r2
    2230:	e51b2008 	ldr	r2, [fp, #-8]
    2234:	e1a02d02 	lsl	r2, r2, #26
    2238:	e2022301 	and	r2, r2, #67108864	; 0x4000000
    223c:	e1811002 	orr	r1, r1, r2
    2240:	e51b200c 	ldr	r2, [fp, #-12]
    2244:	e1a02c02 	lsl	r2, r2, #24
    2248:	e2022403 	and	r2, r2, #50331648	; 0x3000000
    224c:	e1811002 	orr	r1, r1, r2
    2250:	e51b2008 	ldr	r2, [fp, #-8]
    2254:	e1a02f02 	lsl	r2, r2, #30
    2258:	e2022101 	and	r2, r2, #1073741824	; 0x40000000
    225c:	e1811002 	orr	r1, r1, r2
    2260:	e51b200c 	ldr	r2, [fp, #-12]
    2264:	e1a02e02 	lsl	r2, r2, #28
    2268:	e2022203 	and	r2, r2, #805306368	; 0x30000000
    226c:	e1812002 	orr	r2, r1, r2
    2270:	e5832000 	str	r2, [r3]
    2274:	e59f3500 	ldr	r3, [pc, #1280]	; 277c <hw_emi_ConfigureEmiPins+0x620>
    2278:	e59f2500 	ldr	r2, [pc, #1280]	; 2780 <hw_emi_ConfigureEmiPins+0x624>
    227c:	e5832000 	str	r2, [r3]
    2280:	e59f34fc 	ldr	r3, [pc, #1276]	; 2784 <hw_emi_ConfigureEmiPins+0x628>
    2284:	e51b2008 	ldr	r2, [fp, #-8]
    2288:	e1a02102 	lsl	r2, r2, #2
    228c:	e2021004 	and	r1, r2, #4
    2290:	e51b200c 	ldr	r2, [fp, #-12]
    2294:	e2022003 	and	r2, r2, #3
    2298:	e1811002 	orr	r1, r1, r2
    229c:	e51b2008 	ldr	r2, [fp, #-8]
    22a0:	e1a02302 	lsl	r2, r2, #6
    22a4:	e2022040 	and	r2, r2, #64	; 0x40
    22a8:	e1811002 	orr	r1, r1, r2
    22ac:	e51b200c 	ldr	r2, [fp, #-12]
    22b0:	e1a02202 	lsl	r2, r2, #4
    22b4:	e2022030 	and	r2, r2, #48	; 0x30
    22b8:	e1811002 	orr	r1, r1, r2
    22bc:	e51b2008 	ldr	r2, [fp, #-8]
    22c0:	e1a02502 	lsl	r2, r2, #10
    22c4:	e2022b01 	and	r2, r2, #1024	; 0x400
    22c8:	e1811002 	orr	r1, r1, r2
    22cc:	e51b200c 	ldr	r2, [fp, #-12]
    22d0:	e1a02402 	lsl	r2, r2, #8
    22d4:	e2022c03 	and	r2, r2, #768	; 0x300
    22d8:	e1811002 	orr	r1, r1, r2
    22dc:	e51b2008 	ldr	r2, [fp, #-8]
    22e0:	e1a02702 	lsl	r2, r2, #14
    22e4:	e2022901 	and	r2, r2, #16384	; 0x4000
    22e8:	e1811002 	orr	r1, r1, r2
    22ec:	e51b200c 	ldr	r2, [fp, #-12]
    22f0:	e1a02602 	lsl	r2, r2, #12
    22f4:	e2022a03 	and	r2, r2, #12288	; 0x3000
    22f8:	e1811002 	orr	r1, r1, r2
    22fc:	e51b2008 	ldr	r2, [fp, #-8]
    2300:	e1a02902 	lsl	r2, r2, #18
    2304:	e2022701 	and	r2, r2, #262144	; 0x40000
    2308:	e1811002 	orr	r1, r1, r2
    230c:	e51b200c 	ldr	r2, [fp, #-12]
    2310:	e1a02802 	lsl	r2, r2, #16
    2314:	e2022803 	and	r2, r2, #196608	; 0x30000
    2318:	e1811002 	orr	r1, r1, r2
    231c:	e51b2008 	ldr	r2, [fp, #-8]
    2320:	e1a02b02 	lsl	r2, r2, #22
    2324:	e2022501 	and	r2, r2, #4194304	; 0x400000
    2328:	e1811002 	orr	r1, r1, r2
    232c:	e51b200c 	ldr	r2, [fp, #-12]
    2330:	e1a02a02 	lsl	r2, r2, #20
    2334:	e2022603 	and	r2, r2, #3145728	; 0x300000
    2338:	e1811002 	orr	r1, r1, r2
    233c:	e51b2008 	ldr	r2, [fp, #-8]
    2340:	e1a02d02 	lsl	r2, r2, #26
    2344:	e2022301 	and	r2, r2, #67108864	; 0x4000000
    2348:	e1811002 	orr	r1, r1, r2
    234c:	e51b200c 	ldr	r2, [fp, #-12]
    2350:	e1a02c02 	lsl	r2, r2, #24
    2354:	e2022403 	and	r2, r2, #50331648	; 0x3000000
    2358:	e1811002 	orr	r1, r1, r2
    235c:	e51b2008 	ldr	r2, [fp, #-8]
    2360:	e1a02f02 	lsl	r2, r2, #30
    2364:	e2022101 	and	r2, r2, #1073741824	; 0x40000000
    2368:	e1811002 	orr	r1, r1, r2
    236c:	e51b200c 	ldr	r2, [fp, #-12]
    2370:	e1a02e02 	lsl	r2, r2, #28
    2374:	e2022203 	and	r2, r2, #805306368	; 0x30000000
    2378:	e1812002 	orr	r2, r1, r2
    237c:	e5832000 	str	r2, [r3]
    2380:	e59f3400 	ldr	r3, [pc, #1024]	; 2788 <hw_emi_ConfigureEmiPins+0x62c>
    2384:	e59f2400 	ldr	r2, [pc, #1024]	; 278c <hw_emi_ConfigureEmiPins+0x630>
    2388:	e5832000 	str	r2, [r3]
    238c:	e59f33fc 	ldr	r3, [pc, #1020]	; 2790 <hw_emi_ConfigureEmiPins+0x634>
    2390:	e51b2008 	ldr	r2, [fp, #-8]
    2394:	e1a02102 	lsl	r2, r2, #2
    2398:	e2021004 	and	r1, r2, #4
    239c:	e59b2008 	ldr	r2, [fp, #8]
    23a0:	e2022003 	and	r2, r2, #3
    23a4:	e1811002 	orr	r1, r1, r2
    23a8:	e51b2008 	ldr	r2, [fp, #-8]
    23ac:	e1a02302 	lsl	r2, r2, #6
    23b0:	e2022040 	and	r2, r2, #64	; 0x40
    23b4:	e1811002 	orr	r1, r1, r2
    23b8:	e51b2014 	ldr	r2, [fp, #-20]	; 0xffffffec
    23bc:	e1a02202 	lsl	r2, r2, #4
    23c0:	e2022030 	and	r2, r2, #48	; 0x30
    23c4:	e1811002 	orr	r1, r1, r2
    23c8:	e51b2008 	ldr	r2, [fp, #-8]
    23cc:	e1a02502 	lsl	r2, r2, #10
    23d0:	e2022b01 	and	r2, r2, #1024	; 0x400
    23d4:	e1811002 	orr	r1, r1, r2
    23d8:	e51b2014 	ldr	r2, [fp, #-20]	; 0xffffffec
    23dc:	e1a02402 	lsl	r2, r2, #8
    23e0:	e2022c03 	and	r2, r2, #768	; 0x300
    23e4:	e1811002 	orr	r1, r1, r2
    23e8:	e51b2008 	ldr	r2, [fp, #-8]
    23ec:	e1a02b02 	lsl	r2, r2, #22
    23f0:	e2022501 	and	r2, r2, #4194304	; 0x400000
    23f4:	e1811002 	orr	r1, r1, r2
    23f8:	e59b2008 	ldr	r2, [fp, #8]
    23fc:	e1a02a02 	lsl	r2, r2, #20
    2400:	e2022603 	and	r2, r2, #3145728	; 0x300000
    2404:	e1811002 	orr	r1, r1, r2
    2408:	e51b2008 	ldr	r2, [fp, #-8]
    240c:	e1a02d02 	lsl	r2, r2, #26
    2410:	e2022301 	and	r2, r2, #67108864	; 0x4000000
    2414:	e1811002 	orr	r1, r1, r2
    2418:	e59b2008 	ldr	r2, [fp, #8]
    241c:	e1a02c02 	lsl	r2, r2, #24
    2420:	e2022403 	and	r2, r2, #50331648	; 0x3000000
    2424:	e1811002 	orr	r1, r1, r2
    2428:	e51b2008 	ldr	r2, [fp, #-8]
    242c:	e1a02f02 	lsl	r2, r2, #30
    2430:	e2022101 	and	r2, r2, #1073741824	; 0x40000000
    2434:	e1811002 	orr	r1, r1, r2
    2438:	e59b2008 	ldr	r2, [fp, #8]
    243c:	e1a02e02 	lsl	r2, r2, #28
    2440:	e2022203 	and	r2, r2, #805306368	; 0x30000000
    2444:	e1812002 	orr	r2, r1, r2
    2448:	e5832000 	str	r2, [r3]
    244c:	e59f3340 	ldr	r3, [pc, #832]	; 2794 <hw_emi_ConfigureEmiPins+0x638>
    2450:	e59f2340 	ldr	r2, [pc, #832]	; 2798 <hw_emi_ConfigureEmiPins+0x63c>
    2454:	e5832000 	str	r2, [r3]
    2458:	e59f333c 	ldr	r3, [pc, #828]	; 279c <hw_emi_ConfigureEmiPins+0x640>
    245c:	e3e0250f 	mvn	r2, #62914560	; 0x3c00000
    2460:	e5832000 	str	r2, [r3]
    2464:	e59f3334 	ldr	r3, [pc, #820]	; 27a0 <hw_emi_ConfigureEmiPins+0x644>
    2468:	e59f2310 	ldr	r2, [pc, #784]	; 2780 <hw_emi_ConfigureEmiPins+0x624>
    246c:	e5832000 	str	r2, [r3]
    2470:	e59f332c 	ldr	r3, [pc, #812]	; 27a4 <hw_emi_ConfigureEmiPins+0x648>
    2474:	e51b2008 	ldr	r2, [fp, #-8]
    2478:	e1a02102 	lsl	r2, r2, #2
    247c:	e2021004 	and	r1, r2, #4
    2480:	e51b2010 	ldr	r2, [fp, #-16]
    2484:	e2022003 	and	r2, r2, #3
    2488:	e1811002 	orr	r1, r1, r2
    248c:	e51b2008 	ldr	r2, [fp, #-8]
    2490:	e1a02302 	lsl	r2, r2, #6
    2494:	e2022040 	and	r2, r2, #64	; 0x40
    2498:	e1811002 	orr	r1, r1, r2
    249c:	e51b2010 	ldr	r2, [fp, #-16]
    24a0:	e1a02202 	lsl	r2, r2, #4
    24a4:	e2022030 	and	r2, r2, #48	; 0x30
    24a8:	e1811002 	orr	r1, r1, r2
    24ac:	e51b2008 	ldr	r2, [fp, #-8]
    24b0:	e1a02502 	lsl	r2, r2, #10
    24b4:	e2022b01 	and	r2, r2, #1024	; 0x400
    24b8:	e1811002 	orr	r1, r1, r2
    24bc:	e51b2010 	ldr	r2, [fp, #-16]
    24c0:	e1a02402 	lsl	r2, r2, #8
    24c4:	e2022c03 	and	r2, r2, #768	; 0x300
    24c8:	e1811002 	orr	r1, r1, r2
    24cc:	e51b2008 	ldr	r2, [fp, #-8]
    24d0:	e1a02702 	lsl	r2, r2, #14
    24d4:	e2022901 	and	r2, r2, #16384	; 0x4000
    24d8:	e1811002 	orr	r1, r1, r2
    24dc:	e51b2010 	ldr	r2, [fp, #-16]
    24e0:	e1a02602 	lsl	r2, r2, #12
    24e4:	e2022a03 	and	r2, r2, #12288	; 0x3000
    24e8:	e1811002 	orr	r1, r1, r2
    24ec:	e51b2008 	ldr	r2, [fp, #-8]
    24f0:	e1a02902 	lsl	r2, r2, #18
    24f4:	e2022701 	and	r2, r2, #262144	; 0x40000
    24f8:	e1811002 	orr	r1, r1, r2
    24fc:	e51b2010 	ldr	r2, [fp, #-16]
    2500:	e1a02802 	lsl	r2, r2, #16
    2504:	e2022803 	and	r2, r2, #196608	; 0x30000
    2508:	e1811002 	orr	r1, r1, r2
    250c:	e51b2008 	ldr	r2, [fp, #-8]
    2510:	e1a02b02 	lsl	r2, r2, #22
    2514:	e2022501 	and	r2, r2, #4194304	; 0x400000
    2518:	e1811002 	orr	r1, r1, r2
    251c:	e51b2010 	ldr	r2, [fp, #-16]
    2520:	e1a02a02 	lsl	r2, r2, #20
    2524:	e2022603 	and	r2, r2, #3145728	; 0x300000
    2528:	e1811002 	orr	r1, r1, r2
    252c:	e51b2008 	ldr	r2, [fp, #-8]
    2530:	e1a02d02 	lsl	r2, r2, #26
    2534:	e2022301 	and	r2, r2, #67108864	; 0x4000000
    2538:	e1811002 	orr	r1, r1, r2
    253c:	e51b2010 	ldr	r2, [fp, #-16]
    2540:	e1a02c02 	lsl	r2, r2, #24
    2544:	e2022403 	and	r2, r2, #50331648	; 0x3000000
    2548:	e1811002 	orr	r1, r1, r2
    254c:	e51b2008 	ldr	r2, [fp, #-8]
    2550:	e1a02f02 	lsl	r2, r2, #30
    2554:	e2022101 	and	r2, r2, #1073741824	; 0x40000000
    2558:	e1811002 	orr	r1, r1, r2
    255c:	e51b2010 	ldr	r2, [fp, #-16]
    2560:	e1a02e02 	lsl	r2, r2, #28
    2564:	e2022203 	and	r2, r2, #805306368	; 0x30000000
    2568:	e1812002 	orr	r2, r1, r2
    256c:	e5832000 	str	r2, [r3]
    2570:	e59f3230 	ldr	r3, [pc, #560]	; 27a8 <hw_emi_ConfigureEmiPins+0x64c>
    2574:	e59f2204 	ldr	r2, [pc, #516]	; 2780 <hw_emi_ConfigureEmiPins+0x624>
    2578:	e5832000 	str	r2, [r3]
    257c:	e59f3228 	ldr	r3, [pc, #552]	; 27ac <hw_emi_ConfigureEmiPins+0x650>
    2580:	e51b2008 	ldr	r2, [fp, #-8]
    2584:	e1a02102 	lsl	r2, r2, #2
    2588:	e2021004 	and	r1, r2, #4
    258c:	e51b2010 	ldr	r2, [fp, #-16]
    2590:	e2022003 	and	r2, r2, #3
    2594:	e1811002 	orr	r1, r1, r2
    2598:	e51b2008 	ldr	r2, [fp, #-8]
    259c:	e1a02302 	lsl	r2, r2, #6
    25a0:	e2022040 	and	r2, r2, #64	; 0x40
    25a4:	e1811002 	orr	r1, r1, r2
    25a8:	e51b2010 	ldr	r2, [fp, #-16]
    25ac:	e1a02202 	lsl	r2, r2, #4
    25b0:	e2022030 	and	r2, r2, #48	; 0x30
    25b4:	e1811002 	orr	r1, r1, r2
    25b8:	e51b2008 	ldr	r2, [fp, #-8]
    25bc:	e1a02502 	lsl	r2, r2, #10
    25c0:	e2022b01 	and	r2, r2, #1024	; 0x400
    25c4:	e1811002 	orr	r1, r1, r2
    25c8:	e51b2010 	ldr	r2, [fp, #-16]
    25cc:	e1a02402 	lsl	r2, r2, #8
    25d0:	e2022c03 	and	r2, r2, #768	; 0x300
    25d4:	e1811002 	orr	r1, r1, r2
    25d8:	e51b2008 	ldr	r2, [fp, #-8]
    25dc:	e1a02702 	lsl	r2, r2, #14
    25e0:	e2022901 	and	r2, r2, #16384	; 0x4000
    25e4:	e1811002 	orr	r1, r1, r2
    25e8:	e51b2010 	ldr	r2, [fp, #-16]
    25ec:	e1a02602 	lsl	r2, r2, #12
    25f0:	e2022a03 	and	r2, r2, #12288	; 0x3000
    25f4:	e1811002 	orr	r1, r1, r2
    25f8:	e51b2008 	ldr	r2, [fp, #-8]
    25fc:	e1a02902 	lsl	r2, r2, #18
    2600:	e2022701 	and	r2, r2, #262144	; 0x40000
    2604:	e1811002 	orr	r1, r1, r2
    2608:	e51b2010 	ldr	r2, [fp, #-16]
    260c:	e1a02802 	lsl	r2, r2, #16
    2610:	e2022803 	and	r2, r2, #196608	; 0x30000
    2614:	e1811002 	orr	r1, r1, r2
    2618:	e51b2008 	ldr	r2, [fp, #-8]
    261c:	e1a02b02 	lsl	r2, r2, #22
    2620:	e2022501 	and	r2, r2, #4194304	; 0x400000
    2624:	e1811002 	orr	r1, r1, r2
    2628:	e51b2010 	ldr	r2, [fp, #-16]
    262c:	e1a02a02 	lsl	r2, r2, #20
    2630:	e2022603 	and	r2, r2, #3145728	; 0x300000
    2634:	e1811002 	orr	r1, r1, r2
    2638:	e51b2008 	ldr	r2, [fp, #-8]
    263c:	e1a02d02 	lsl	r2, r2, #26
    2640:	e2022301 	and	r2, r2, #67108864	; 0x4000000
    2644:	e1811002 	orr	r1, r1, r2
    2648:	e51b2010 	ldr	r2, [fp, #-16]
    264c:	e1a02c02 	lsl	r2, r2, #24
    2650:	e2022403 	and	r2, r2, #50331648	; 0x3000000
    2654:	e1811002 	orr	r1, r1, r2
    2658:	e51b2008 	ldr	r2, [fp, #-8]
    265c:	e1a02f02 	lsl	r2, r2, #30
    2660:	e2022101 	and	r2, r2, #1073741824	; 0x40000000
    2664:	e1811002 	orr	r1, r1, r2
    2668:	e51b2010 	ldr	r2, [fp, #-16]
    266c:	e1a02e02 	lsl	r2, r2, #28
    2670:	e2022203 	and	r2, r2, #805306368	; 0x30000000
    2674:	e1812002 	orr	r2, r1, r2
    2678:	e5832000 	str	r2, [r3]
    267c:	e59f312c 	ldr	r3, [pc, #300]	; 27b0 <hw_emi_ConfigureEmiPins+0x654>
    2680:	e59f212c 	ldr	r2, [pc, #300]	; 27b4 <hw_emi_ConfigureEmiPins+0x658>
    2684:	e5832000 	str	r2, [r3]
    2688:	e59f3128 	ldr	r3, [pc, #296]	; 27b8 <hw_emi_ConfigureEmiPins+0x65c>
    268c:	e51b2008 	ldr	r2, [fp, #-8]
    2690:	e1a02102 	lsl	r2, r2, #2
    2694:	e2021004 	and	r1, r2, #4
    2698:	e59b2004 	ldr	r2, [fp, #4]
    269c:	e2022003 	and	r2, r2, #3
    26a0:	e1811002 	orr	r1, r1, r2
    26a4:	e51b2008 	ldr	r2, [fp, #-8]
    26a8:	e1a02302 	lsl	r2, r2, #6
    26ac:	e2022040 	and	r2, r2, #64	; 0x40
    26b0:	e1811002 	orr	r1, r1, r2
    26b4:	e59b2004 	ldr	r2, [fp, #4]
    26b8:	e1a02202 	lsl	r2, r2, #4
    26bc:	e2022030 	and	r2, r2, #48	; 0x30
    26c0:	e1811002 	orr	r1, r1, r2
    26c4:	e51b2008 	ldr	r2, [fp, #-8]
    26c8:	e1a02502 	lsl	r2, r2, #10
    26cc:	e2022b01 	and	r2, r2, #1024	; 0x400
    26d0:	e1811002 	orr	r1, r1, r2
    26d4:	e59b2008 	ldr	r2, [fp, #8]
    26d8:	e1a02402 	lsl	r2, r2, #8
    26dc:	e2022c03 	and	r2, r2, #768	; 0x300
    26e0:	e1811002 	orr	r1, r1, r2
    26e4:	e51b2008 	ldr	r2, [fp, #-8]
    26e8:	e1a02702 	lsl	r2, r2, #14
    26ec:	e2022901 	and	r2, r2, #16384	; 0x4000
    26f0:	e1811002 	orr	r1, r1, r2
    26f4:	e59b2008 	ldr	r2, [fp, #8]
    26f8:	e1a02602 	lsl	r2, r2, #12
    26fc:	e2022a03 	and	r2, r2, #12288	; 0x3000
    2700:	e1811002 	orr	r1, r1, r2
    2704:	e51b2008 	ldr	r2, [fp, #-8]
    2708:	e1a02902 	lsl	r2, r2, #18
    270c:	e2022701 	and	r2, r2, #262144	; 0x40000
    2710:	e1811002 	orr	r1, r1, r2
    2714:	e59b2008 	ldr	r2, [fp, #8]
    2718:	e1a02802 	lsl	r2, r2, #16
    271c:	e2022803 	and	r2, r2, #196608	; 0x30000
    2720:	e1811002 	orr	r1, r1, r2
    2724:	e51b2008 	ldr	r2, [fp, #-8]
    2728:	e1a02b02 	lsl	r2, r2, #22
    272c:	e2022501 	and	r2, r2, #4194304	; 0x400000
    2730:	e1811002 	orr	r1, r1, r2
    2734:	e59b2008 	ldr	r2, [fp, #8]
    2738:	e1a02a02 	lsl	r2, r2, #20
    273c:	e2022603 	and	r2, r2, #3145728	; 0x300000
    2740:	e1812002 	orr	r2, r1, r2
    2744:	e5832000 	str	r2, [r3]
    2748:	e59f306c 	ldr	r3, [pc, #108]	; 27bc <hw_emi_ConfigureEmiPins+0x660>
    274c:	e3e02000 	mvn	r2, #0
    2750:	e5832000 	str	r2, [r3]
    2754:	e59f3064 	ldr	r3, [pc, #100]	; 27c0 <hw_emi_ConfigureEmiPins+0x664>
    2758:	e59f2064 	ldr	r2, [pc, #100]	; 27c4 <hw_emi_ConfigureEmiPins+0x668>
    275c:	e5832000 	str	r2, [r3]
    2760:	e28bd000 	add	sp, fp, #0
    2764:	e49db004 	pop	{fp}		; (ldr fp, [sp], #4)
    2768:	e12fff1e 	bx	lr
    276c:	80018008 	andhi	r8, r1, r8
    2770:	80018298 	mulhi	r1, r8, r2
    2774:	77777770 			; <UNDEFINED> instruction: 0x77777770
    2778:	80018294 	mulhi	r1, r4, r2
    277c:	800182a8 	andhi	r8, r1, r8, lsr #5
    2780:	77777777 			; <UNDEFINED> instruction: 0x77777777
    2784:	800182a4 	andhi	r8, r1, r4, lsr #5
    2788:	800182b8 			; <UNDEFINED> instruction: 0x800182b8
    278c:	77700777 			; <UNDEFINED> instruction: 0x77700777
    2790:	800182b4 			; <UNDEFINED> instruction: 0x800182b4
    2794:	80018148 	andhi	r8, r1, r8, asr #2
    2798:	fffc0000 			; <UNDEFINED> instruction: 0xfffc0000
    279c:	80018158 	andhi	r8, r1, r8, asr r1
    27a0:	800182c8 	andhi	r8, r1, r8, asr #5
    27a4:	800182c4 	andhi	r8, r1, r4, asr #5
    27a8:	800182d8 	ldrdhi	r8, [r1], -r8	; <UNPREDICTABLE>
    27ac:	800182d4 	ldrdhi	r8, [r1], -r4
    27b0:	800182e8 	andhi	r8, r1, r8, ror #5
    27b4:	00777777 	rsbseq	r7, r7, r7, ror r7
    27b8:	800182e4 	andhi	r8, r1, r4, ror #5
    27bc:	80018168 	andhi	r8, r1, r8, ror #2
    27c0:	80018178 	andhi	r8, r1, r8, ror r1
    27c4:	00000fff 	strdeq	r0, [r0], -pc	; <UNPREDICTABLE>

000027c8 <hw_emi_DisableEmiPadKeepers>:
    27c8:	e52db004 	push	{fp}		; (str fp, [sp, #-4]!)
    27cc:	e28db000 	add	fp, sp, #0
    27d0:	e59f301c 	ldr	r3, [pc, #28]	; 27f4 <hw_emi_DisableEmiPadKeepers+0x2c>
    27d4:	e3a02103 	mov	r2, #-1073741824	; 0xc0000000
    27d8:	e5832000 	str	r2, [r3]
    27dc:	e59f3014 	ldr	r3, [pc, #20]	; 27f8 <hw_emi_DisableEmiPadKeepers+0x30>
    27e0:	e59f2014 	ldr	r2, [pc, #20]	; 27fc <hw_emi_DisableEmiPadKeepers+0x34>
    27e4:	e5832000 	str	r2, [r3]
    27e8:	e28bd000 	add	sp, fp, #0
    27ec:	e49db004 	pop	{fp}		; (ldr fp, [sp], #4)
    27f0:	e12fff1e 	bx	lr
    27f4:	80018008 	andhi	r8, r1, r8
    27f8:	80018434 	andhi	r8, r1, r4, lsr r4
    27fc:	0003ffff 	strdeq	pc, [r3], -pc	; <UNPREDICTABLE>

00002800 <ddi_emi_ExitAutoMemoryClockGateMode>:
    2800:	e92d4800 	push	{fp, lr}
    2804:	e28db004 	add	fp, sp, #4
    2808:	e3a00000 	mov	r0, #0
    280c:	ebfffbd3 	bl	1760 <hw_emi_EnterMemoryClockGateMode>
    2810:	e3a00000 	mov	r0, #0
    2814:	ebfffbe7 	bl	17b8 <hw_emi_SetMemoryClockGateAutoFlag>
    2818:	e59f3008 	ldr	r3, [pc, #8]	; 2828 <ddi_emi_ExitAutoMemoryClockGateMode+0x28>
    281c:	e3a02000 	mov	r2, #0
    2820:	e5832048 	str	r2, [r3, #72]	; 0x48
    2824:	e8bd8800 	pop	{fp, pc}
    2828:	000060b4 	strheq	r6, [r0], -r4

0000282c <ddi_emi_PrepareForDramSelfRefreshMode>:
    282c:	e92d4800 	push	{fp, lr}
    2830:	e28db004 	add	fp, sp, #4
    2834:	ebfffa93 	bl	1288 <hw_core_drain_write_buffer>
    2838:	e8bd8800 	pop	{fp, pc}

0000283c <ddi_emi_EnterStaticSelfRefreshMode>:
    283c:	e92d4800 	push	{fp, lr}
    2840:	e28db004 	add	fp, sp, #4
    2844:	e24dd008 	sub	sp, sp, #8
    2848:	e3a00001 	mov	r0, #1
    284c:	eb000366 	bl	35ec <hw_emi_EnterMemorySelfRefreshMode>
    2850:	eb000314 	bl	34a8 <hw_digctl_GetCurrentTime>
    2854:	e50b0008 	str	r0, [fp, #-8]
    2858:	ea000007 	b	287c <ddi_emi_EnterStaticSelfRefreshMode+0x40>
    285c:	e51b0008 	ldr	r0, [fp, #-8]
    2860:	e3a01ffa 	mov	r1, #1000	; 0x3e8
    2864:	eb000331 	bl	3530 <hw_digctl_CheckTimeOut>
    2868:	e1a03000 	mov	r3, r0
    286c:	e3530000 	cmp	r3, #0
    2870:	0a000001 	beq	287c <ddi_emi_EnterStaticSelfRefreshMode+0x40>
    2874:	e59f3020 	ldr	r3, [pc, #32]	; 289c <ddi_emi_EnterStaticSelfRefreshMode+0x60>
    2878:	ea000004 	b	2890 <ddi_emi_EnterStaticSelfRefreshMode+0x54>
    287c:	ebfffa75 	bl	1258 <hw_emi_IsControllerHalted>
    2880:	e1a03000 	mov	r3, r0
    2884:	e3530000 	cmp	r3, #0
    2888:	0afffff3 	beq	285c <ddi_emi_EnterStaticSelfRefreshMode+0x20>
    288c:	e3a03000 	mov	r3, #0
    2890:	e1a00003 	mov	r0, r3
    2894:	e24bd004 	sub	sp, fp, #4
    2898:	e8bd8800 	pop	{fp, pc}
    289c:	f0224001 			; <UNDEFINED> instruction: 0xf0224001

000028a0 <hw_clkctrl_SetPfdRefEmiGate>:
    28a0:	e52db004 	push	{fp}		; (str fp, [sp, #-4]!)
    28a4:	e28db000 	add	fp, sp, #0
    28a8:	e24dd00c 	sub	sp, sp, #12
    28ac:	e50b0008 	str	r0, [fp, #-8]
    28b0:	e51b3008 	ldr	r3, [fp, #-8]
    28b4:	e3530000 	cmp	r3, #0
    28b8:	0a000003 	beq	28cc <hw_clkctrl_SetPfdRefEmiGate+0x2c>
    28bc:	e59f3020 	ldr	r3, [pc, #32]	; 28e4 <hw_clkctrl_SetPfdRefEmiGate+0x44>
    28c0:	e3a02902 	mov	r2, #32768	; 0x8000
    28c4:	e5832000 	str	r2, [r3]
    28c8:	ea000002 	b	28d8 <hw_clkctrl_SetPfdRefEmiGate+0x38>
    28cc:	e59f3014 	ldr	r3, [pc, #20]	; 28e8 <hw_clkctrl_SetPfdRefEmiGate+0x48>
    28d0:	e3a02902 	mov	r2, #32768	; 0x8000
    28d4:	e5832000 	str	r2, [r3]
    28d8:	e28bd000 	add	sp, fp, #0
    28dc:	e49db004 	pop	{fp}		; (ldr fp, [sp], #4)
    28e0:	e12fff1e 	bx	lr
    28e4:	800400f4 	strdhi	r0, [r4], -r4
    28e8:	800400f8 	strdhi	r0, [r4], -r8

000028ec <hw_clkctrl_PowerPll>:
    28ec:	e52db004 	push	{fp}		; (str fp, [sp, #-4]!)
    28f0:	e28db000 	add	fp, sp, #0
    28f4:	e24dd00c 	sub	sp, sp, #12
    28f8:	e50b0008 	str	r0, [fp, #-8]
    28fc:	e51b3008 	ldr	r3, [fp, #-8]
    2900:	e3530000 	cmp	r3, #0
    2904:	0a000003 	beq	2918 <hw_clkctrl_PowerPll+0x2c>
    2908:	e59f3020 	ldr	r3, [pc, #32]	; 2930 <hw_clkctrl_PowerPll+0x44>
    290c:	e3a02801 	mov	r2, #65536	; 0x10000
    2910:	e5832000 	str	r2, [r3]
    2914:	ea000002 	b	2924 <hw_clkctrl_PowerPll+0x38>
    2918:	e59f3014 	ldr	r3, [pc, #20]	; 2934 <hw_clkctrl_PowerPll+0x48>
    291c:	e3a02801 	mov	r2, #65536	; 0x10000
    2920:	e5832000 	str	r2, [r3]
    2924:	e28bd000 	add	sp, fp, #0
    2928:	e49db004 	pop	{fp}		; (ldr fp, [sp], #4)
    292c:	e12fff1e 	bx	lr
    2930:	80040004 	andhi	r0, r4, r4
    2934:	80040008 	andhi	r0, r4, r8

00002938 <hw_clkctrl_SetPfdRefEmiDiv>:
    2938:	e52db004 	push	{fp}		; (str fp, [sp, #-4]!)
    293c:	e28db000 	add	fp, sp, #0
    2940:	e24dd00c 	sub	sp, sp, #12
    2944:	e50b0008 	str	r0, [fp, #-8]
    2948:	e59f3054 	ldr	r3, [pc, #84]	; 29a4 <hw_clkctrl_SetPfdRefEmiDiv+0x6c>
    294c:	e5933000 	ldr	r3, [r3]
    2950:	e2033902 	and	r3, r3, #32768	; 0x8000
    2954:	e3530000 	cmp	r3, #0
    2958:	0a000001 	beq	2964 <hw_clkctrl_SetPfdRefEmiDiv+0x2c>
    295c:	e59f3044 	ldr	r3, [pc, #68]	; 29a8 <hw_clkctrl_SetPfdRefEmiDiv+0x70>
    2960:	ea00000b 	b	2994 <hw_clkctrl_SetPfdRefEmiDiv+0x5c>
    2964:	e59f1038 	ldr	r1, [pc, #56]	; 29a4 <hw_clkctrl_SetPfdRefEmiDiv+0x6c>
    2968:	e51b3008 	ldr	r3, [fp, #-8]
    296c:	e20330ff 	and	r3, r3, #255	; 0xff
    2970:	e203303f 	and	r3, r3, #63	; 0x3f
    2974:	e20320ff 	and	r2, r3, #255	; 0xff
    2978:	e5913000 	ldr	r3, [r1]
    297c:	e202203f 	and	r2, r2, #63	; 0x3f
    2980:	e3c33c3f 	bic	r3, r3, #16128	; 0x3f00
    2984:	e1a02402 	lsl	r2, r2, #8
    2988:	e1823003 	orr	r3, r2, r3
    298c:	e5813000 	str	r3, [r1]
    2990:	e3a03000 	mov	r3, #0
    2994:	e1a00003 	mov	r0, r3
    2998:	e28bd000 	add	sp, fp, #0
    299c:	e49db004 	pop	{fp}		; (ldr fp, [sp], #4)
    29a0:	e12fff1e 	bx	lr
    29a4:	800400f0 	strdhi	r0, [r4], -r0	; <UNPREDICTABLE>
    29a8:	f011a006 			; <UNDEFINED> instruction: 0xf011a006

000029ac <hw_clkctrl_SetEmiClkRefEmiDiv>:
    29ac:	e52db004 	push	{fp}		; (str fp, [sp, #-4]!)
    29b0:	e28db000 	add	fp, sp, #0
    29b4:	e24dd00c 	sub	sp, sp, #12
    29b8:	e50b0008 	str	r0, [fp, #-8]
    29bc:	e59f306c 	ldr	r3, [pc, #108]	; 2a30 <hw_clkctrl_SetEmiClkRefEmiDiv+0x84>
    29c0:	e5933000 	ldr	r3, [r3]
    29c4:	e2033201 	and	r3, r3, #268435456	; 0x10000000
    29c8:	e3530000 	cmp	r3, #0
    29cc:	0a000001 	beq	29d8 <hw_clkctrl_SetEmiClkRefEmiDiv+0x2c>
    29d0:	e59f305c 	ldr	r3, [pc, #92]	; 2a34 <hw_clkctrl_SetEmiClkRefEmiDiv+0x88>
    29d4:	ea000011 	b	2a20 <hw_clkctrl_SetEmiClkRefEmiDiv+0x74>
    29d8:	e59f3058 	ldr	r3, [pc, #88]	; 2a38 <hw_clkctrl_SetEmiClkRefEmiDiv+0x8c>
    29dc:	e5933000 	ldr	r3, [r3]
    29e0:	e2033902 	and	r3, r3, #32768	; 0x8000
    29e4:	e3530000 	cmp	r3, #0
    29e8:	0a000001 	beq	29f4 <hw_clkctrl_SetEmiClkRefEmiDiv+0x48>
    29ec:	e59f3048 	ldr	r3, [pc, #72]	; 2a3c <hw_clkctrl_SetEmiClkRefEmiDiv+0x90>
    29f0:	ea00000a 	b	2a20 <hw_clkctrl_SetEmiClkRefEmiDiv+0x74>
    29f4:	e59f2034 	ldr	r2, [pc, #52]	; 2a30 <hw_clkctrl_SetEmiClkRefEmiDiv+0x84>
    29f8:	e51b3008 	ldr	r3, [fp, #-8]
    29fc:	e20330ff 	and	r3, r3, #255	; 0xff
    2a00:	e203303f 	and	r3, r3, #63	; 0x3f
    2a04:	e20310ff 	and	r1, r3, #255	; 0xff
    2a08:	e5923000 	ldr	r3, [r2]
    2a0c:	e201103f 	and	r1, r1, #63	; 0x3f
    2a10:	e3c3303f 	bic	r3, r3, #63	; 0x3f
    2a14:	e1813003 	orr	r3, r1, r3
    2a18:	e5823000 	str	r3, [r2]
    2a1c:	e3a03000 	mov	r3, #0
    2a20:	e1a00003 	mov	r0, r3
    2a24:	e28bd000 	add	sp, fp, #0
    2a28:	e49db004 	pop	{fp}		; (ldr fp, [sp], #4)
    2a2c:	e12fff1e 	bx	lr
    2a30:	800400a0 	andhi	r0, r4, r0, lsr #1
    2a34:	f011a004 			; <UNDEFINED> instruction: 0xf011a004
    2a38:	800400f0 	strdhi	r0, [r4], -r0	; <UNPREDICTABLE>
    2a3c:	f011a006 			; <UNDEFINED> instruction: 0xf011a006

00002a40 <hw_dram_Init_ddr_mt46v32m16_6t_96MHz>:
    2a40:	e52db004 	push	{fp}		; (str fp, [sp, #-4]!)
    2a44:	e28db000 	add	fp, sp, #0
    2a48:	e24dd00c 	sub	sp, sp, #12
    2a4c:	e59f3298 	ldr	r3, [pc, #664]	; 2cec <hw_dram_Init_ddr_mt46v32m16_6t_96MHz+0x2ac>
    2a50:	e50b3008 	str	r3, [fp, #-8]
    2a54:	e51b3008 	ldr	r3, [fp, #-8]
    2a58:	e59f2290 	ldr	r2, [pc, #656]	; 2cf0 <hw_dram_Init_ddr_mt46v32m16_6t_96MHz+0x2b0>
    2a5c:	e5832000 	str	r2, [r3]
    2a60:	e51b3008 	ldr	r3, [fp, #-8]
    2a64:	e2833004 	add	r3, r3, #4
    2a68:	e59f2284 	ldr	r2, [pc, #644]	; 2cf4 <hw_dram_Init_ddr_mt46v32m16_6t_96MHz+0x2b4>
    2a6c:	e5832000 	str	r2, [r3]
    2a70:	e51b3008 	ldr	r3, [fp, #-8]
    2a74:	e2833008 	add	r3, r3, #8
    2a78:	e59f2278 	ldr	r2, [pc, #632]	; 2cf8 <hw_dram_Init_ddr_mt46v32m16_6t_96MHz+0x2b8>
    2a7c:	e5832000 	str	r2, [r3]
    2a80:	e51b3008 	ldr	r3, [fp, #-8]
    2a84:	e283300c 	add	r3, r3, #12
    2a88:	e3a02001 	mov	r2, #1
    2a8c:	e5832000 	str	r2, [r3]
    2a90:	e51b3008 	ldr	r3, [fp, #-8]
    2a94:	e2833010 	add	r3, r3, #16
    2a98:	e59f225c 	ldr	r2, [pc, #604]	; 2cfc <hw_dram_Init_ddr_mt46v32m16_6t_96MHz+0x2bc>
    2a9c:	e5832000 	str	r2, [r3]
    2aa0:	e51b3008 	ldr	r3, [fp, #-8]
    2aa4:	e2833014 	add	r3, r3, #20
    2aa8:	e3a02000 	mov	r2, #0
    2aac:	e5832000 	str	r2, [r3]
    2ab0:	e51b3008 	ldr	r3, [fp, #-8]
    2ab4:	e2833018 	add	r3, r3, #24
    2ab8:	e3a02801 	mov	r2, #65536	; 0x10000
    2abc:	e5832000 	str	r2, [r3]
    2ac0:	e51b3008 	ldr	r3, [fp, #-8]
    2ac4:	e283301c 	add	r3, r3, #28
    2ac8:	e59f2230 	ldr	r2, [pc, #560]	; 2d00 <hw_dram_Init_ddr_mt46v32m16_6t_96MHz+0x2c0>
    2acc:	e5832000 	str	r2, [r3]
    2ad0:	e51b3008 	ldr	r3, [fp, #-8]
    2ad4:	e2833024 	add	r3, r3, #36	; 0x24
    2ad8:	e3a02001 	mov	r2, #1
    2adc:	e5832000 	str	r2, [r3]
    2ae0:	e51b3008 	ldr	r3, [fp, #-8]
    2ae4:	e2833028 	add	r3, r3, #40	; 0x28
    2ae8:	e59f2214 	ldr	r2, [pc, #532]	; 2d04 <hw_dram_Init_ddr_mt46v32m16_6t_96MHz+0x2c4>
    2aec:	e5832000 	str	r2, [r3]
    2af0:	e51b3008 	ldr	r3, [fp, #-8]
    2af4:	e283302c 	add	r3, r3, #44	; 0x2c
    2af8:	e59f2208 	ldr	r2, [pc, #520]	; 2d08 <hw_dram_Init_ddr_mt46v32m16_6t_96MHz+0x2c8>
    2afc:	e5832000 	str	r2, [r3]
    2b00:	e51b3008 	ldr	r3, [fp, #-8]
    2b04:	e2833030 	add	r3, r3, #48	; 0x30
    2b08:	e59f21fc 	ldr	r2, [pc, #508]	; 2d0c <hw_dram_Init_ddr_mt46v32m16_6t_96MHz+0x2cc>
    2b0c:	e5832000 	str	r2, [r3]
    2b10:	e51b3008 	ldr	r3, [fp, #-8]
    2b14:	e2833034 	add	r3, r3, #52	; 0x34
    2b18:	e59f21f0 	ldr	r2, [pc, #496]	; 2d10 <hw_dram_Init_ddr_mt46v32m16_6t_96MHz+0x2d0>
    2b1c:	e5832000 	str	r2, [r3]
    2b20:	e51b3008 	ldr	r3, [fp, #-8]
    2b24:	e2833038 	add	r3, r3, #56	; 0x38
    2b28:	e59f21e4 	ldr	r2, [pc, #484]	; 2d14 <hw_dram_Init_ddr_mt46v32m16_6t_96MHz+0x2d4>
    2b2c:	e5832000 	str	r2, [r3]
    2b30:	e51b3008 	ldr	r3, [fp, #-8]
    2b34:	e283303c 	add	r3, r3, #60	; 0x3c
    2b38:	e3a02781 	mov	r2, #33816576	; 0x2040000
    2b3c:	e5832000 	str	r2, [r3]
    2b40:	e51b3008 	ldr	r3, [fp, #-8]
    2b44:	e2833040 	add	r3, r3, #64	; 0x40
    2b48:	e3a02402 	mov	r2, #33554432	; 0x2000000
    2b4c:	e5832000 	str	r2, [r3]
    2b50:	e51b3008 	ldr	r3, [fp, #-8]
    2b54:	e2833044 	add	r3, r3, #68	; 0x44
    2b58:	e59f21b8 	ldr	r2, [pc, #440]	; 2d18 <hw_dram_Init_ddr_mt46v32m16_6t_96MHz+0x2d8>
    2b5c:	e5832000 	str	r2, [r3]
    2b60:	e51b3008 	ldr	r3, [fp, #-8]
    2b64:	e2833048 	add	r3, r3, #72	; 0x48
    2b68:	e59f21ac 	ldr	r2, [pc, #428]	; 2d1c <hw_dram_Init_ddr_mt46v32m16_6t_96MHz+0x2dc>
    2b6c:	e5832000 	str	r2, [r3]
    2b70:	e51b3008 	ldr	r3, [fp, #-8]
    2b74:	e283304c 	add	r3, r3, #76	; 0x4c
    2b78:	e59f21a0 	ldr	r2, [pc, #416]	; 2d20 <hw_dram_Init_ddr_mt46v32m16_6t_96MHz+0x2e0>
    2b7c:	e5832000 	str	r2, [r3]
    2b80:	e51b3008 	ldr	r3, [fp, #-8]
    2b84:	e2833050 	add	r3, r3, #80	; 0x50
    2b88:	e59f2194 	ldr	r2, [pc, #404]	; 2d24 <hw_dram_Init_ddr_mt46v32m16_6t_96MHz+0x2e4>
    2b8c:	e5832000 	str	r2, [r3]
    2b90:	e51b3008 	ldr	r3, [fp, #-8]
    2b94:	e2833054 	add	r3, r3, #84	; 0x54
    2b98:	e3a02007 	mov	r2, #7
    2b9c:	e5832000 	str	r2, [r3]
    2ba0:	e51b3008 	ldr	r3, [fp, #-8]
    2ba4:	e2833058 	add	r3, r3, #88	; 0x58
    2ba8:	e59f2178 	ldr	r2, [pc, #376]	; 2d28 <hw_dram_Init_ddr_mt46v32m16_6t_96MHz+0x2e8>
    2bac:	e5832000 	str	r2, [r3]
    2bb0:	e51b3008 	ldr	r3, [fp, #-8]
    2bb4:	e283305c 	add	r3, r3, #92	; 0x5c
    2bb8:	e59f216c 	ldr	r2, [pc, #364]	; 2d2c <hw_dram_Init_ddr_mt46v32m16_6t_96MHz+0x2ec>
    2bbc:	e5832000 	str	r2, [r3]
    2bc0:	e51b3008 	ldr	r3, [fp, #-8]
    2bc4:	e2833060 	add	r3, r3, #96	; 0x60
    2bc8:	e59f215c 	ldr	r2, [pc, #348]	; 2d2c <hw_dram_Init_ddr_mt46v32m16_6t_96MHz+0x2ec>
    2bcc:	e5832000 	str	r2, [r3]
    2bd0:	e51b3008 	ldr	r3, [fp, #-8]
    2bd4:	e2833064 	add	r3, r3, #100	; 0x64
    2bd8:	e59f214c 	ldr	r2, [pc, #332]	; 2d2c <hw_dram_Init_ddr_mt46v32m16_6t_96MHz+0x2ec>
    2bdc:	e5832000 	str	r2, [r3]
    2be0:	e51b3008 	ldr	r3, [fp, #-8]
    2be4:	e2833068 	add	r3, r3, #104	; 0x68
    2be8:	e59f2140 	ldr	r2, [pc, #320]	; 2d30 <hw_dram_Init_ddr_mt46v32m16_6t_96MHz+0x2f0>
    2bec:	e5832000 	str	r2, [r3]
    2bf0:	e51b3008 	ldr	r3, [fp, #-8]
    2bf4:	e283306c 	add	r3, r3, #108	; 0x6c
    2bf8:	e3a02000 	mov	r2, #0
    2bfc:	e5832000 	str	r2, [r3]
    2c00:	e51b3008 	ldr	r3, [fp, #-8]
    2c04:	e2833070 	add	r3, r3, #112	; 0x70
    2c08:	e3a02000 	mov	r2, #0
    2c0c:	e5832000 	str	r2, [r3]
    2c10:	e51b3008 	ldr	r3, [fp, #-8]
    2c14:	e2833074 	add	r3, r3, #116	; 0x74
    2c18:	e3a02000 	mov	r2, #0
    2c1c:	e5832000 	str	r2, [r3]
    2c20:	e51b3008 	ldr	r3, [fp, #-8]
    2c24:	e2833078 	add	r3, r3, #120	; 0x78
    2c28:	e3a02000 	mov	r2, #0
    2c2c:	e5832000 	str	r2, [r3]
    2c30:	e51b3008 	ldr	r3, [fp, #-8]
    2c34:	e283307c 	add	r3, r3, #124	; 0x7c
    2c38:	e3a02732 	mov	r2, #13107200	; 0xc80000
    2c3c:	e5832000 	str	r2, [r3]
    2c40:	e51b3008 	ldr	r3, [fp, #-8]
    2c44:	e2833080 	add	r3, r3, #128	; 0x80
    2c48:	e59f20e4 	ldr	r2, [pc, #228]	; 2d34 <hw_dram_Init_ddr_mt46v32m16_6t_96MHz+0x2f4>
    2c4c:	e5832000 	str	r2, [r3]
    2c50:	e51b3008 	ldr	r3, [fp, #-8]
    2c54:	e2833084 	add	r3, r3, #132	; 0x84
    2c58:	e3a020c8 	mov	r2, #200	; 0xc8
    2c5c:	e5832000 	str	r2, [r3]
    2c60:	e51b3008 	ldr	r3, [fp, #-8]
    2c64:	e2833088 	add	r3, r3, #136	; 0x88
    2c68:	e59f20c8 	ldr	r2, [pc, #200]	; 2d38 <hw_dram_Init_ddr_mt46v32m16_6t_96MHz+0x2f8>
    2c6c:	e5832000 	str	r2, [r3]
    2c70:	e51b3008 	ldr	r3, [fp, #-8]
    2c74:	e283308c 	add	r3, r3, #140	; 0x8c
    2c78:	e3a02000 	mov	r2, #0
    2c7c:	e5832000 	str	r2, [r3]
    2c80:	e51b3008 	ldr	r3, [fp, #-8]
    2c84:	e2833090 	add	r3, r3, #144	; 0x90
    2c88:	e59f206c 	ldr	r2, [pc, #108]	; 2cfc <hw_dram_Init_ddr_mt46v32m16_6t_96MHz+0x2bc>
    2c8c:	e5832000 	str	r2, [r3]
    2c90:	e51b3008 	ldr	r3, [fp, #-8]
    2c94:	e2833094 	add	r3, r3, #148	; 0x94
    2c98:	e59f209c 	ldr	r2, [pc, #156]	; 2d3c <hw_dram_Init_ddr_mt46v32m16_6t_96MHz+0x2fc>
    2c9c:	e5832000 	str	r2, [r3]
    2ca0:	e51b3008 	ldr	r3, [fp, #-8]
    2ca4:	e2833098 	add	r3, r3, #152	; 0x98
    2ca8:	e3a02000 	mov	r2, #0
    2cac:	e5832000 	str	r2, [r3]
    2cb0:	e51b3008 	ldr	r3, [fp, #-8]
    2cb4:	e283309c 	add	r3, r3, #156	; 0x9c
    2cb8:	e3a02000 	mov	r2, #0
    2cbc:	e5832000 	str	r2, [r3]
    2cc0:	e51b3008 	ldr	r3, [fp, #-8]
    2cc4:	e28330a0 	add	r3, r3, #160	; 0xa0
    2cc8:	e3a02801 	mov	r2, #65536	; 0x10000
    2ccc:	e5832000 	str	r2, [r3]
    2cd0:	e51b3008 	ldr	r3, [fp, #-8]
    2cd4:	e2833020 	add	r3, r3, #32
    2cd8:	e3a02401 	mov	r2, #16777216	; 0x1000000
    2cdc:	e5832000 	str	r2, [r3]
    2ce0:	e28bd000 	add	sp, fp, #0
    2ce4:	e49db004 	pop	{fp}		; (ldr fp, [sp], #4)
    2ce8:	e12fff1e 	bx	lr
    2cec:	800e0000 	andhi	r0, lr, r0
    2cf0:	01010001 	tsteq	r1, r1
    2cf4:	00010100 	andeq	r0, r1, r0, lsl #2
    2cf8:	01000101 	tsteq	r0, r1, lsl #2
    2cfc:	00000101 	andeq	r0, r0, r1, lsl #2
    2d00:	01000001 	tsteq	r0, r1
    2d04:	07000200 	streq	r0, [r0, -r0, lsl #4]
    2d08:	00070202 	andeq	r0, r7, r2, lsl #4
    2d0c:	02020000 	andeq	r0, r2, #0
    2d10:	04040a01 	streq	r0, [r4], #-2561	; 0xfffff5ff
    2d14:	00000203 	andeq	r0, r0, r3, lsl #4
    2d18:	25001506 	strcs	r1, [r0, #-1286]	; 0xfffffafa
    2d1c:	1f1f0000 	svcne	0x001f0000
    2d20:	027f1a1a 	rsbseq	r1, pc, #106496	; 0x1a000
    2d24:	02051c22 	andeq	r1, r5, #8704	; 0x2200
    2d28:	00080008 	andeq	r0, r8, r8
    2d2c:	00200020 	eoreq	r0, r0, r0, lsr #32
    2d30:	000002e6 	andeq	r0, r0, r6, ror #5
    2d34:	00081a3b 	andeq	r1, r8, fp, lsr sl
    2d38:	00004b0d 	andeq	r4, r0, sp, lsl #22
    2d3c:	00040001 	andeq	r0, r4, r1

00002d40 <hw_dram_Init_ddr_mt46v32m16_6t_133MHz_optimized>:
    2d40:	e52db004 	push	{fp}		; (str fp, [sp, #-4]!)
    2d44:	e28db000 	add	fp, sp, #0
    2d48:	e24dd00c 	sub	sp, sp, #12
    2d4c:	e59f310c 	ldr	r3, [pc, #268]	; 2e60 <hw_dram_Init_ddr_mt46v32m16_6t_133MHz_optimized+0x120>
    2d50:	e50b3008 	str	r3, [fp, #-8]
    2d54:	e51b3008 	ldr	r3, [fp, #-8]
    2d58:	e2833010 	add	r3, r3, #16
    2d5c:	e59f2100 	ldr	r2, [pc, #256]	; 2e64 <hw_dram_Init_ddr_mt46v32m16_6t_133MHz_optimized+0x124>
    2d60:	e5832000 	str	r2, [r3]
    2d64:	e51b3008 	ldr	r3, [fp, #-8]
    2d68:	e283301c 	add	r3, r3, #28
    2d6c:	e59f20f4 	ldr	r2, [pc, #244]	; 2e68 <hw_dram_Init_ddr_mt46v32m16_6t_133MHz_optimized+0x128>
    2d70:	e5832000 	str	r2, [r3]
    2d74:	e51b3008 	ldr	r3, [fp, #-8]
    2d78:	e283302c 	add	r3, r3, #44	; 0x2c
    2d7c:	e59f20e8 	ldr	r2, [pc, #232]	; 2e6c <hw_dram_Init_ddr_mt46v32m16_6t_133MHz_optimized+0x12c>
    2d80:	e5832000 	str	r2, [r3]
    2d84:	e51b3008 	ldr	r3, [fp, #-8]
    2d88:	e2833030 	add	r3, r3, #48	; 0x30
    2d8c:	e59f20dc 	ldr	r2, [pc, #220]	; 2e70 <hw_dram_Init_ddr_mt46v32m16_6t_133MHz_optimized+0x130>
    2d90:	e5832000 	str	r2, [r3]
    2d94:	e51b3008 	ldr	r3, [fp, #-8]
    2d98:	e2833034 	add	r3, r3, #52	; 0x34
    2d9c:	e59f20d0 	ldr	r2, [pc, #208]	; 2e74 <hw_dram_Init_ddr_mt46v32m16_6t_133MHz_optimized+0x134>
    2da0:	e5832000 	str	r2, [r3]
    2da4:	e51b3008 	ldr	r3, [fp, #-8]
    2da8:	e283303c 	add	r3, r3, #60	; 0x3c
    2dac:	e3a02781 	mov	r2, #33816576	; 0x2040000
    2db0:	e5832000 	str	r2, [r3]
    2db4:	e51b3008 	ldr	r3, [fp, #-8]
    2db8:	e2833044 	add	r3, r3, #68	; 0x44
    2dbc:	e59f20b4 	ldr	r2, [pc, #180]	; 2e78 <hw_dram_Init_ddr_mt46v32m16_6t_133MHz_optimized+0x138>
    2dc0:	e5832000 	str	r2, [r3]
    2dc4:	e51b3008 	ldr	r3, [fp, #-8]
    2dc8:	e2833048 	add	r3, r3, #72	; 0x48
    2dcc:	e59f20a8 	ldr	r2, [pc, #168]	; 2e7c <hw_dram_Init_ddr_mt46v32m16_6t_133MHz_optimized+0x13c>
    2dd0:	e5832000 	str	r2, [r3]
    2dd4:	e51b3008 	ldr	r3, [fp, #-8]
    2dd8:	e283304c 	add	r3, r3, #76	; 0x4c
    2ddc:	e59f209c 	ldr	r2, [pc, #156]	; 2e80 <hw_dram_Init_ddr_mt46v32m16_6t_133MHz_optimized+0x140>
    2de0:	e5832000 	str	r2, [r3]
    2de4:	e51b3008 	ldr	r3, [fp, #-8]
    2de8:	e2833050 	add	r3, r3, #80	; 0x50
    2dec:	e59f2090 	ldr	r2, [pc, #144]	; 2e84 <hw_dram_Init_ddr_mt46v32m16_6t_133MHz_optimized+0x144>
    2df0:	e5832000 	str	r2, [r3]
    2df4:	e51b3008 	ldr	r3, [fp, #-8]
    2df8:	e2833054 	add	r3, r3, #84	; 0x54
    2dfc:	e3a0200a 	mov	r2, #10
    2e00:	e5832000 	str	r2, [r3]
    2e04:	e51b3008 	ldr	r3, [fp, #-8]
    2e08:	e2833068 	add	r3, r3, #104	; 0x68
    2e0c:	e59f2074 	ldr	r2, [pc, #116]	; 2e88 <hw_dram_Init_ddr_mt46v32m16_6t_133MHz_optimized+0x148>
    2e10:	e5832000 	str	r2, [r3]
    2e14:	e51b3008 	ldr	r3, [fp, #-8]
    2e18:	e2833080 	add	r3, r3, #128	; 0x80
    2e1c:	e59f2068 	ldr	r2, [pc, #104]	; 2e8c <hw_dram_Init_ddr_mt46v32m16_6t_133MHz_optimized+0x14c>
    2e20:	e5832000 	str	r2, [r3]
    2e24:	e51b3008 	ldr	r3, [fp, #-8]
    2e28:	e2833084 	add	r3, r3, #132	; 0x84
    2e2c:	e3a020c8 	mov	r2, #200	; 0xc8
    2e30:	e5832000 	str	r2, [r3]
    2e34:	e51b3008 	ldr	r3, [fp, #-8]
    2e38:	e2833088 	add	r3, r3, #136	; 0x88
    2e3c:	e59f204c 	ldr	r2, [pc, #76]	; 2e90 <hw_dram_Init_ddr_mt46v32m16_6t_133MHz_optimized+0x150>
    2e40:	e5832000 	str	r2, [r3]
    2e44:	e51b3008 	ldr	r3, [fp, #-8]
    2e48:	e28330a0 	add	r3, r3, #160	; 0xa0
    2e4c:	e3a02801 	mov	r2, #65536	; 0x10000
    2e50:	e5832000 	str	r2, [r3]
    2e54:	e28bd000 	add	sp, fp, #0
    2e58:	e49db004 	pop	{fp}		; (ldr fp, [sp], #4)
    2e5c:	e12fff1e 	bx	lr
    2e60:	800e0000 	andhi	r0, lr, r0
    2e64:	00000101 	andeq	r0, r0, r1, lsl #2
    2e68:	01000001 	tsteq	r0, r1
    2e6c:	00070204 	andeq	r0, r7, r4, lsl #4
    2e70:	02020000 	andeq	r0, r2, #0
    2e74:	04040a01 	streq	r0, [r4], #-2561	; 0xfffff5ff
    2e78:	19000f08 	stmdbne	r0, {r3, r8, r9, sl, fp}
    2e7c:	0d0d0000 	stceq	0, cr0, [sp, #-0]
    2e80:	02021313 	andeq	r1, r2, #1275068416	; 0x4c000000
    2e84:	02061521 	andeq	r1, r6, #138412032	; 0x8400000
    2e88:	000003f7 	strdeq	r0, [r0], -r7
    2e8c:	000a23cd 	andeq	r2, sl, sp, asr #7
    2e90:	00006665 	andeq	r6, r0, r5, ror #12

00002e94 <hw_dram_Init_mobile_ddr_mt46h32m16lf_5_regs_3_133MHz>:
    2e94:	e52db004 	push	{fp}		; (str fp, [sp, #-4]!)
    2e98:	e28db000 	add	fp, sp, #0
    2e9c:	e24dd00c 	sub	sp, sp, #12
    2ea0:	e59f3298 	ldr	r3, [pc, #664]	; 3140 <hw_dram_Init_mobile_ddr_mt46h32m16lf_5_regs_3_133MHz+0x2ac>
    2ea4:	e50b3008 	str	r3, [fp, #-8]
    2ea8:	e51b3008 	ldr	r3, [fp, #-8]
    2eac:	e59f2290 	ldr	r2, [pc, #656]	; 3144 <hw_dram_Init_mobile_ddr_mt46h32m16lf_5_regs_3_133MHz+0x2b0>
    2eb0:	e5832000 	str	r2, [r3]
    2eb4:	e51b3008 	ldr	r3, [fp, #-8]
    2eb8:	e2833004 	add	r3, r3, #4
    2ebc:	e59f2284 	ldr	r2, [pc, #644]	; 3148 <hw_dram_Init_mobile_ddr_mt46h32m16lf_5_regs_3_133MHz+0x2b4>
    2ec0:	e5832000 	str	r2, [r3]
    2ec4:	e51b3008 	ldr	r3, [fp, #-8]
    2ec8:	e2833008 	add	r3, r3, #8
    2ecc:	e59f2278 	ldr	r2, [pc, #632]	; 314c <hw_dram_Init_mobile_ddr_mt46h32m16lf_5_regs_3_133MHz+0x2b8>
    2ed0:	e5832000 	str	r2, [r3]
    2ed4:	e51b3008 	ldr	r3, [fp, #-8]
    2ed8:	e283300c 	add	r3, r3, #12
    2edc:	e3a02001 	mov	r2, #1
    2ee0:	e5832000 	str	r2, [r3]
    2ee4:	e51b3008 	ldr	r3, [fp, #-8]
    2ee8:	e2833010 	add	r3, r3, #16
    2eec:	e59f225c 	ldr	r2, [pc, #604]	; 3150 <hw_dram_Init_mobile_ddr_mt46h32m16lf_5_regs_3_133MHz+0x2bc>
    2ef0:	e5832000 	str	r2, [r3]
    2ef4:	e51b3008 	ldr	r3, [fp, #-8]
    2ef8:	e2833014 	add	r3, r3, #20
    2efc:	e3a02001 	mov	r2, #1
    2f00:	e5832000 	str	r2, [r3]
    2f04:	e51b3008 	ldr	r3, [fp, #-8]
    2f08:	e2833018 	add	r3, r3, #24
    2f0c:	e3a02801 	mov	r2, #65536	; 0x10000
    2f10:	e5832000 	str	r2, [r3]
    2f14:	e51b3008 	ldr	r3, [fp, #-8]
    2f18:	e283301c 	add	r3, r3, #28
    2f1c:	e59f2230 	ldr	r2, [pc, #560]	; 3154 <hw_dram_Init_mobile_ddr_mt46h32m16lf_5_regs_3_133MHz+0x2c0>
    2f20:	e5832000 	str	r2, [r3]
    2f24:	e51b3008 	ldr	r3, [fp, #-8]
    2f28:	e2833020 	add	r3, r3, #32
    2f2c:	e3a02401 	mov	r2, #16777216	; 0x1000000
    2f30:	e5832000 	str	r2, [r3]
    2f34:	e51b3008 	ldr	r3, [fp, #-8]
    2f38:	e2833024 	add	r3, r3, #36	; 0x24
    2f3c:	e3a02001 	mov	r2, #1
    2f40:	e5832000 	str	r2, [r3]
    2f44:	e51b3008 	ldr	r3, [fp, #-8]
    2f48:	e2833028 	add	r3, r3, #40	; 0x28
    2f4c:	e59f2204 	ldr	r2, [pc, #516]	; 3158 <hw_dram_Init_mobile_ddr_mt46h32m16lf_5_regs_3_133MHz+0x2c4>
    2f50:	e5832000 	str	r2, [r3]
    2f54:	e51b3008 	ldr	r3, [fp, #-8]
    2f58:	e283302c 	add	r3, r3, #44	; 0x2c
    2f5c:	e59f21f8 	ldr	r2, [pc, #504]	; 315c <hw_dram_Init_mobile_ddr_mt46h32m16lf_5_regs_3_133MHz+0x2c8>
    2f60:	e5832000 	str	r2, [r3]
    2f64:	e51b3008 	ldr	r3, [fp, #-8]
    2f68:	e2833030 	add	r3, r3, #48	; 0x30
    2f6c:	e59f21ec 	ldr	r2, [pc, #492]	; 3160 <hw_dram_Init_mobile_ddr_mt46h32m16lf_5_regs_3_133MHz+0x2cc>
    2f70:	e5832000 	str	r2, [r3]
    2f74:	e51b3008 	ldr	r3, [fp, #-8]
    2f78:	e2833034 	add	r3, r3, #52	; 0x34
    2f7c:	e59f21e0 	ldr	r2, [pc, #480]	; 3164 <hw_dram_Init_mobile_ddr_mt46h32m16lf_5_regs_3_133MHz+0x2d0>
    2f80:	e5832000 	str	r2, [r3]
    2f84:	e51b3008 	ldr	r3, [fp, #-8]
    2f88:	e2833038 	add	r3, r3, #56	; 0x38
    2f8c:	e59f21d4 	ldr	r2, [pc, #468]	; 3168 <hw_dram_Init_mobile_ddr_mt46h32m16lf_5_regs_3_133MHz+0x2d4>
    2f90:	e5832000 	str	r2, [r3]
    2f94:	e51b3008 	ldr	r3, [fp, #-8]
    2f98:	e283303c 	add	r3, r3, #60	; 0x3c
    2f9c:	e3a02781 	mov	r2, #33816576	; 0x2040000
    2fa0:	e5832000 	str	r2, [r3]
    2fa4:	e51b3008 	ldr	r3, [fp, #-8]
    2fa8:	e2833040 	add	r3, r3, #64	; 0x40
    2fac:	e3a02402 	mov	r2, #33554432	; 0x2000000
    2fb0:	e5832000 	str	r2, [r3]
    2fb4:	e51b3008 	ldr	r3, [fp, #-8]
    2fb8:	e2833044 	add	r3, r3, #68	; 0x44
    2fbc:	e59f21a8 	ldr	r2, [pc, #424]	; 316c <hw_dram_Init_mobile_ddr_mt46h32m16lf_5_regs_3_133MHz+0x2d8>
    2fc0:	e5832000 	str	r2, [r3]
    2fc4:	e51b3008 	ldr	r3, [fp, #-8]
    2fc8:	e2833048 	add	r3, r3, #72	; 0x48
    2fcc:	e59f219c 	ldr	r2, [pc, #412]	; 3170 <hw_dram_Init_mobile_ddr_mt46h32m16lf_5_regs_3_133MHz+0x2dc>
    2fd0:	e5832000 	str	r2, [r3]
    2fd4:	e51b3008 	ldr	r3, [fp, #-8]
    2fd8:	e283304c 	add	r3, r3, #76	; 0x4c
    2fdc:	e59f2190 	ldr	r2, [pc, #400]	; 3174 <hw_dram_Init_mobile_ddr_mt46h32m16lf_5_regs_3_133MHz+0x2e0>
    2fe0:	e5832000 	str	r2, [r3]
    2fe4:	e51b3008 	ldr	r3, [fp, #-8]
    2fe8:	e2833050 	add	r3, r3, #80	; 0x50
    2fec:	e59f2184 	ldr	r2, [pc, #388]	; 3178 <hw_dram_Init_mobile_ddr_mt46h32m16lf_5_regs_3_133MHz+0x2e4>
    2ff0:	e5832000 	str	r2, [r3]
    2ff4:	e51b3008 	ldr	r3, [fp, #-8]
    2ff8:	e2833054 	add	r3, r3, #84	; 0x54
    2ffc:	e3a0200d 	mov	r2, #13
    3000:	e5832000 	str	r2, [r3]
    3004:	e51b3008 	ldr	r3, [fp, #-8]
    3008:	e2833058 	add	r3, r3, #88	; 0x58
    300c:	e59f2168 	ldr	r2, [pc, #360]	; 317c <hw_dram_Init_mobile_ddr_mt46h32m16lf_5_regs_3_133MHz+0x2e8>
    3010:	e5832000 	str	r2, [r3]
    3014:	e51b3008 	ldr	r3, [fp, #-8]
    3018:	e283305c 	add	r3, r3, #92	; 0x5c
    301c:	e59f215c 	ldr	r2, [pc, #348]	; 3180 <hw_dram_Init_mobile_ddr_mt46h32m16lf_5_regs_3_133MHz+0x2ec>
    3020:	e5832000 	str	r2, [r3]
    3024:	e51b3008 	ldr	r3, [fp, #-8]
    3028:	e2833060 	add	r3, r3, #96	; 0x60
    302c:	e59f214c 	ldr	r2, [pc, #332]	; 3180 <hw_dram_Init_mobile_ddr_mt46h32m16lf_5_regs_3_133MHz+0x2ec>
    3030:	e5832000 	str	r2, [r3]
    3034:	e51b3008 	ldr	r3, [fp, #-8]
    3038:	e2833064 	add	r3, r3, #100	; 0x64
    303c:	e59f213c 	ldr	r2, [pc, #316]	; 3180 <hw_dram_Init_mobile_ddr_mt46h32m16lf_5_regs_3_133MHz+0x2ec>
    3040:	e5832000 	str	r2, [r3]
    3044:	e51b3008 	ldr	r3, [fp, #-8]
    3048:	e2833068 	add	r3, r3, #104	; 0x68
    304c:	e59f2130 	ldr	r2, [pc, #304]	; 3184 <hw_dram_Init_mobile_ddr_mt46h32m16lf_5_regs_3_133MHz+0x2f0>
    3050:	e5832000 	str	r2, [r3]
    3054:	e51b3008 	ldr	r3, [fp, #-8]
    3058:	e283306c 	add	r3, r3, #108	; 0x6c
    305c:	e3a02000 	mov	r2, #0
    3060:	e5832000 	str	r2, [r3]
    3064:	e51b3008 	ldr	r3, [fp, #-8]
    3068:	e2833070 	add	r3, r3, #112	; 0x70
    306c:	e3a02000 	mov	r2, #0
    3070:	e5832000 	str	r2, [r3]
    3074:	e51b3008 	ldr	r3, [fp, #-8]
    3078:	e2833074 	add	r3, r3, #116	; 0x74
    307c:	e3a02000 	mov	r2, #0
    3080:	e5832000 	str	r2, [r3]
    3084:	e51b3008 	ldr	r3, [fp, #-8]
    3088:	e2833078 	add	r3, r3, #120	; 0x78
    308c:	e3a02000 	mov	r2, #0
    3090:	e5832000 	str	r2, [r3]
    3094:	e51b3008 	ldr	r3, [fp, #-8]
    3098:	e283307c 	add	r3, r3, #124	; 0x7c
    309c:	e3a02000 	mov	r2, #0
    30a0:	e5832000 	str	r2, [r3]
    30a4:	e51b3008 	ldr	r3, [fp, #-8]
    30a8:	e2833080 	add	r3, r3, #128	; 0x80
    30ac:	e59f20d4 	ldr	r2, [pc, #212]	; 3188 <hw_dram_Init_mobile_ddr_mt46h32m16lf_5_regs_3_133MHz+0x2f4>
    30b0:	e5832000 	str	r2, [r3]
    30b4:	e51b3008 	ldr	r3, [fp, #-8]
    30b8:	e2833084 	add	r3, r3, #132	; 0x84
    30bc:	e3a02012 	mov	r2, #18
    30c0:	e5832000 	str	r2, [r3]
    30c4:	e51b3008 	ldr	r3, [fp, #-8]
    30c8:	e2833088 	add	r3, r3, #136	; 0x88
    30cc:	e59f20b8 	ldr	r2, [pc, #184]	; 318c <hw_dram_Init_mobile_ddr_mt46h32m16lf_5_regs_3_133MHz+0x2f8>
    30d0:	e5832000 	str	r2, [r3]
    30d4:	e51b3008 	ldr	r3, [fp, #-8]
    30d8:	e283308c 	add	r3, r3, #140	; 0x8c
    30dc:	e3a02000 	mov	r2, #0
    30e0:	e5832000 	str	r2, [r3]
    30e4:	e51b3008 	ldr	r3, [fp, #-8]
    30e8:	e2833090 	add	r3, r3, #144	; 0x90
    30ec:	e59f205c 	ldr	r2, [pc, #92]	; 3150 <hw_dram_Init_mobile_ddr_mt46h32m16lf_5_regs_3_133MHz+0x2bc>
    30f0:	e5832000 	str	r2, [r3]
    30f4:	e51b3008 	ldr	r3, [fp, #-8]
    30f8:	e2833094 	add	r3, r3, #148	; 0x94
    30fc:	e59f208c 	ldr	r2, [pc, #140]	; 3190 <hw_dram_Init_mobile_ddr_mt46h32m16lf_5_regs_3_133MHz+0x2fc>
    3100:	e5832000 	str	r2, [r3]
    3104:	e51b3008 	ldr	r3, [fp, #-8]
    3108:	e2833098 	add	r3, r3, #152	; 0x98
    310c:	e59f2080 	ldr	r2, [pc, #128]	; 3194 <hw_dram_Init_mobile_ddr_mt46h32m16lf_5_regs_3_133MHz+0x300>
    3110:	e5832000 	str	r2, [r3]
    3114:	e51b3008 	ldr	r3, [fp, #-8]
    3118:	e283309c 	add	r3, r3, #156	; 0x9c
    311c:	e59f2074 	ldr	r2, [pc, #116]	; 3198 <hw_dram_Init_mobile_ddr_mt46h32m16lf_5_regs_3_133MHz+0x304>
    3120:	e5832000 	str	r2, [r3]
    3124:	e51b3008 	ldr	r3, [fp, #-8]
    3128:	e28330a0 	add	r3, r3, #160	; 0xa0
    312c:	e59f2068 	ldr	r2, [pc, #104]	; 319c <hw_dram_Init_mobile_ddr_mt46h32m16lf_5_regs_3_133MHz+0x308>
    3130:	e5832000 	str	r2, [r3]
    3134:	e28bd000 	add	sp, fp, #0
    3138:	e49db004 	pop	{fp}		; (ldr fp, [sp], #4)
    313c:	e12fff1e 	bx	lr
    3140:	800e0000 	andhi	r0, lr, r0
    3144:	01010001 	tsteq	r1, r1
    3148:	00010100 	andeq	r0, r1, r0, lsl #2
    314c:	01000101 	tsteq	r0, r1, lsl #2
    3150:	00000101 	andeq	r0, r0, r1, lsl #2
    3154:	01000001 	tsteq	r0, r1
    3158:	07000200 	streq	r0, [r0, -r0, lsl #4]
    315c:	00070203 	andeq	r0, r7, r3, lsl #4
    3160:	02020001 	andeq	r0, r2, #1
    3164:	06060a03 	streq	r0, [r6], -r3, lsl #20
    3168:	00000201 	andeq	r0, r0, r1, lsl #4
    316c:	39000f08 	stmdbcc	r0, {r3, r8, r9, sl, fp}
    3170:	20200000 	eorcs	r0, r0, r0
    3174:	02021313 	andeq	r1, r2, #1275068416	; 0x4c000000
    3178:	0206151c 	andeq	r1, r6, #28, 10	; 0x7000000
    317c:	00080008 	andeq	r0, r8, r8
    3180:	00200020 	eoreq	r0, r0, r0, lsr #32
    3184:	000003f7 	strdeq	r0, [r0], -r7
    3188:	001023cd 	andseq	r2, r0, sp, asr #7
    318c:	00006665 	andeq	r6, r0, r5, ror #12
    3190:	00040001 	andeq	r0, r4, r1
    3194:	00400162 	subeq	r0, r0, r2, ror #2
    3198:	00400040 	subeq	r0, r0, r0, asr #32
    319c:	00020040 	andeq	r0, r2, r0, asr #32

000031a0 <hw_dram_Init_mobile_ddr_mt46h32m16lf_5_regs_3_160MHz>:
    31a0:	e52db004 	push	{fp}		; (str fp, [sp, #-4]!)
    31a4:	e28db000 	add	fp, sp, #0
    31a8:	e24dd00c 	sub	sp, sp, #12
    31ac:	e59f3298 	ldr	r3, [pc, #664]	; 344c <hw_dram_Init_mobile_ddr_mt46h32m16lf_5_regs_3_160MHz+0x2ac>
    31b0:	e50b3008 	str	r3, [fp, #-8]
    31b4:	e51b3008 	ldr	r3, [fp, #-8]
    31b8:	e59f2290 	ldr	r2, [pc, #656]	; 3450 <hw_dram_Init_mobile_ddr_mt46h32m16lf_5_regs_3_160MHz+0x2b0>
    31bc:	e5832000 	str	r2, [r3]
    31c0:	e51b3008 	ldr	r3, [fp, #-8]
    31c4:	e2833004 	add	r3, r3, #4
    31c8:	e59f2284 	ldr	r2, [pc, #644]	; 3454 <hw_dram_Init_mobile_ddr_mt46h32m16lf_5_regs_3_160MHz+0x2b4>
    31cc:	e5832000 	str	r2, [r3]
    31d0:	e51b3008 	ldr	r3, [fp, #-8]
    31d4:	e2833008 	add	r3, r3, #8
    31d8:	e59f2278 	ldr	r2, [pc, #632]	; 3458 <hw_dram_Init_mobile_ddr_mt46h32m16lf_5_regs_3_160MHz+0x2b8>
    31dc:	e5832000 	str	r2, [r3]
    31e0:	e51b3008 	ldr	r3, [fp, #-8]
    31e4:	e283300c 	add	r3, r3, #12
    31e8:	e3a02001 	mov	r2, #1
    31ec:	e5832000 	str	r2, [r3]
    31f0:	e51b3008 	ldr	r3, [fp, #-8]
    31f4:	e2833010 	add	r3, r3, #16
    31f8:	e59f225c 	ldr	r2, [pc, #604]	; 345c <hw_dram_Init_mobile_ddr_mt46h32m16lf_5_regs_3_160MHz+0x2bc>
    31fc:	e5832000 	str	r2, [r3]
    3200:	e51b3008 	ldr	r3, [fp, #-8]
    3204:	e2833014 	add	r3, r3, #20
    3208:	e3a02001 	mov	r2, #1
    320c:	e5832000 	str	r2, [r3]
    3210:	e51b3008 	ldr	r3, [fp, #-8]
    3214:	e2833018 	add	r3, r3, #24
    3218:	e3a02801 	mov	r2, #65536	; 0x10000
    321c:	e5832000 	str	r2, [r3]
    3220:	e51b3008 	ldr	r3, [fp, #-8]
    3224:	e283301c 	add	r3, r3, #28
    3228:	e59f2228 	ldr	r2, [pc, #552]	; 3458 <hw_dram_Init_mobile_ddr_mt46h32m16lf_5_regs_3_160MHz+0x2b8>
    322c:	e5832000 	str	r2, [r3]
    3230:	e51b3008 	ldr	r3, [fp, #-8]
    3234:	e2833020 	add	r3, r3, #32
    3238:	e3a02401 	mov	r2, #16777216	; 0x1000000
    323c:	e5832000 	str	r2, [r3]
    3240:	e51b3008 	ldr	r3, [fp, #-8]
    3244:	e2833024 	add	r3, r3, #36	; 0x24
    3248:	e3a02001 	mov	r2, #1
    324c:	e5832000 	str	r2, [r3]
    3250:	e51b3008 	ldr	r3, [fp, #-8]
    3254:	e2833028 	add	r3, r3, #40	; 0x28
    3258:	e59f2200 	ldr	r2, [pc, #512]	; 3460 <hw_dram_Init_mobile_ddr_mt46h32m16lf_5_regs_3_160MHz+0x2c0>
    325c:	e5832000 	str	r2, [r3]
    3260:	e51b3008 	ldr	r3, [fp, #-8]
    3264:	e283302c 	add	r3, r3, #44	; 0x2c
    3268:	e59f21f4 	ldr	r2, [pc, #500]	; 3464 <hw_dram_Init_mobile_ddr_mt46h32m16lf_5_regs_3_160MHz+0x2c4>
    326c:	e5832000 	str	r2, [r3]
    3270:	e51b3008 	ldr	r3, [fp, #-8]
    3274:	e2833030 	add	r3, r3, #48	; 0x30
    3278:	e59f21e8 	ldr	r2, [pc, #488]	; 3468 <hw_dram_Init_mobile_ddr_mt46h32m16lf_5_regs_3_160MHz+0x2c8>
    327c:	e5832000 	str	r2, [r3]
    3280:	e51b3008 	ldr	r3, [fp, #-8]
    3284:	e2833034 	add	r3, r3, #52	; 0x34
    3288:	e59f21dc 	ldr	r2, [pc, #476]	; 346c <hw_dram_Init_mobile_ddr_mt46h32m16lf_5_regs_3_160MHz+0x2cc>
    328c:	e5832000 	str	r2, [r3]
    3290:	e51b3008 	ldr	r3, [fp, #-8]
    3294:	e2833038 	add	r3, r3, #56	; 0x38
    3298:	e59f21d0 	ldr	r2, [pc, #464]	; 3470 <hw_dram_Init_mobile_ddr_mt46h32m16lf_5_regs_3_160MHz+0x2d0>
    329c:	e5832000 	str	r2, [r3]
    32a0:	e51b3008 	ldr	r3, [fp, #-8]
    32a4:	e283303c 	add	r3, r3, #60	; 0x3c
    32a8:	e59f21c4 	ldr	r2, [pc, #452]	; 3474 <hw_dram_Init_mobile_ddr_mt46h32m16lf_5_regs_3_160MHz+0x2d4>
    32ac:	e5832000 	str	r2, [r3]
    32b0:	e51b3008 	ldr	r3, [fp, #-8]
    32b4:	e2833040 	add	r3, r3, #64	; 0x40
    32b8:	e3a02402 	mov	r2, #33554432	; 0x2000000
    32bc:	e5832000 	str	r2, [r3]
    32c0:	e51b3008 	ldr	r3, [fp, #-8]
    32c4:	e2833044 	add	r3, r3, #68	; 0x44
    32c8:	e59f21a8 	ldr	r2, [pc, #424]	; 3478 <hw_dram_Init_mobile_ddr_mt46h32m16lf_5_regs_3_160MHz+0x2d8>
    32cc:	e5832000 	str	r2, [r3]
    32d0:	e51b3008 	ldr	r3, [fp, #-8]
    32d4:	e2833048 	add	r3, r3, #72	; 0x48
    32d8:	e59f219c 	ldr	r2, [pc, #412]	; 347c <hw_dram_Init_mobile_ddr_mt46h32m16lf_5_regs_3_160MHz+0x2dc>
    32dc:	e5832000 	str	r2, [r3]
    32e0:	e51b3008 	ldr	r3, [fp, #-8]
    32e4:	e283304c 	add	r3, r3, #76	; 0x4c
    32e8:	e59f2190 	ldr	r2, [pc, #400]	; 3480 <hw_dram_Init_mobile_ddr_mt46h32m16lf_5_regs_3_160MHz+0x2e0>
    32ec:	e5832000 	str	r2, [r3]
    32f0:	e51b3008 	ldr	r3, [fp, #-8]
    32f4:	e2833050 	add	r3, r3, #80	; 0x50
    32f8:	e59f2184 	ldr	r2, [pc, #388]	; 3484 <hw_dram_Init_mobile_ddr_mt46h32m16lf_5_regs_3_160MHz+0x2e4>
    32fc:	e5832000 	str	r2, [r3]
    3300:	e51b3008 	ldr	r3, [fp, #-8]
    3304:	e2833054 	add	r3, r3, #84	; 0x54
    3308:	e3a02010 	mov	r2, #16
    330c:	e5832000 	str	r2, [r3]
    3310:	e51b3008 	ldr	r3, [fp, #-8]
    3314:	e2833058 	add	r3, r3, #88	; 0x58
    3318:	e59f2168 	ldr	r2, [pc, #360]	; 3488 <hw_dram_Init_mobile_ddr_mt46h32m16lf_5_regs_3_160MHz+0x2e8>
    331c:	e5832000 	str	r2, [r3]
    3320:	e51b3008 	ldr	r3, [fp, #-8]
    3324:	e283305c 	add	r3, r3, #92	; 0x5c
    3328:	e59f215c 	ldr	r2, [pc, #348]	; 348c <hw_dram_Init_mobile_ddr_mt46h32m16lf_5_regs_3_160MHz+0x2ec>
    332c:	e5832000 	str	r2, [r3]
    3330:	e51b3008 	ldr	r3, [fp, #-8]
    3334:	e2833060 	add	r3, r3, #96	; 0x60
    3338:	e59f214c 	ldr	r2, [pc, #332]	; 348c <hw_dram_Init_mobile_ddr_mt46h32m16lf_5_regs_3_160MHz+0x2ec>
    333c:	e5832000 	str	r2, [r3]
    3340:	e51b3008 	ldr	r3, [fp, #-8]
    3344:	e2833064 	add	r3, r3, #100	; 0x64
    3348:	e59f213c 	ldr	r2, [pc, #316]	; 348c <hw_dram_Init_mobile_ddr_mt46h32m16lf_5_regs_3_160MHz+0x2ec>
    334c:	e5832000 	str	r2, [r3]
    3350:	e51b3008 	ldr	r3, [fp, #-8]
    3354:	e2833068 	add	r3, r3, #104	; 0x68
    3358:	e59f2130 	ldr	r2, [pc, #304]	; 3490 <hw_dram_Init_mobile_ddr_mt46h32m16lf_5_regs_3_160MHz+0x2f0>
    335c:	e5832000 	str	r2, [r3]
    3360:	e51b3008 	ldr	r3, [fp, #-8]
    3364:	e283306c 	add	r3, r3, #108	; 0x6c
    3368:	e3a02000 	mov	r2, #0
    336c:	e5832000 	str	r2, [r3]
    3370:	e51b3008 	ldr	r3, [fp, #-8]
    3374:	e2833070 	add	r3, r3, #112	; 0x70
    3378:	e3a02000 	mov	r2, #0
    337c:	e5832000 	str	r2, [r3]
    3380:	e51b3008 	ldr	r3, [fp, #-8]
    3384:	e2833074 	add	r3, r3, #116	; 0x74
    3388:	e3a02000 	mov	r2, #0
    338c:	e5832000 	str	r2, [r3]
    3390:	e51b3008 	ldr	r3, [fp, #-8]
    3394:	e2833078 	add	r3, r3, #120	; 0x78
    3398:	e3a02000 	mov	r2, #0
    339c:	e5832000 	str	r2, [r3]
    33a0:	e51b3008 	ldr	r3, [fp, #-8]
    33a4:	e283307c 	add	r3, r3, #124	; 0x7c
    33a8:	e3a02000 	mov	r2, #0
    33ac:	e5832000 	str	r2, [r3]
    33b0:	e51b3008 	ldr	r3, [fp, #-8]
    33b4:	e2833080 	add	r3, r3, #128	; 0x80
    33b8:	e59f20d4 	ldr	r2, [pc, #212]	; 3494 <hw_dram_Init_mobile_ddr_mt46h32m16lf_5_regs_3_160MHz+0x2f4>
    33bc:	e5832000 	str	r2, [r3]
    33c0:	e51b3008 	ldr	r3, [fp, #-8]
    33c4:	e2833084 	add	r3, r3, #132	; 0x84
    33c8:	e3a02016 	mov	r2, #22
    33cc:	e5832000 	str	r2, [r3]
    33d0:	e51b3008 	ldr	r3, [fp, #-8]
    33d4:	e2833088 	add	r3, r3, #136	; 0x88
    33d8:	e3a02c7d 	mov	r2, #32000	; 0x7d00
    33dc:	e5832000 	str	r2, [r3]
    33e0:	e51b3008 	ldr	r3, [fp, #-8]
    33e4:	e283308c 	add	r3, r3, #140	; 0x8c
    33e8:	e3a02000 	mov	r2, #0
    33ec:	e5832000 	str	r2, [r3]
    33f0:	e51b3008 	ldr	r3, [fp, #-8]
    33f4:	e2833090 	add	r3, r3, #144	; 0x90
    33f8:	e59f205c 	ldr	r2, [pc, #92]	; 345c <hw_dram_Init_mobile_ddr_mt46h32m16lf_5_regs_3_160MHz+0x2bc>
    33fc:	e5832000 	str	r2, [r3]
    3400:	e51b3008 	ldr	r3, [fp, #-8]
    3404:	e2833094 	add	r3, r3, #148	; 0x94
    3408:	e59f2088 	ldr	r2, [pc, #136]	; 3498 <hw_dram_Init_mobile_ddr_mt46h32m16lf_5_regs_3_160MHz+0x2f8>
    340c:	e5832000 	str	r2, [r3]
    3410:	e51b3008 	ldr	r3, [fp, #-8]
    3414:	e2833098 	add	r3, r3, #152	; 0x98
    3418:	e59f207c 	ldr	r2, [pc, #124]	; 349c <hw_dram_Init_mobile_ddr_mt46h32m16lf_5_regs_3_160MHz+0x2fc>
    341c:	e5832000 	str	r2, [r3]
    3420:	e51b3008 	ldr	r3, [fp, #-8]
    3424:	e283309c 	add	r3, r3, #156	; 0x9c
    3428:	e59f2070 	ldr	r2, [pc, #112]	; 34a0 <hw_dram_Init_mobile_ddr_mt46h32m16lf_5_regs_3_160MHz+0x300>
    342c:	e5832000 	str	r2, [r3]
    3430:	e51b3008 	ldr	r3, [fp, #-8]
    3434:	e28330a0 	add	r3, r3, #160	; 0xa0
    3438:	e59f2064 	ldr	r2, [pc, #100]	; 34a4 <hw_dram_Init_mobile_ddr_mt46h32m16lf_5_regs_3_160MHz+0x304>
    343c:	e5832000 	str	r2, [r3]
    3440:	e28bd000 	add	sp, fp, #0
    3444:	e49db004 	pop	{fp}		; (ldr fp, [sp], #4)
    3448:	e12fff1e 	bx	lr
    344c:	800e0000 	andhi	r0, lr, r0
    3450:	01010001 	tsteq	r1, r1
    3454:	00010100 	andeq	r0, r1, r0, lsl #2
    3458:	01000101 	tsteq	r0, r1, lsl #2
    345c:	00000101 	andeq	r0, r0, r1, lsl #2
    3460:	07000200 	streq	r0, [r0, -r0, lsl #4]
    3464:	00070203 	andeq	r0, r7, r3, lsl #4
    3468:	02020001 	andeq	r0, r2, #1
    346c:	06060a03 	streq	r0, [r6], -r3, lsl #20
    3470:	00000201 	andeq	r0, r0, r1, lsl #4
    3474:	03050000 	movweq	r0, #20480	; 0x5000
    3478:	2d000d09 	stccs	13, cr0, [r0, #-36]	; 0xffffffdc
    347c:	20200000 	eorcs	r0, r0, r0
    3480:	02020f0f 	andeq	r0, r2, #15, 30	; 0x3c
    3484:	0307121c 	movweq	r1, #29212	; 0x721c
    3488:	00080008 	andeq	r0, r8, r8
    348c:	00200020 	eoreq	r0, r0, r0, lsr #32
    3490:	000004da 	ldrdeq	r0, [r0], -sl
    3494:	00142bb6 			; <UNDEFINED> instruction: 0x00142bb6
    3498:	00040001 	andeq	r0, r4, r1
    349c:	00400162 	subeq	r0, r0, r2, ror #2
    34a0:	00400040 	subeq	r0, r0, r0, asr #32
    34a4:	00020040 	andeq	r0, r2, r0, asr #32

000034a8 <hw_digctl_GetCurrentTime>:
    34a8:	e52db004 	push	{fp}		; (str fp, [sp, #-4]!)
    34ac:	e28db000 	add	fp, sp, #0
    34b0:	e59f3010 	ldr	r3, [pc, #16]	; 34c8 <hw_digctl_GetCurrentTime+0x20>
    34b4:	e5933000 	ldr	r3, [r3]
    34b8:	e1a00003 	mov	r0, r3
    34bc:	e28bd000 	add	sp, fp, #0
    34c0:	e49db004 	pop	{fp}		; (ldr fp, [sp], #4)
    34c4:	e12fff1e 	bx	lr
    34c8:	8001c0c0 	andhi	ip, r1, r0, asr #1

000034cc <ddi_emi_ExitStaticSelfRefreshMode>:
    34cc:	e92d4800 	push	{fp, lr}
    34d0:	e28db004 	add	fp, sp, #4
    34d4:	e24dd008 	sub	sp, sp, #8
    34d8:	e3a00000 	mov	r0, #0
    34dc:	eb000042 	bl	35ec <hw_emi_EnterMemorySelfRefreshMode>
    34e0:	ebfffff0 	bl	34a8 <hw_digctl_GetCurrentTime>
    34e4:	e50b0008 	str	r0, [fp, #-8]
    34e8:	ea000007 	b	350c <ddi_emi_ExitStaticSelfRefreshMode+0x40>
    34ec:	e51b0008 	ldr	r0, [fp, #-8]
    34f0:	e3a01ffa 	mov	r1, #1000	; 0x3e8
    34f4:	eb00000d 	bl	3530 <hw_digctl_CheckTimeOut>
    34f8:	e1a03000 	mov	r3, r0
    34fc:	e3530000 	cmp	r3, #0
    3500:	0a000001 	beq	350c <ddi_emi_ExitStaticSelfRefreshMode+0x40>
    3504:	e59f3020 	ldr	r3, [pc, #32]	; 352c <ddi_emi_ExitStaticSelfRefreshMode+0x60>
    3508:	ea000004 	b	3520 <ddi_emi_ExitStaticSelfRefreshMode+0x54>
    350c:	ebfff751 	bl	1258 <hw_emi_IsControllerHalted>
    3510:	e1a03000 	mov	r3, r0
    3514:	e3530000 	cmp	r3, #0
    3518:	1afffff3 	bne	34ec <ddi_emi_ExitStaticSelfRefreshMode+0x20>
    351c:	e3a03000 	mov	r3, #0
    3520:	e1a00003 	mov	r0, r3
    3524:	e24bd004 	sub	sp, fp, #4
    3528:	e8bd8800 	pop	{fp, pc}
    352c:	f0224002 			; <UNDEFINED> instruction: 0xf0224002

00003530 <hw_digctl_CheckTimeOut>:
    3530:	e52db004 	push	{fp}		; (str fp, [sp, #-4]!)
    3534:	e28db000 	add	fp, sp, #0
    3538:	e24dd01c 	sub	sp, sp, #28
    353c:	e50b0018 	str	r0, [fp, #-24]	; 0xffffffe8
    3540:	e50b101c 	str	r1, [fp, #-28]	; 0xffffffe4
    3544:	e59f309c 	ldr	r3, [pc, #156]	; 35e8 <hw_digctl_CheckTimeOut+0xb8>
    3548:	e5933000 	ldr	r3, [r3]
    354c:	e50b300c 	str	r3, [fp, #-12]
    3550:	e51b2018 	ldr	r2, [fp, #-24]	; 0xffffffe8
    3554:	e51b301c 	ldr	r3, [fp, #-28]	; 0xffffffe4
    3558:	e0823003 	add	r3, r2, r3
    355c:	e50b3010 	str	r3, [fp, #-16]
    3560:	e51b2018 	ldr	r2, [fp, #-24]	; 0xffffffe8
    3564:	e51b3010 	ldr	r3, [fp, #-16]
    3568:	e1520003 	cmp	r2, r3
    356c:	8a00000c 	bhi	35a4 <hw_digctl_CheckTimeOut+0x74>
    3570:	e51b200c 	ldr	r2, [fp, #-12]
    3574:	e51b3018 	ldr	r3, [fp, #-24]	; 0xffffffe8
    3578:	e1520003 	cmp	r2, r3
    357c:	3a000003 	bcc	3590 <hw_digctl_CheckTimeOut+0x60>
    3580:	e51b200c 	ldr	r2, [fp, #-12]
    3584:	e51b3010 	ldr	r3, [fp, #-16]
    3588:	e1520003 	cmp	r2, r3
    358c:	3a000001 	bcc	3598 <hw_digctl_CheckTimeOut+0x68>
    3590:	e3a03001 	mov	r3, #1
    3594:	ea000000 	b	359c <hw_digctl_CheckTimeOut+0x6c>
    3598:	e3a03000 	mov	r3, #0
    359c:	e50b3008 	str	r3, [fp, #-8]
    35a0:	ea00000b 	b	35d4 <hw_digctl_CheckTimeOut+0xa4>
    35a4:	e51b200c 	ldr	r2, [fp, #-12]
    35a8:	e51b3018 	ldr	r3, [fp, #-24]	; 0xffffffe8
    35ac:	e1520003 	cmp	r2, r3
    35b0:	2a000005 	bcs	35cc <hw_digctl_CheckTimeOut+0x9c>
    35b4:	e51b200c 	ldr	r2, [fp, #-12]
    35b8:	e51b3010 	ldr	r3, [fp, #-16]
    35bc:	e1520003 	cmp	r2, r3
    35c0:	3a000001 	bcc	35cc <hw_digctl_CheckTimeOut+0x9c>
    35c4:	e3a03001 	mov	r3, #1
    35c8:	ea000000 	b	35d0 <hw_digctl_CheckTimeOut+0xa0>
    35cc:	e3a03000 	mov	r3, #0
    35d0:	e50b3008 	str	r3, [fp, #-8]
    35d4:	e51b3008 	ldr	r3, [fp, #-8]
    35d8:	e1a00003 	mov	r0, r3
    35dc:	e28bd000 	add	sp, fp, #0
    35e0:	e49db004 	pop	{fp}		; (ldr fp, [sp], #4)
    35e4:	e12fff1e 	bx	lr
    35e8:	8001c0c0 	andhi	ip, r1, r0, asr #1

000035ec <hw_emi_EnterMemorySelfRefreshMode>:
    35ec:	e52db004 	push	{fp}		; (str fp, [sp, #-4]!)
    35f0:	e28db000 	add	fp, sp, #0
    35f4:	e24dd00c 	sub	sp, sp, #12
    35f8:	e50b0008 	str	r0, [fp, #-8]
    35fc:	e51b3008 	ldr	r3, [fp, #-8]
    3600:	e3530000 	cmp	r3, #0
    3604:	0a000005 	beq	3620 <hw_emi_EnterMemorySelfRefreshMode+0x34>
    3608:	e59f3030 	ldr	r3, [pc, #48]	; 3640 <hw_emi_EnterMemorySelfRefreshMode+0x54>
    360c:	e59f202c 	ldr	r2, [pc, #44]	; 3640 <hw_emi_EnterMemorySelfRefreshMode+0x54>
    3610:	e5922000 	ldr	r2, [r2]
    3614:	e3822802 	orr	r2, r2, #131072	; 0x20000
    3618:	e5832000 	str	r2, [r3]
    361c:	ea000004 	b	3634 <hw_emi_EnterMemorySelfRefreshMode+0x48>
    3620:	e59f3018 	ldr	r3, [pc, #24]	; 3640 <hw_emi_EnterMemorySelfRefreshMode+0x54>
    3624:	e59f2014 	ldr	r2, [pc, #20]	; 3640 <hw_emi_EnterMemorySelfRefreshMode+0x54>
    3628:	e5922000 	ldr	r2, [r2]
    362c:	e3c22802 	bic	r2, r2, #131072	; 0x20000
    3630:	e5832000 	str	r2, [r3]
    3634:	e28bd000 	add	sp, fp, #0
    3638:	e49db004 	pop	{fp}		; (ldr fp, [sp], #4)
    363c:	e12fff1e 	bx	lr
    3640:	800e0040 	andhi	r0, lr, r0, asr #32

00003644 <hw_emi_SetMemorySelfRefeshAutoFlag>:
    3644:	e52db004 	push	{fp}		; (str fp, [sp, #-4]!)
    3648:	e28db000 	add	fp, sp, #0
    364c:	e24dd00c 	sub	sp, sp, #12
    3650:	e50b0008 	str	r0, [fp, #-8]
    3654:	e51b3008 	ldr	r3, [fp, #-8]
    3658:	e3530000 	cmp	r3, #0
    365c:	0a00000e 	beq	369c <hw_emi_SetMemorySelfRefeshAutoFlag+0x58>
    3660:	e59f3054 	ldr	r3, [pc, #84]	; 36bc <hw_emi_SetMemorySelfRefeshAutoFlag+0x78>
    3664:	e1d330b0 	ldrh	r3, [r3]
    3668:	e1a03803 	lsl	r3, r3, #16
    366c:	e1a03823 	lsr	r3, r3, #16
    3670:	e3530000 	cmp	r3, #0
    3674:	1a000002 	bne	3684 <hw_emi_SetMemorySelfRefeshAutoFlag+0x40>
    3678:	e59f303c 	ldr	r3, [pc, #60]	; 36bc <hw_emi_SetMemorySelfRefeshAutoFlag+0x78>
    367c:	e3a02040 	mov	r2, #64	; 0x40
    3680:	e1c320b0 	strh	r2, [r3]
    3684:	e59f3034 	ldr	r3, [pc, #52]	; 36c0 <hw_emi_SetMemorySelfRefeshAutoFlag+0x7c>
    3688:	e59f2030 	ldr	r2, [pc, #48]	; 36c0 <hw_emi_SetMemorySelfRefeshAutoFlag+0x7c>
    368c:	e5922000 	ldr	r2, [r2]
    3690:	e3822c02 	orr	r2, r2, #512	; 0x200
    3694:	e5832000 	str	r2, [r3]
    3698:	ea000004 	b	36b0 <hw_emi_SetMemorySelfRefeshAutoFlag+0x6c>
    369c:	e59f301c 	ldr	r3, [pc, #28]	; 36c0 <hw_emi_SetMemorySelfRefeshAutoFlag+0x7c>
    36a0:	e59f2018 	ldr	r2, [pc, #24]	; 36c0 <hw_emi_SetMemorySelfRefeshAutoFlag+0x7c>
    36a4:	e5922000 	ldr	r2, [r2]
    36a8:	e3c22c02 	bic	r2, r2, #512	; 0x200
    36ac:	e5832000 	str	r2, [r3]
    36b0:	e28bd000 	add	sp, fp, #0
    36b4:	e49db004 	pop	{fp}		; (ldr fp, [sp], #4)
    36b8:	e12fff1e 	bx	lr
    36bc:	800e0074 	andhi	r0, lr, r4, ror r0
    36c0:	800e0040 	andhi	r0, lr, r0, asr #32

000036c4 <InitDebugSerial>:
    36c4:	e52db004 	push	{fp}		; (str fp, [sp, #-4]!)
    36c8:	e28db000 	add	fp, sp, #0
    36cc:	e24dd00c 	sub	sp, sp, #12
    36d0:	e59f30d8 	ldr	r3, [pc, #216]	; 37b0 <InitDebugSerial+0xec>
    36d4:	e3a02000 	mov	r2, #0
    36d8:	e5832000 	str	r2, [r3]
    36dc:	e59f30d0 	ldr	r3, [pc, #208]	; 37b4 <InitDebugSerial+0xf0>
    36e0:	e3a02103 	mov	r2, #-1073741824	; 0xc0000000
    36e4:	e5832000 	str	r2, [r3]
    36e8:	e59f30c8 	ldr	r3, [pc, #200]	; 37b8 <InitDebugSerial+0xf4>
    36ec:	e3a0260f 	mov	r2, #15728640	; 0xf00000
    36f0:	e5832000 	str	r2, [r3]
    36f4:	e59f30c0 	ldr	r3, [pc, #192]	; 37bc <InitDebugSerial+0xf8>
    36f8:	e3a02501 	mov	r2, #4194304	; 0x400000
    36fc:	e5832000 	str	r2, [r3]
    3700:	e59f30b4 	ldr	r3, [pc, #180]	; 37bc <InitDebugSerial+0xf8>
    3704:	e3a02601 	mov	r2, #1048576	; 0x100000
    3708:	e5832000 	str	r2, [r3]
    370c:	e59f20ac 	ldr	r2, [pc, #172]	; 37c0 <InitDebugSerial+0xfc>
    3710:	e59f30a8 	ldr	r3, [pc, #168]	; 37c0 <InitDebugSerial+0xfc>
    3714:	e5933000 	ldr	r3, [r3]
    3718:	e1a03823 	lsr	r3, r3, #16
    371c:	e1a03803 	lsl	r3, r3, #16
    3720:	e383300d 	orr	r3, r3, #13
    3724:	e5823000 	str	r3, [r2]
    3728:	e59f2094 	ldr	r2, [pc, #148]	; 37c4 <InitDebugSerial+0x100>
    372c:	e59f3090 	ldr	r3, [pc, #144]	; 37c4 <InitDebugSerial+0x100>
    3730:	e5933000 	ldr	r3, [r3]
    3734:	e3c33fff 	bic	r3, r3, #1020	; 0x3fc
    3738:	e3c33003 	bic	r3, r3, #3
    373c:	e3833d0d 	orr	r3, r3, #832	; 0x340
    3740:	e3833001 	orr	r3, r3, #1
    3744:	e5823000 	str	r3, [r2]
    3748:	e59f3078 	ldr	r3, [pc, #120]	; 37c8 <InitDebugSerial+0x104>
    374c:	e3a02070 	mov	r2, #112	; 0x70
    3750:	e5832000 	str	r2, [r3]
    3754:	ea000002 	b	3764 <InitDebugSerial+0xa0>
    3758:	e59f306c 	ldr	r3, [pc, #108]	; 37cc <InitDebugSerial+0x108>
    375c:	e5933000 	ldr	r3, [r3]
    3760:	e50b3008 	str	r3, [fp, #-8]
    3764:	e59f3064 	ldr	r3, [pc, #100]	; 37d0 <InitDebugSerial+0x10c>
    3768:	e5933000 	ldr	r3, [r3]
    376c:	e2033010 	and	r3, r3, #16
    3770:	e3530000 	cmp	r3, #0
    3774:	0afffff7 	beq	3758 <InitDebugSerial+0x94>
    3778:	e59f3054 	ldr	r3, [pc, #84]	; 37d4 <InitDebugSerial+0x110>
    377c:	e59f2050 	ldr	r2, [pc, #80]	; 37d4 <InitDebugSerial+0x110>
    3780:	e5922000 	ldr	r2, [r2]
    3784:	e38220f0 	orr	r2, r2, #240	; 0xf0
    3788:	e5832000 	str	r2, [r3]
    378c:	e59f3044 	ldr	r3, [pc, #68]	; 37d8 <InitDebugSerial+0x114>
    3790:	e3a02009 	mov	r2, #9
    3794:	e5832000 	str	r2, [r3]
    3798:	e59f303c 	ldr	r3, [pc, #60]	; 37dc <InitDebugSerial+0x118>
    379c:	e59f203c 	ldr	r2, [pc, #60]	; 37e0 <InitDebugSerial+0x11c>
    37a0:	e5832000 	str	r2, [r3]
    37a4:	e28bd000 	add	sp, fp, #0
    37a8:	e49db004 	pop	{fp}		; (ldr fp, [sp], #4)
    37ac:	e12fff1e 	bx	lr
    37b0:	80070038 	andhi	r0, r7, r8, lsr r0
    37b4:	80018008 	andhi	r8, r1, r8
    37b8:	80018134 	andhi	r8, r1, r4, lsr r1
    37bc:	80018138 	andhi	r8, r1, r8, lsr r1
    37c0:	80070024 	andhi	r0, r7, r4, lsr #32
    37c4:	80070028 	andhi	r0, r7, r8, lsr #32
    37c8:	8007002c 	andhi	r0, r7, ip, lsr #32
    37cc:	80070000 	andhi	r0, r7, r0
    37d0:	80070018 	andhi	r0, r7, r8, lsl r0
    37d4:	80070004 	andhi	r0, r7, r4
    37d8:	80070034 	andhi	r0, r7, r4, lsr r0
    37dc:	80070030 	andhi	r0, r7, r0, lsr r0
    37e0:	00000301 	andeq	r0, r0, r1, lsl #6

000037e4 <OEMWriteDebugByte>:
    37e4:	e52db004 	push	{fp}		; (str fp, [sp, #-4]!)
    37e8:	e28db000 	add	fp, sp, #0
    37ec:	e24dd014 	sub	sp, sp, #20
    37f0:	e1a03000 	mov	r3, r0
    37f4:	e54b300d 	strb	r3, [fp, #-13]
    37f8:	e3a03000 	mov	r3, #0
    37fc:	e50b3008 	str	r3, [fp, #-8]
    3800:	ea000002 	b	3810 <OEMWriteDebugByte+0x2c>
    3804:	e51b3008 	ldr	r3, [fp, #-8]
    3808:	e2833001 	add	r3, r3, #1
    380c:	e50b3008 	str	r3, [fp, #-8]
    3810:	e59f3048 	ldr	r3, [pc, #72]	; 3860 <OEMWriteDebugByte+0x7c>
    3814:	e5933000 	ldr	r3, [r3]
    3818:	e2033020 	and	r3, r3, #32
    381c:	e3530000 	cmp	r3, #0
    3820:	0a000003 	beq	3834 <OEMWriteDebugByte+0x50>
    3824:	e51b2008 	ldr	r2, [fp, #-8]
    3828:	e59f3034 	ldr	r3, [pc, #52]	; 3864 <OEMWriteDebugByte+0x80>
    382c:	e1520003 	cmp	r2, r3
    3830:	9afffff3 	bls	3804 <OEMWriteDebugByte+0x20>
    3834:	e59f3024 	ldr	r3, [pc, #36]	; 3860 <OEMWriteDebugByte+0x7c>
    3838:	e5933000 	ldr	r3, [r3]
    383c:	e2033020 	and	r3, r3, #32
    3840:	e3530000 	cmp	r3, #0
    3844:	1a000002 	bne	3854 <OEMWriteDebugByte+0x70>
    3848:	e59f3018 	ldr	r3, [pc, #24]	; 3868 <OEMWriteDebugByte+0x84>
    384c:	e55b200d 	ldrb	r2, [fp, #-13]
    3850:	e5c32000 	strb	r2, [r3]
    3854:	e28bd000 	add	sp, fp, #0
    3858:	e49db004 	pop	{fp}		; (ldr fp, [sp], #4)
    385c:	e12fff1e 	bx	lr
    3860:	80070018 	andhi	r0, r7, r8, lsl r0
    3864:	00007ffe 	strdeq	r7, [r0], -lr
    3868:	80070000 	andhi	r0, r7, r0

0000386c <InitPower>:
    386c:	e92d4800 	push	{fp, lr}
    3870:	e28db004 	add	fp, sp, #4
    3874:	e24dd010 	sub	sp, sp, #16
    3878:	e3a03000 	mov	r3, #0
    387c:	e50b3008 	str	r3, [fp, #-8]
    3880:	e3a03000 	mov	r3, #0
    3884:	e50b300c 	str	r3, [fp, #-12]
    3888:	e3a03000 	mov	r3, #0
    388c:	e50b3010 	str	r3, [fp, #-16]
    3890:	e3a03000 	mov	r3, #0
    3894:	e50b3014 	str	r3, [fp, #-20]	; 0xffffffec
    3898:	e59f3694 	ldr	r3, [pc, #1684]	; 3f34 <InitPower+0x6c8>
    389c:	e3a02000 	mov	r2, #0
    38a0:	e5832000 	str	r2, [r3]
    38a4:	e59f368c 	ldr	r3, [pc, #1676]	; 3f38 <InitPower+0x6cc>
    38a8:	e3a02000 	mov	r2, #0
    38ac:	e5832000 	str	r2, [r3]
    38b0:	e59f3684 	ldr	r3, [pc, #1668]	; 3f3c <InitPower+0x6d0>
    38b4:	e3a02000 	mov	r2, #0
    38b8:	e5832000 	str	r2, [r3]
    38bc:	e59f367c 	ldr	r3, [pc, #1660]	; 3f40 <InitPower+0x6d4>
    38c0:	e59f2678 	ldr	r2, [pc, #1656]	; 3f40 <InitPower+0x6d4>
    38c4:	e5922000 	ldr	r2, [r2]
    38c8:	e3c2201f 	bic	r2, r2, #31
    38cc:	e382200c 	orr	r2, r2, #12
    38d0:	e5832000 	str	r2, [r3]
    38d4:	e3a0000f 	mov	r0, #15
    38d8:	eb000348 	bl	4600 <OALStall>
    38dc:	e1a00000 	nop			; (mov r0, r0)
    38e0:	e59f365c 	ldr	r3, [pc, #1628]	; 3f44 <InitPower+0x6d8>
    38e4:	e5933000 	ldr	r3, [r3]
    38e8:	e2033c02 	and	r3, r3, #512	; 0x200
    38ec:	e3530000 	cmp	r3, #0
    38f0:	0afffffa 	beq	38e0 <InitPower+0x74>
    38f4:	e59f3644 	ldr	r3, [pc, #1604]	; 3f40 <InitPower+0x6d4>
    38f8:	e59f2640 	ldr	r2, [pc, #1600]	; 3f40 <InitPower+0x6d4>
    38fc:	e5922000 	ldr	r2, [r2]
    3900:	e3c22c07 	bic	r2, r2, #1792	; 0x700
    3904:	e3822b01 	orr	r2, r2, #1024	; 0x400
    3908:	e5832000 	str	r2, [r3]
    390c:	e59f3634 	ldr	r3, [pc, #1588]	; 3f48 <InitPower+0x6dc>
    3910:	e59f2630 	ldr	r2, [pc, #1584]	; 3f48 <InitPower+0x6dc>
    3914:	e5922000 	ldr	r2, [r2]
    3918:	e3c2201f 	bic	r2, r2, #31
    391c:	e3822014 	orr	r2, r2, #20
    3920:	e5832000 	str	r2, [r3]
    3924:	e3a0000f 	mov	r0, #15
    3928:	eb000334 	bl	4600 <OALStall>
    392c:	e1a00000 	nop			; (mov r0, r0)
    3930:	e59f360c 	ldr	r3, [pc, #1548]	; 3f44 <InitPower+0x6d8>
    3934:	e5933000 	ldr	r3, [r3]
    3938:	e2033c02 	and	r3, r3, #512	; 0x200
    393c:	e3530000 	cmp	r3, #0
    3940:	0afffffa 	beq	3930 <InitPower+0xc4>
    3944:	e59f35fc 	ldr	r3, [pc, #1532]	; 3f48 <InitPower+0x6dc>
    3948:	e59f25f8 	ldr	r2, [pc, #1528]	; 3f48 <InitPower+0x6dc>
    394c:	e5922000 	ldr	r2, [r2]
    3950:	e3c22c07 	bic	r2, r2, #1792	; 0x700
    3954:	e3822b01 	orr	r2, r2, #1024	; 0x400
    3958:	e5832000 	str	r2, [r3]
    395c:	e59f35e8 	ldr	r3, [pc, #1512]	; 3f4c <InitPower+0x6e0>
    3960:	e5933000 	ldr	r3, [r3]
    3964:	e2033002 	and	r3, r3, #2
    3968:	e3530000 	cmp	r3, #0
    396c:	1a000002 	bne	397c <InitPower+0x110>
    3970:	e59f35d8 	ldr	r3, [pc, #1496]	; 3f50 <InitPower+0x6e4>
    3974:	e3a02002 	mov	r2, #2
    3978:	e5832000 	str	r2, [r3]
    397c:	e59f35d0 	ldr	r3, [pc, #1488]	; 3f54 <InitPower+0x6e8>
    3980:	e5933000 	ldr	r3, [r3]
    3984:	e59f35c8 	ldr	r3, [pc, #1480]	; 3f54 <InitPower+0x6e8>
    3988:	e5933000 	ldr	r3, [r3]
    398c:	e59f35c4 	ldr	r3, [pc, #1476]	; 3f58 <InitPower+0x6ec>
    3990:	e3a02010 	mov	r2, #16
    3994:	e5832000 	str	r2, [r3]
    3998:	e59f35bc 	ldr	r3, [pc, #1468]	; 3f5c <InitPower+0x6f0>
    399c:	e3a02101 	mov	r2, #1073741824	; 0x40000000
    39a0:	e5832000 	str	r2, [r3]
    39a4:	e59f35b0 	ldr	r3, [pc, #1456]	; 3f5c <InitPower+0x6f0>
    39a8:	e3a02102 	mov	r2, #-2147483648	; 0x80000000
    39ac:	e5832000 	str	r2, [r3]
    39b0:	e59f35a8 	ldr	r3, [pc, #1448]	; 3f60 <InitPower+0x6f4>
    39b4:	e3a02802 	mov	r2, #131072	; 0x20000
    39b8:	e5832000 	str	r2, [r3]
    39bc:	e59f359c 	ldr	r3, [pc, #1436]	; 3f60 <InitPower+0x6f4>
    39c0:	e3a02601 	mov	r2, #1048576	; 0x100000
    39c4:	e5832000 	str	r2, [r3]
    39c8:	e59f3594 	ldr	r3, [pc, #1428]	; 3f64 <InitPower+0x6f8>
    39cc:	e3e02000 	mvn	r2, #0
    39d0:	e5832000 	str	r2, [r3]
    39d4:	e59f358c 	ldr	r3, [pc, #1420]	; 3f68 <InitPower+0x6fc>
    39d8:	e3a02502 	mov	r2, #8388608	; 0x800000
    39dc:	e5832000 	str	r2, [r3]
    39e0:	e59f3584 	ldr	r3, [pc, #1412]	; 3f6c <InitPower+0x700>
    39e4:	e3a02080 	mov	r2, #128	; 0x80
    39e8:	e5832000 	str	r2, [r3]
    39ec:	ea000001 	b	39f8 <InitPower+0x18c>
    39f0:	e3a0002e 	mov	r0, #46	; 0x2e
    39f4:	ebffff7a 	bl	37e4 <OEMWriteDebugByte>
    39f8:	e59f3570 	ldr	r3, [pc, #1392]	; 3f70 <InitPower+0x704>
    39fc:	e5933000 	ldr	r3, [r3]
    3a00:	e2033080 	and	r3, r3, #128	; 0x80
    3a04:	e3530000 	cmp	r3, #0
    3a08:	0afffff8 	beq	39f0 <InitPower+0x184>
    3a0c:	e59f3560 	ldr	r3, [pc, #1376]	; 3f74 <InitPower+0x708>
    3a10:	e5933000 	ldr	r3, [r3]
    3a14:	e2033040 	and	r3, r3, #64	; 0x40
    3a18:	e3530000 	cmp	r3, #0
    3a1c:	0a000002 	beq	3a2c <InitPower+0x1c0>
    3a20:	e59f3510 	ldr	r3, [pc, #1296]	; 3f38 <InitPower+0x6cc>
    3a24:	e3a02001 	mov	r2, #1
    3a28:	e5832000 	str	r2, [r3]
    3a2c:	e59f3544 	ldr	r3, [pc, #1348]	; 3f78 <InitPower+0x70c>
    3a30:	e3a02010 	mov	r2, #16
    3a34:	e5832000 	str	r2, [r3]
    3a38:	e59f3504 	ldr	r3, [pc, #1284]	; 3f44 <InitPower+0x6d8>
    3a3c:	e5933000 	ldr	r3, [r3]
    3a40:	e1a030a3 	lsr	r3, r3, #1
    3a44:	e2033001 	and	r3, r3, #1
    3a48:	e20330ff 	and	r3, r3, #255	; 0xff
    3a4c:	e1a02003 	mov	r2, r3
    3a50:	e59f34e4 	ldr	r3, [pc, #1252]	; 3f3c <InitPower+0x6d0>
    3a54:	e5832000 	str	r2, [r3]
    3a58:	e59f351c 	ldr	r3, [pc, #1308]	; 3f7c <InitPower+0x710>
    3a5c:	e5933000 	ldr	r3, [r3]
    3a60:	e1a03823 	lsr	r3, r3, #16
    3a64:	e1a03b03 	lsl	r3, r3, #22
    3a68:	e1a03b23 	lsr	r3, r3, #22
    3a6c:	e1a03803 	lsl	r3, r3, #16
    3a70:	e1a03823 	lsr	r3, r3, #16
    3a74:	e1a03183 	lsl	r3, r3, #3
    3a78:	e50b3010 	str	r3, [fp, #-16]
    3a7c:	e3a0000d 	mov	r0, #13
    3a80:	ebffff57 	bl	37e4 <OEMWriteDebugByte>
    3a84:	e3a0000a 	mov	r0, #10
    3a88:	ebffff55 	bl	37e4 <OEMWriteDebugByte>
    3a8c:	e3a00042 	mov	r0, #66	; 0x42
    3a90:	ebffff53 	bl	37e4 <OEMWriteDebugByte>
    3a94:	e3a00041 	mov	r0, #65	; 0x41
    3a98:	ebffff51 	bl	37e4 <OEMWriteDebugByte>
    3a9c:	e3a00054 	mov	r0, #84	; 0x54
    3aa0:	ebffff4f 	bl	37e4 <OEMWriteDebugByte>
    3aa4:	e3a00054 	mov	r0, #84	; 0x54
    3aa8:	ebffff4d 	bl	37e4 <OEMWriteDebugByte>
    3aac:	e3a0003a 	mov	r0, #58	; 0x3a
    3ab0:	ebffff4b 	bl	37e4 <OEMWriteDebugByte>
    3ab4:	e51b0010 	ldr	r0, [fp, #-16]
    3ab8:	eb0001fb 	bl	42ac <PrintBatteryVoltage>
    3abc:	e3a0000d 	mov	r0, #13
    3ac0:	ebffff47 	bl	37e4 <OEMWriteDebugByte>
    3ac4:	e3a0000a 	mov	r0, #10
    3ac8:	ebffff45 	bl	37e4 <OEMWriteDebugByte>
    3acc:	e51b2010 	ldr	r2, [fp, #-16]
    3ad0:	e59f34a8 	ldr	r3, [pc, #1192]	; 3f80 <InitPower+0x714>
    3ad4:	e1520003 	cmp	r2, r3
    3ad8:	9a000002 	bls	3ae8 <InitPower+0x27c>
    3adc:	e59f3450 	ldr	r3, [pc, #1104]	; 3f34 <InitPower+0x6c8>
    3ae0:	e3a02001 	mov	r2, #1
    3ae4:	e5832000 	str	r2, [r3]
    3ae8:	e59f3444 	ldr	r3, [pc, #1092]	; 3f34 <InitPower+0x6c8>
    3aec:	e5933000 	ldr	r3, [r3]
    3af0:	e3530001 	cmp	r3, #1
    3af4:	1a000005 	bne	3b10 <InitPower+0x2a4>
    3af8:	e3a00042 	mov	r0, #66	; 0x42
    3afc:	ebffff38 	bl	37e4 <OEMWriteDebugByte>
    3b00:	e3a0000d 	mov	r0, #13
    3b04:	ebffff36 	bl	37e4 <OEMWriteDebugByte>
    3b08:	e3a0000a 	mov	r0, #10
    3b0c:	ebffff34 	bl	37e4 <OEMWriteDebugByte>
    3b10:	e59f3420 	ldr	r3, [pc, #1056]	; 3f38 <InitPower+0x6cc>
    3b14:	e5933000 	ldr	r3, [r3]
    3b18:	e3530001 	cmp	r3, #1
    3b1c:	1a000005 	bne	3b38 <InitPower+0x2cc>
    3b20:	e3a00055 	mov	r0, #85	; 0x55
    3b24:	ebffff2e 	bl	37e4 <OEMWriteDebugByte>
    3b28:	e3a0000d 	mov	r0, #13
    3b2c:	ebffff2c 	bl	37e4 <OEMWriteDebugByte>
    3b30:	e3a0000a 	mov	r0, #10
    3b34:	ebffff2a 	bl	37e4 <OEMWriteDebugByte>
    3b38:	e59f33fc 	ldr	r3, [pc, #1020]	; 3f3c <InitPower+0x6d0>
    3b3c:	e5933000 	ldr	r3, [r3]
    3b40:	e3530001 	cmp	r3, #1
    3b44:	1a000005 	bne	3b60 <InitPower+0x2f4>
    3b48:	e3a00035 	mov	r0, #53	; 0x35
    3b4c:	ebffff24 	bl	37e4 <OEMWriteDebugByte>
    3b50:	e3a0000d 	mov	r0, #13
    3b54:	ebffff22 	bl	37e4 <OEMWriteDebugByte>
    3b58:	e3a0000a 	mov	r0, #10
    3b5c:	ebffff20 	bl	37e4 <OEMWriteDebugByte>
    3b60:	e59f33d0 	ldr	r3, [pc, #976]	; 3f38 <InitPower+0x6cc>
    3b64:	e5933000 	ldr	r3, [r3]
    3b68:	e3530001 	cmp	r3, #1
    3b6c:	1a000005 	bne	3b88 <InitPower+0x31c>
    3b70:	e59f340c 	ldr	r3, [pc, #1036]	; 3f84 <InitPower+0x718>
    3b74:	e3a02a37 	mov	r2, #225280	; 0x37000
    3b78:	e5832000 	str	r2, [r3]
    3b7c:	e59f33cc 	ldr	r3, [pc, #972]	; 3f50 <InitPower+0x6e4>
    3b80:	e3a02902 	mov	r2, #32768	; 0x8000
    3b84:	e5832000 	str	r2, [r3]
    3b88:	e59f33a4 	ldr	r3, [pc, #932]	; 3f34 <InitPower+0x6c8>
    3b8c:	e5933000 	ldr	r3, [r3]
    3b90:	e3530001 	cmp	r3, #1
    3b94:	1a000021 	bne	3c20 <InitPower+0x3b4>
    3b98:	eb000232 	bl	4468 <PowerExecute5VoltsToBatteryHandoff>
    3b9c:	e59f33e4 	ldr	r3, [pc, #996]	; 3f88 <InitPower+0x71c>
    3ba0:	e3a02020 	mov	r2, #32
    3ba4:	e5832000 	str	r2, [r3]
    3ba8:	e59f33dc 	ldr	r3, [pc, #988]	; 3f8c <InitPower+0x720>
    3bac:	e3a02040 	mov	r2, #64	; 0x40
    3bb0:	e5832000 	str	r2, [r3]
    3bb4:	e59f338c 	ldr	r3, [pc, #908]	; 3f48 <InitPower+0x6dc>
    3bb8:	e59f2388 	ldr	r2, [pc, #904]	; 3f48 <InitPower+0x6dc>
    3bbc:	e5922000 	ldr	r2, [r2]
    3bc0:	e3822a02 	orr	r2, r2, #8192	; 0x2000
    3bc4:	e5832000 	str	r2, [r3]
    3bc8:	e59f3370 	ldr	r3, [pc, #880]	; 3f40 <InitPower+0x6d4>
    3bcc:	e59f236c 	ldr	r2, [pc, #876]	; 3f40 <InitPower+0x6d4>
    3bd0:	e5922000 	ldr	r2, [r2]
    3bd4:	e3822a02 	orr	r2, r2, #8192	; 0x2000
    3bd8:	e5832000 	str	r2, [r3]
    3bdc:	e59f33ac 	ldr	r3, [pc, #940]	; 3f90 <InitPower+0x724>
    3be0:	e59f23a8 	ldr	r2, [pc, #936]	; 3f90 <InitPower+0x724>
    3be4:	e5922000 	ldr	r2, [r2]
    3be8:	e3822802 	orr	r2, r2, #131072	; 0x20000
    3bec:	e5832000 	str	r2, [r3]
    3bf0:	e59f3398 	ldr	r3, [pc, #920]	; 3f90 <InitPower+0x724>
    3bf4:	e59f2394 	ldr	r2, [pc, #916]	; 3f90 <InitPower+0x724>
    3bf8:	e5922000 	ldr	r2, [r2]
    3bfc:	e3c22601 	bic	r2, r2, #1048576	; 0x100000
    3c00:	e5832000 	str	r2, [r3]
    3c04:	e59f3344 	ldr	r3, [pc, #836]	; 3f50 <InitPower+0x6e4>
    3c08:	e3a02601 	mov	r2, #1048576	; 0x100000
    3c0c:	e5832000 	str	r2, [r3]
    3c10:	e59f3338 	ldr	r3, [pc, #824]	; 3f50 <InitPower+0x6e4>
    3c14:	e3a02001 	mov	r2, #1
    3c18:	e5832000 	str	r2, [r3]
    3c1c:	eb000297 	bl	4680 <TurnOnPLLClock>
    3c20:	e59f3310 	ldr	r3, [pc, #784]	; 3f38 <InitPower+0x6cc>
    3c24:	e5933000 	ldr	r3, [r3]
    3c28:	e3530001 	cmp	r3, #1
    3c2c:	1a0000be 	bne	3f2c <InitPower+0x6c0>
    3c30:	e59f32fc 	ldr	r3, [pc, #764]	; 3f34 <InitPower+0x6c8>
    3c34:	e5933000 	ldr	r3, [r3]
    3c38:	e3530000 	cmp	r3, #0
    3c3c:	1a0000ba 	bne	3f2c <InitPower+0x6c0>
    3c40:	e59f32f4 	ldr	r3, [pc, #756]	; 3f3c <InitPower+0x6d0>
    3c44:	e5933000 	ldr	r3, [r3]
    3c48:	e3530001 	cmp	r3, #1
    3c4c:	1a0000b6 	bne	3f2c <InitPower+0x6c0>
    3c50:	e3a00004 	mov	r0, #4
    3c54:	eb000238 	bl	453c <PowerSetCharger>
    3c58:	e3a00063 	mov	r0, #99	; 0x63
    3c5c:	ebfffee0 	bl	37e4 <OEMWriteDebugByte>
    3c60:	e3a00068 	mov	r0, #104	; 0x68
    3c64:	ebfffede 	bl	37e4 <OEMWriteDebugByte>
    3c68:	e3a00061 	mov	r0, #97	; 0x61
    3c6c:	ebfffedc 	bl	37e4 <OEMWriteDebugByte>
    3c70:	e3a00072 	mov	r0, #114	; 0x72
    3c74:	ebfffeda 	bl	37e4 <OEMWriteDebugByte>
    3c78:	e3a00067 	mov	r0, #103	; 0x67
    3c7c:	ebfffed8 	bl	37e4 <OEMWriteDebugByte>
    3c80:	e3a00069 	mov	r0, #105	; 0x69
    3c84:	ebfffed6 	bl	37e4 <OEMWriteDebugByte>
    3c88:	e3a0006e 	mov	r0, #110	; 0x6e
    3c8c:	ebfffed4 	bl	37e4 <OEMWriteDebugByte>
    3c90:	e3a00067 	mov	r0, #103	; 0x67
    3c94:	ebfffed2 	bl	37e4 <OEMWriteDebugByte>
    3c98:	e3a0002e 	mov	r0, #46	; 0x2e
    3c9c:	ebfffed0 	bl	37e4 <OEMWriteDebugByte>
    3ca0:	e3a0002e 	mov	r0, #46	; 0x2e
    3ca4:	ebfffece 	bl	37e4 <OEMWriteDebugByte>
    3ca8:	e3a0002e 	mov	r0, #46	; 0x2e
    3cac:	ebfffecc 	bl	37e4 <OEMWriteDebugByte>
    3cb0:	e3a00020 	mov	r0, #32
    3cb4:	ebfffeca 	bl	37e4 <OEMWriteDebugByte>
    3cb8:	e3a00028 	mov	r0, #40	; 0x28
    3cbc:	ebfffec8 	bl	37e4 <OEMWriteDebugByte>
    3cc0:	e3a00033 	mov	r0, #51	; 0x33
    3cc4:	ebfffec6 	bl	37e4 <OEMWriteDebugByte>
    3cc8:	e3a0002e 	mov	r0, #46	; 0x2e
    3ccc:	ebfffec4 	bl	37e4 <OEMWriteDebugByte>
    3cd0:	e3a00034 	mov	r0, #52	; 0x34
    3cd4:	ebfffec2 	bl	37e4 <OEMWriteDebugByte>
    3cd8:	e3a00056 	mov	r0, #86	; 0x56
    3cdc:	ebfffec0 	bl	37e4 <OEMWriteDebugByte>
    3ce0:	e3a00029 	mov	r0, #41	; 0x29
    3ce4:	ebfffebe 	bl	37e4 <OEMWriteDebugByte>
    3ce8:	e3a0000d 	mov	r0, #13
    3cec:	ebfffebc 	bl	37e4 <OEMWriteDebugByte>
    3cf0:	e3a0000a 	mov	r0, #10
    3cf4:	ebfffeba 	bl	37e4 <OEMWriteDebugByte>
    3cf8:	e3a03000 	mov	r3, #0
    3cfc:	e50b3008 	str	r3, [fp, #-8]
    3d00:	ea000064 	b	3e98 <InitPower+0x62c>
    3d04:	eb000229 	bl	45b0 <PowerStopCharger>
    3d08:	e59f3284 	ldr	r3, [pc, #644]	; 3f94 <InitPower+0x728>
    3d0c:	e5933000 	ldr	r3, [r3]
    3d10:	e50b3014 	str	r3, [fp, #-20]	; 0xffffffec
    3d14:	e1a00000 	nop			; (mov r0, r0)
    3d18:	e59f3274 	ldr	r3, [pc, #628]	; 3f94 <InitPower+0x728>
    3d1c:	e5932000 	ldr	r2, [r3]
    3d20:	e51b3014 	ldr	r3, [fp, #-20]	; 0xffffffec
    3d24:	e0632002 	rsb	r2, r3, r2
    3d28:	e59f3268 	ldr	r3, [pc, #616]	; 3f98 <InitPower+0x72c>
    3d2c:	e1520003 	cmp	r2, r3
    3d30:	9afffff8 	bls	3d18 <InitPower+0x4ac>
    3d34:	e59f3230 	ldr	r3, [pc, #560]	; 3f6c <InitPower+0x700>
    3d38:	e3a02080 	mov	r2, #128	; 0x80
    3d3c:	e5832000 	str	r2, [r3]
    3d40:	e1a00000 	nop			; (mov r0, r0)
    3d44:	e59f3224 	ldr	r3, [pc, #548]	; 3f70 <InitPower+0x704>
    3d48:	e5933000 	ldr	r3, [r3]
    3d4c:	e2033080 	and	r3, r3, #128	; 0x80
    3d50:	e3530000 	cmp	r3, #0
    3d54:	0afffffa 	beq	3d44 <InitPower+0x4d8>
    3d58:	e59f321c 	ldr	r3, [pc, #540]	; 3f7c <InitPower+0x710>
    3d5c:	e5933000 	ldr	r3, [r3]
    3d60:	e1a03823 	lsr	r3, r3, #16
    3d64:	e1a03b03 	lsl	r3, r3, #22
    3d68:	e1a03b23 	lsr	r3, r3, #22
    3d6c:	e1a03803 	lsl	r3, r3, #16
    3d70:	e1a03823 	lsr	r3, r3, #16
    3d74:	e1a03183 	lsl	r3, r3, #3
    3d78:	e50b3010 	str	r3, [fp, #-16]
    3d7c:	e3a0000d 	mov	r0, #13
    3d80:	ebfffe97 	bl	37e4 <OEMWriteDebugByte>
    3d84:	e3a00042 	mov	r0, #66	; 0x42
    3d88:	ebfffe95 	bl	37e4 <OEMWriteDebugByte>
    3d8c:	e3a00041 	mov	r0, #65	; 0x41
    3d90:	ebfffe93 	bl	37e4 <OEMWriteDebugByte>
    3d94:	e3a00054 	mov	r0, #84	; 0x54
    3d98:	ebfffe91 	bl	37e4 <OEMWriteDebugByte>
    3d9c:	e3a00054 	mov	r0, #84	; 0x54
    3da0:	ebfffe8f 	bl	37e4 <OEMWriteDebugByte>
    3da4:	e3a0003a 	mov	r0, #58	; 0x3a
    3da8:	ebfffe8d 	bl	37e4 <OEMWriteDebugByte>
    3dac:	e51b0010 	ldr	r0, [fp, #-16]
    3db0:	eb00013d 	bl	42ac <PrintBatteryVoltage>
    3db4:	e3a00020 	mov	r0, #32
    3db8:	ebfffe89 	bl	37e4 <OEMWriteDebugByte>
    3dbc:	e3a00020 	mov	r0, #32
    3dc0:	ebfffe87 	bl	37e4 <OEMWriteDebugByte>
    3dc4:	e3a00020 	mov	r0, #32
    3dc8:	ebfffe85 	bl	37e4 <OEMWriteDebugByte>
    3dcc:	e59f3188 	ldr	r3, [pc, #392]	; 3f5c <InitPower+0x6f0>
    3dd0:	e3a02080 	mov	r2, #128	; 0x80
    3dd4:	e5832000 	str	r2, [r3]
    3dd8:	e3a00004 	mov	r0, #4
    3ddc:	eb0001d6 	bl	453c <PowerSetCharger>
    3de0:	e3a03000 	mov	r3, #0
    3de4:	e50b300c 	str	r3, [fp, #-12]
    3de8:	ea000017 	b	3e4c <InitPower+0x5e0>
    3dec:	e3a0002d 	mov	r0, #45	; 0x2d
    3df0:	ebfffe7b 	bl	37e4 <OEMWriteDebugByte>
    3df4:	e3a00008 	mov	r0, #8
    3df8:	ebfffe79 	bl	37e4 <OEMWriteDebugByte>
    3dfc:	e59f0198 	ldr	r0, [pc, #408]	; 3f9c <InitPower+0x730>
    3e00:	eb0001fe 	bl	4600 <OALStall>
    3e04:	e3a0005c 	mov	r0, #92	; 0x5c
    3e08:	ebfffe75 	bl	37e4 <OEMWriteDebugByte>
    3e0c:	e3a00008 	mov	r0, #8
    3e10:	ebfffe73 	bl	37e4 <OEMWriteDebugByte>
    3e14:	e59f0180 	ldr	r0, [pc, #384]	; 3f9c <InitPower+0x730>
    3e18:	eb0001f8 	bl	4600 <OALStall>
    3e1c:	e3a0007c 	mov	r0, #124	; 0x7c
    3e20:	ebfffe6f 	bl	37e4 <OEMWriteDebugByte>
    3e24:	e3a00008 	mov	r0, #8
    3e28:	ebfffe6d 	bl	37e4 <OEMWriteDebugByte>
    3e2c:	e59f0168 	ldr	r0, [pc, #360]	; 3f9c <InitPower+0x730>
    3e30:	eb0001f2 	bl	4600 <OALStall>
    3e34:	e3a0002f 	mov	r0, #47	; 0x2f
    3e38:	ebfffe69 	bl	37e4 <OEMWriteDebugByte>
    3e3c:	e3a00008 	mov	r0, #8
    3e40:	ebfffe67 	bl	37e4 <OEMWriteDebugByte>
    3e44:	e59f0150 	ldr	r0, [pc, #336]	; 3f9c <InitPower+0x730>
    3e48:	eb0001ec 	bl	4600 <OALStall>
    3e4c:	e51b300c 	ldr	r3, [fp, #-12]
    3e50:	e3530018 	cmp	r3, #24
    3e54:	83a03000 	movhi	r3, #0
    3e58:	93a03001 	movls	r3, #1
    3e5c:	e20330ff 	and	r3, r3, #255	; 0xff
    3e60:	e51b200c 	ldr	r2, [fp, #-12]
    3e64:	e2822001 	add	r2, r2, #1
    3e68:	e50b200c 	str	r2, [fp, #-12]
    3e6c:	e3530000 	cmp	r3, #0
    3e70:	1affffdd 	bne	3dec <InitPower+0x580>
    3e74:	e51b2010 	ldr	r2, [fp, #-16]
    3e78:	e59f3120 	ldr	r3, [pc, #288]	; 3fa0 <InitPower+0x734>
    3e7c:	e1520003 	cmp	r2, r3
    3e80:	9affff9f 	bls	3d04 <InitPower+0x498>
    3e84:	e51b3008 	ldr	r3, [fp, #-8]
    3e88:	e2833001 	add	r3, r3, #1
    3e8c:	e50b3008 	str	r3, [fp, #-8]
    3e90:	e3a03000 	mov	r3, #0
    3e94:	e50b3010 	str	r3, [fp, #-16]
    3e98:	e51b3008 	ldr	r3, [fp, #-8]
    3e9c:	e3530001 	cmp	r3, #1
    3ea0:	9afffff3 	bls	3e74 <InitPower+0x608>
    3ea4:	eb00016f 	bl	4468 <PowerExecute5VoltsToBatteryHandoff>
    3ea8:	e59f30d8 	ldr	r3, [pc, #216]	; 3f88 <InitPower+0x71c>
    3eac:	e3a02020 	mov	r2, #32
    3eb0:	e5832000 	str	r2, [r3]
    3eb4:	e59f30d0 	ldr	r3, [pc, #208]	; 3f8c <InitPower+0x720>
    3eb8:	e3a02040 	mov	r2, #64	; 0x40
    3ebc:	e5832000 	str	r2, [r3]
    3ec0:	e59f3080 	ldr	r3, [pc, #128]	; 3f48 <InitPower+0x6dc>
    3ec4:	e59f207c 	ldr	r2, [pc, #124]	; 3f48 <InitPower+0x6dc>
    3ec8:	e5922000 	ldr	r2, [r2]
    3ecc:	e3822a02 	orr	r2, r2, #8192	; 0x2000
    3ed0:	e5832000 	str	r2, [r3]
    3ed4:	e59f3064 	ldr	r3, [pc, #100]	; 3f40 <InitPower+0x6d4>
    3ed8:	e59f2060 	ldr	r2, [pc, #96]	; 3f40 <InitPower+0x6d4>
    3edc:	e5922000 	ldr	r2, [r2]
    3ee0:	e3822a02 	orr	r2, r2, #8192	; 0x2000
    3ee4:	e5832000 	str	r2, [r3]
    3ee8:	e59f30a0 	ldr	r3, [pc, #160]	; 3f90 <InitPower+0x724>
    3eec:	e59f209c 	ldr	r2, [pc, #156]	; 3f90 <InitPower+0x724>
    3ef0:	e5922000 	ldr	r2, [r2]
    3ef4:	e3822802 	orr	r2, r2, #131072	; 0x20000
    3ef8:	e5832000 	str	r2, [r3]
    3efc:	e59f308c 	ldr	r3, [pc, #140]	; 3f90 <InitPower+0x724>
    3f00:	e59f2088 	ldr	r2, [pc, #136]	; 3f90 <InitPower+0x724>
    3f04:	e5922000 	ldr	r2, [r2]
    3f08:	e3c22601 	bic	r2, r2, #1048576	; 0x100000
    3f0c:	e5832000 	str	r2, [r3]
    3f10:	e59f3038 	ldr	r3, [pc, #56]	; 3f50 <InitPower+0x6e4>
    3f14:	e3a02601 	mov	r2, #1048576	; 0x100000
    3f18:	e5832000 	str	r2, [r3]
    3f1c:	e59f302c 	ldr	r3, [pc, #44]	; 3f50 <InitPower+0x6e4>
    3f20:	e3a02001 	mov	r2, #1
    3f24:	e5832000 	str	r2, [r3]
    3f28:	eb0001d4 	bl	4680 <TurnOnPLLClock>
    3f2c:	e24bd004 	sub	sp, fp, #4
    3f30:	e8bd8800 	pop	{fp, pc}
    3f34:	00006118 	andeq	r6, r0, r8, lsl r1
    3f38:	00006114 	andeq	r6, r0, r4, lsl r1
    3f3c:	00006110 	andeq	r6, r0, r0, lsl r1
    3f40:	80044050 	andhi	r4, r4, r0, asr r0
    3f44:	800440c0 	andhi	r4, r4, r0, asr #1
    3f48:	80044060 	andhi	r4, r4, r0, rrx
    3f4c:	80044010 	andhi	r4, r4, r0, lsl r0
    3f50:	80044014 	andhi	r4, r4, r4, lsl r0
    3f54:	8007c030 	andhi	ip, r7, r0, lsr r0
    3f58:	8007c034 	andhi	ip, r7, r4, lsr r0
    3f5c:	80050008 	andhi	r0, r5, r8
    3f60:	80050134 	andhi	r0, r5, r4, lsr r1
    3f64:	800500c8 	andhi	r0, r5, r8, asr #1
    3f68:	80050014 	andhi	r0, r5, r4, lsl r0
    3f6c:	80050004 	andhi	r0, r5, r4
    3f70:	80050010 	andhi	r0, r5, r0, lsl r0
    3f74:	8007c040 	andhi	ip, r7, r0, asr #32
    3f78:	8007c038 	andhi	ip, r7, r8, lsr r0
    3f7c:	800440e0 	andhi	r4, r4, r0, ror #1
    3f80:	00000d48 	andeq	r0, r0, r8, asr #26
    3f84:	80044018 	andhi	r4, r4, r8, lsl r0
    3f88:	80044028 	andhi	r4, r4, r8, lsr #32
    3f8c:	80044024 	andhi	r4, r4, r4, lsr #32
    3f90:	80044040 	andhi	r4, r4, r0, asr #32
    3f94:	8001c0c0 	andhi	ip, r1, r0, asr #1
    3f98:	0007a11f 	andeq	sl, r7, pc, lsl r1
    3f9c:	000186a0 	andeq	r8, r1, r0, lsr #13
    3fa0:	00000d47 	andeq	r0, r0, r7, asr #26

00003fa4 <PrintHex>:
    3fa4:	e92d4800 	push	{fp, lr}
    3fa8:	e28db004 	add	fp, sp, #4
    3fac:	e24dd008 	sub	sp, sp, #8
    3fb0:	e50b0008 	str	r0, [fp, #-8]
    3fb4:	e3a00030 	mov	r0, #48	; 0x30
    3fb8:	ebfffe09 	bl	37e4 <OEMWriteDebugByte>
    3fbc:	e3a00078 	mov	r0, #120	; 0x78
    3fc0:	ebfffe07 	bl	37e4 <OEMWriteDebugByte>
    3fc4:	e51b3008 	ldr	r3, [fp, #-8]
    3fc8:	e1a03e23 	lsr	r3, r3, #28
    3fcc:	e20330ff 	and	r3, r3, #255	; 0xff
    3fd0:	e3530009 	cmp	r3, #9
    3fd4:	8a000007 	bhi	3ff8 <PrintHex+0x54>
    3fd8:	e51b3008 	ldr	r3, [fp, #-8]
    3fdc:	e1a03e23 	lsr	r3, r3, #28
    3fe0:	e20330ff 	and	r3, r3, #255	; 0xff
    3fe4:	e2833030 	add	r3, r3, #48	; 0x30
    3fe8:	e20330ff 	and	r3, r3, #255	; 0xff
    3fec:	e1a00003 	mov	r0, r3
    3ff0:	ebfffdfb 	bl	37e4 <OEMWriteDebugByte>
    3ff4:	ea000006 	b	4014 <PrintHex+0x70>
    3ff8:	e51b3008 	ldr	r3, [fp, #-8]
    3ffc:	e1a03e23 	lsr	r3, r3, #28
    4000:	e20330ff 	and	r3, r3, #255	; 0xff
    4004:	e2833057 	add	r3, r3, #87	; 0x57
    4008:	e20330ff 	and	r3, r3, #255	; 0xff
    400c:	e1a00003 	mov	r0, r3
    4010:	ebfffdf3 	bl	37e4 <OEMWriteDebugByte>
    4014:	e51b3008 	ldr	r3, [fp, #-8]
    4018:	e203340f 	and	r3, r3, #251658240	; 0xf000000
    401c:	e1a03c23 	lsr	r3, r3, #24
    4020:	e20330ff 	and	r3, r3, #255	; 0xff
    4024:	e3530009 	cmp	r3, #9
    4028:	8a000008 	bhi	4050 <PrintHex+0xac>
    402c:	e51b3008 	ldr	r3, [fp, #-8]
    4030:	e203340f 	and	r3, r3, #251658240	; 0xf000000
    4034:	e1a03c23 	lsr	r3, r3, #24
    4038:	e20330ff 	and	r3, r3, #255	; 0xff
    403c:	e2833030 	add	r3, r3, #48	; 0x30
    4040:	e20330ff 	and	r3, r3, #255	; 0xff
    4044:	e1a00003 	mov	r0, r3
    4048:	ebfffde5 	bl	37e4 <OEMWriteDebugByte>
    404c:	ea000007 	b	4070 <PrintHex+0xcc>
    4050:	e51b3008 	ldr	r3, [fp, #-8]
    4054:	e203340f 	and	r3, r3, #251658240	; 0xf000000
    4058:	e1a03c23 	lsr	r3, r3, #24
    405c:	e20330ff 	and	r3, r3, #255	; 0xff
    4060:	e2833057 	add	r3, r3, #87	; 0x57
    4064:	e20330ff 	and	r3, r3, #255	; 0xff
    4068:	e1a00003 	mov	r0, r3
    406c:	ebfffddc 	bl	37e4 <OEMWriteDebugByte>
    4070:	e51b3008 	ldr	r3, [fp, #-8]
    4074:	e203360f 	and	r3, r3, #15728640	; 0xf00000
    4078:	e1a03a23 	lsr	r3, r3, #20
    407c:	e20330ff 	and	r3, r3, #255	; 0xff
    4080:	e3530009 	cmp	r3, #9
    4084:	8a000008 	bhi	40ac <PrintHex+0x108>
    4088:	e51b3008 	ldr	r3, [fp, #-8]
    408c:	e203360f 	and	r3, r3, #15728640	; 0xf00000
    4090:	e1a03a23 	lsr	r3, r3, #20
    4094:	e20330ff 	and	r3, r3, #255	; 0xff
    4098:	e2833030 	add	r3, r3, #48	; 0x30
    409c:	e20330ff 	and	r3, r3, #255	; 0xff
    40a0:	e1a00003 	mov	r0, r3
    40a4:	ebfffdce 	bl	37e4 <OEMWriteDebugByte>
    40a8:	ea000007 	b	40cc <PrintHex+0x128>
    40ac:	e51b3008 	ldr	r3, [fp, #-8]
    40b0:	e203360f 	and	r3, r3, #15728640	; 0xf00000
    40b4:	e1a03a23 	lsr	r3, r3, #20
    40b8:	e20330ff 	and	r3, r3, #255	; 0xff
    40bc:	e2833057 	add	r3, r3, #87	; 0x57
    40c0:	e20330ff 	and	r3, r3, #255	; 0xff
    40c4:	e1a00003 	mov	r0, r3
    40c8:	ebfffdc5 	bl	37e4 <OEMWriteDebugByte>
    40cc:	e51b3008 	ldr	r3, [fp, #-8]
    40d0:	e203380f 	and	r3, r3, #983040	; 0xf0000
    40d4:	e1a03823 	lsr	r3, r3, #16
    40d8:	e20330ff 	and	r3, r3, #255	; 0xff
    40dc:	e3530009 	cmp	r3, #9
    40e0:	8a000008 	bhi	4108 <PrintHex+0x164>
    40e4:	e51b3008 	ldr	r3, [fp, #-8]
    40e8:	e203380f 	and	r3, r3, #983040	; 0xf0000
    40ec:	e1a03823 	lsr	r3, r3, #16
    40f0:	e20330ff 	and	r3, r3, #255	; 0xff
    40f4:	e2833030 	add	r3, r3, #48	; 0x30
    40f8:	e20330ff 	and	r3, r3, #255	; 0xff
    40fc:	e1a00003 	mov	r0, r3
    4100:	ebfffdb7 	bl	37e4 <OEMWriteDebugByte>
    4104:	ea000007 	b	4128 <PrintHex+0x184>
    4108:	e51b3008 	ldr	r3, [fp, #-8]
    410c:	e203380f 	and	r3, r3, #983040	; 0xf0000
    4110:	e1a03823 	lsr	r3, r3, #16
    4114:	e20330ff 	and	r3, r3, #255	; 0xff
    4118:	e2833057 	add	r3, r3, #87	; 0x57
    411c:	e20330ff 	and	r3, r3, #255	; 0xff
    4120:	e1a00003 	mov	r0, r3
    4124:	ebfffdae 	bl	37e4 <OEMWriteDebugByte>
    4128:	e51b3008 	ldr	r3, [fp, #-8]
    412c:	e2033a0f 	and	r3, r3, #61440	; 0xf000
    4130:	e1a03623 	lsr	r3, r3, #12
    4134:	e20330ff 	and	r3, r3, #255	; 0xff
    4138:	e3530009 	cmp	r3, #9
    413c:	8a000008 	bhi	4164 <PrintHex+0x1c0>
    4140:	e51b3008 	ldr	r3, [fp, #-8]
    4144:	e2033a0f 	and	r3, r3, #61440	; 0xf000
    4148:	e1a03623 	lsr	r3, r3, #12
    414c:	e20330ff 	and	r3, r3, #255	; 0xff
    4150:	e2833030 	add	r3, r3, #48	; 0x30
    4154:	e20330ff 	and	r3, r3, #255	; 0xff
    4158:	e1a00003 	mov	r0, r3
    415c:	ebfffda0 	bl	37e4 <OEMWriteDebugByte>
    4160:	ea000007 	b	4184 <PrintHex+0x1e0>
    4164:	e51b3008 	ldr	r3, [fp, #-8]
    4168:	e2033a0f 	and	r3, r3, #61440	; 0xf000
    416c:	e1a03623 	lsr	r3, r3, #12
    4170:	e20330ff 	and	r3, r3, #255	; 0xff
    4174:	e2833057 	add	r3, r3, #87	; 0x57
    4178:	e20330ff 	and	r3, r3, #255	; 0xff
    417c:	e1a00003 	mov	r0, r3
    4180:	ebfffd97 	bl	37e4 <OEMWriteDebugByte>
    4184:	e51b3008 	ldr	r3, [fp, #-8]
    4188:	e2033c0f 	and	r3, r3, #3840	; 0xf00
    418c:	e1a03423 	lsr	r3, r3, #8
    4190:	e20330ff 	and	r3, r3, #255	; 0xff
    4194:	e3530009 	cmp	r3, #9
    4198:	8a000008 	bhi	41c0 <PrintHex+0x21c>
    419c:	e51b3008 	ldr	r3, [fp, #-8]
    41a0:	e2033c0f 	and	r3, r3, #3840	; 0xf00
    41a4:	e1a03423 	lsr	r3, r3, #8
    41a8:	e20330ff 	and	r3, r3, #255	; 0xff
    41ac:	e2833030 	add	r3, r3, #48	; 0x30
    41b0:	e20330ff 	and	r3, r3, #255	; 0xff
    41b4:	e1a00003 	mov	r0, r3
    41b8:	ebfffd89 	bl	37e4 <OEMWriteDebugByte>
    41bc:	ea000007 	b	41e0 <PrintHex+0x23c>
    41c0:	e51b3008 	ldr	r3, [fp, #-8]
    41c4:	e2033c0f 	and	r3, r3, #3840	; 0xf00
    41c8:	e1a03423 	lsr	r3, r3, #8
    41cc:	e20330ff 	and	r3, r3, #255	; 0xff
    41d0:	e2833057 	add	r3, r3, #87	; 0x57
    41d4:	e20330ff 	and	r3, r3, #255	; 0xff
    41d8:	e1a00003 	mov	r0, r3
    41dc:	ebfffd80 	bl	37e4 <OEMWriteDebugByte>
    41e0:	e51b3008 	ldr	r3, [fp, #-8]
    41e4:	e20330f0 	and	r3, r3, #240	; 0xf0
    41e8:	e1a03223 	lsr	r3, r3, #4
    41ec:	e20330ff 	and	r3, r3, #255	; 0xff
    41f0:	e3530009 	cmp	r3, #9
    41f4:	8a000008 	bhi	421c <PrintHex+0x278>
    41f8:	e51b3008 	ldr	r3, [fp, #-8]
    41fc:	e20330f0 	and	r3, r3, #240	; 0xf0
    4200:	e1a03223 	lsr	r3, r3, #4
    4204:	e20330ff 	and	r3, r3, #255	; 0xff
    4208:	e2833030 	add	r3, r3, #48	; 0x30
    420c:	e20330ff 	and	r3, r3, #255	; 0xff
    4210:	e1a00003 	mov	r0, r3
    4214:	ebfffd72 	bl	37e4 <OEMWriteDebugByte>
    4218:	ea000007 	b	423c <PrintHex+0x298>
    421c:	e51b3008 	ldr	r3, [fp, #-8]
    4220:	e20330f0 	and	r3, r3, #240	; 0xf0
    4224:	e1a03223 	lsr	r3, r3, #4
    4228:	e20330ff 	and	r3, r3, #255	; 0xff
    422c:	e2833057 	add	r3, r3, #87	; 0x57
    4230:	e20330ff 	and	r3, r3, #255	; 0xff
    4234:	e1a00003 	mov	r0, r3
    4238:	ebfffd69 	bl	37e4 <OEMWriteDebugByte>
    423c:	e51b3008 	ldr	r3, [fp, #-8]
    4240:	e20330ff 	and	r3, r3, #255	; 0xff
    4244:	e203300f 	and	r3, r3, #15
    4248:	e3530009 	cmp	r3, #9
    424c:	ca000008 	bgt	4274 <PrintHex+0x2d0>
    4250:	e51b3008 	ldr	r3, [fp, #-8]
    4254:	e20330ff 	and	r3, r3, #255	; 0xff
    4258:	e203300f 	and	r3, r3, #15
    425c:	e20330ff 	and	r3, r3, #255	; 0xff
    4260:	e2833030 	add	r3, r3, #48	; 0x30
    4264:	e20330ff 	and	r3, r3, #255	; 0xff
    4268:	e1a00003 	mov	r0, r3
    426c:	ebfffd5c 	bl	37e4 <OEMWriteDebugByte>
    4270:	ea000007 	b	4294 <PrintHex+0x2f0>
    4274:	e51b3008 	ldr	r3, [fp, #-8]
    4278:	e20330ff 	and	r3, r3, #255	; 0xff
    427c:	e203300f 	and	r3, r3, #15
    4280:	e20330ff 	and	r3, r3, #255	; 0xff
    4284:	e2833057 	add	r3, r3, #87	; 0x57
    4288:	e20330ff 	and	r3, r3, #255	; 0xff
    428c:	e1a00003 	mov	r0, r3
    4290:	ebfffd53 	bl	37e4 <OEMWriteDebugByte>
    4294:	e3a0000d 	mov	r0, #13
    4298:	ebfffd51 	bl	37e4 <OEMWriteDebugByte>
    429c:	e3a0000a 	mov	r0, #10
    42a0:	ebfffd4f 	bl	37e4 <OEMWriteDebugByte>
    42a4:	e24bd004 	sub	sp, fp, #4
    42a8:	e8bd8800 	pop	{fp, pc}

000042ac <PrintBatteryVoltage>:
    42ac:	e92d4800 	push	{fp, lr}
    42b0:	e28db004 	add	fp, sp, #4
    42b4:	e24dd018 	sub	sp, sp, #24
    42b8:	e50b0018 	str	r0, [fp, #-24]	; 0xffffffe8
    42bc:	e3a03000 	mov	r3, #0
    42c0:	e50b3014 	str	r3, [fp, #-20]	; 0xffffffec
    42c4:	e3a03000 	mov	r3, #0
    42c8:	e50b3010 	str	r3, [fp, #-16]
    42cc:	e3a03000 	mov	r3, #0
    42d0:	e50b300c 	str	r3, [fp, #-12]
    42d4:	e3a03000 	mov	r3, #0
    42d8:	e50b3008 	str	r3, [fp, #-8]
    42dc:	e51b2018 	ldr	r2, [fp, #-24]	; 0xffffffe8
    42e0:	e59f3174 	ldr	r3, [pc, #372]	; 445c <PrintBatteryVoltage+0x1b0>
    42e4:	e0831392 	umull	r1, r3, r2, r3
    42e8:	e1a03323 	lsr	r3, r3, #6
    42ec:	e50b3014 	str	r3, [fp, #-20]	; 0xffffffec
    42f0:	e51b2018 	ldr	r2, [fp, #-24]	; 0xffffffe8
    42f4:	e59f3160 	ldr	r3, [pc, #352]	; 445c <PrintBatteryVoltage+0x1b0>
    42f8:	e0831392 	umull	r1, r3, r2, r3
    42fc:	e1a03323 	lsr	r3, r3, #6
    4300:	e3a01ffa 	mov	r1, #1000	; 0x3e8
    4304:	e0030391 	mul	r3, r1, r3
    4308:	e0633002 	rsb	r3, r3, r2
    430c:	e59f214c 	ldr	r2, [pc, #332]	; 4460 <PrintBatteryVoltage+0x1b4>
    4310:	e0831392 	umull	r1, r3, r2, r3
    4314:	e1a032a3 	lsr	r3, r3, #5
    4318:	e50b3010 	str	r3, [fp, #-16]
    431c:	e51b2018 	ldr	r2, [fp, #-24]	; 0xffffffe8
    4320:	e59f3138 	ldr	r3, [pc, #312]	; 4460 <PrintBatteryVoltage+0x1b4>
    4324:	e0831392 	umull	r1, r3, r2, r3
    4328:	e1a032a3 	lsr	r3, r3, #5
    432c:	e3a01064 	mov	r1, #100	; 0x64
    4330:	e0030391 	mul	r3, r1, r3
    4334:	e0633002 	rsb	r3, r3, r2
    4338:	e59f2124 	ldr	r2, [pc, #292]	; 4464 <PrintBatteryVoltage+0x1b8>
    433c:	e0831392 	umull	r1, r3, r2, r3
    4340:	e1a031a3 	lsr	r3, r3, #3
    4344:	e50b300c 	str	r3, [fp, #-12]
    4348:	e3a03000 	mov	r3, #0
    434c:	e50b3008 	str	r3, [fp, #-8]
    4350:	ea00003a 	b	4440 <PrintBatteryVoltage+0x194>
    4354:	e51b3008 	ldr	r3, [fp, #-8]
    4358:	e3530001 	cmp	r3, #1
    435c:	1a000001 	bne	4368 <PrintBatteryVoltage+0xbc>
    4360:	e3a0002e 	mov	r0, #46	; 0x2e
    4364:	ebfffd1e 	bl	37e4 <OEMWriteDebugByte>
    4368:	e51b2008 	ldr	r2, [fp, #-8]
    436c:	e3e0300f 	mvn	r3, #15
    4370:	e1a02102 	lsl	r2, r2, #2
    4374:	e24b1004 	sub	r1, fp, #4
    4378:	e0812002 	add	r2, r1, r2
    437c:	e0823003 	add	r3, r2, r3
    4380:	e5933000 	ldr	r3, [r3]
    4384:	e3530009 	cmp	r3, #9
    4388:	979ff103 	ldrls	pc, [pc, r3, lsl #2]
    438c:	ea000027 	b	4430 <PrintBatteryVoltage+0x184>
    4390:	000043b8 			; <UNDEFINED> instruction: 0x000043b8
    4394:	000043c4 	andeq	r4, r0, r4, asr #7
    4398:	000043d0 	ldrdeq	r4, [r0], -r0
    439c:	000043dc 	ldrdeq	r4, [r0], -ip
    43a0:	000043e8 	andeq	r4, r0, r8, ror #7
    43a4:	000043f4 	strdeq	r4, [r0], -r4	; <UNPREDICTABLE>
    43a8:	00004400 	andeq	r4, r0, r0, lsl #8
    43ac:	0000440c 	andeq	r4, r0, ip, lsl #8
    43b0:	00004418 	andeq	r4, r0, r8, lsl r4
    43b4:	00004424 	andeq	r4, r0, r4, lsr #8
    43b8:	e3a00030 	mov	r0, #48	; 0x30
    43bc:	ebfffd08 	bl	37e4 <OEMWriteDebugByte>
    43c0:	ea00001b 	b	4434 <PrintBatteryVoltage+0x188>
    43c4:	e3a00031 	mov	r0, #49	; 0x31
    43c8:	ebfffd05 	bl	37e4 <OEMWriteDebugByte>
    43cc:	ea000018 	b	4434 <PrintBatteryVoltage+0x188>
    43d0:	e3a00032 	mov	r0, #50	; 0x32
    43d4:	ebfffd02 	bl	37e4 <OEMWriteDebugByte>
    43d8:	ea000015 	b	4434 <PrintBatteryVoltage+0x188>
    43dc:	e3a00033 	mov	r0, #51	; 0x33
    43e0:	ebfffcff 	bl	37e4 <OEMWriteDebugByte>
    43e4:	ea000012 	b	4434 <PrintBatteryVoltage+0x188>
    43e8:	e3a00034 	mov	r0, #52	; 0x34
    43ec:	ebfffcfc 	bl	37e4 <OEMWriteDebugByte>
    43f0:	ea00000f 	b	4434 <PrintBatteryVoltage+0x188>
    43f4:	e3a00035 	mov	r0, #53	; 0x35
    43f8:	ebfffcf9 	bl	37e4 <OEMWriteDebugByte>
    43fc:	ea00000c 	b	4434 <PrintBatteryVoltage+0x188>
    4400:	e3a00036 	mov	r0, #54	; 0x36
    4404:	ebfffcf6 	bl	37e4 <OEMWriteDebugByte>
    4408:	ea000009 	b	4434 <PrintBatteryVoltage+0x188>
    440c:	e3a00037 	mov	r0, #55	; 0x37
    4410:	ebfffcf3 	bl	37e4 <OEMWriteDebugByte>
    4414:	ea000006 	b	4434 <PrintBatteryVoltage+0x188>
    4418:	e3a00038 	mov	r0, #56	; 0x38
    441c:	ebfffcf0 	bl	37e4 <OEMWriteDebugByte>
    4420:	ea000003 	b	4434 <PrintBatteryVoltage+0x188>
    4424:	e3a00039 	mov	r0, #57	; 0x39
    4428:	ebfffced 	bl	37e4 <OEMWriteDebugByte>
    442c:	ea000000 	b	4434 <PrintBatteryVoltage+0x188>
    4430:	e1a00000 	nop			; (mov r0, r0)
    4434:	e51b3008 	ldr	r3, [fp, #-8]
    4438:	e2833001 	add	r3, r3, #1
    443c:	e50b3008 	str	r3, [fp, #-8]
    4440:	e51b3008 	ldr	r3, [fp, #-8]
    4444:	e3530002 	cmp	r3, #2
    4448:	9affffc1 	bls	4354 <PrintBatteryVoltage+0xa8>
    444c:	e3a00056 	mov	r0, #86	; 0x56
    4450:	ebfffce3 	bl	37e4 <OEMWriteDebugByte>
    4454:	e24bd004 	sub	sp, fp, #4
    4458:	e8bd8800 	pop	{fp, pc}
    445c:	10624dd3 	ldrdne	r4, [r2], #-211	; 0xffffff2d	; <UNPREDICTABLE>
    4460:	51eb851f 	mvnpl	r8, pc, lsl r5
    4464:	cccccccd 	stclgt	12, cr12, [ip], {205}	; 0xcd

00004468 <PowerExecute5VoltsToBatteryHandoff>:
    4468:	e92d4800 	push	{fp, lr}
    446c:	e28db004 	add	fp, sp, #4
    4470:	eb000002 	bl	4480 <PowerStop4p2>
    4474:	e3a00001 	mov	r0, #1
    4478:	eb00001c 	bl	44f0 <PowerDisableAutoHardwarePowerdown>
    447c:	e8bd8800 	pop	{fp, pc}

00004480 <PowerStop4p2>:
    4480:	e52db004 	push	{fp}		; (str fp, [sp, #-4]!)
    4484:	e28db000 	add	fp, sp, #0
    4488:	e59f3050 	ldr	r3, [pc, #80]	; 44e0 <PowerStop4p2+0x60>
    448c:	e59f204c 	ldr	r2, [pc, #76]	; 44e0 <PowerStop4p2+0x60>
    4490:	e5922000 	ldr	r2, [r2]
    4494:	e3c22501 	bic	r2, r2, #4194304	; 0x400000
    4498:	e5832000 	str	r2, [r3]
    449c:	e59f303c 	ldr	r3, [pc, #60]	; 44e0 <PowerStop4p2+0x60>
    44a0:	e59f2038 	ldr	r2, [pc, #56]	; 44e0 <PowerStop4p2+0x60>
    44a4:	e5922000 	ldr	r2, [r2]
    44a8:	e3c22502 	bic	r2, r2, #8388608	; 0x800000
    44ac:	e5832000 	str	r2, [r3]
    44b0:	e59f302c 	ldr	r3, [pc, #44]	; 44e4 <PowerStop4p2+0x64>
    44b4:	e3a02501 	mov	r2, #4194304	; 0x400000
    44b8:	e5832000 	str	r2, [r3]
    44bc:	e59f3024 	ldr	r3, [pc, #36]	; 44e8 <PowerStop4p2+0x68>
    44c0:	e3a02502 	mov	r2, #8388608	; 0x800000
    44c4:	e5832000 	str	r2, [r3]
    44c8:	e59f301c 	ldr	r3, [pc, #28]	; 44ec <PowerStop4p2+0x6c>
    44cc:	e3a02601 	mov	r2, #1048576	; 0x100000
    44d0:	e5832000 	str	r2, [r3]
    44d4:	e28bd000 	add	sp, fp, #0
    44d8:	e49db004 	pop	{fp}		; (ldr fp, [sp], #4)
    44dc:	e12fff1e 	bx	lr
    44e0:	80044080 	andhi	r4, r4, r0, lsl #1
    44e4:	80044038 	andhi	r4, r4, r8, lsr r0
    44e8:	80044008 	andhi	r4, r4, r8
    44ec:	80044014 	andhi	r4, r4, r4, lsl r0

000044f0 <PowerDisableAutoHardwarePowerdown>:
    44f0:	e52db004 	push	{fp}		; (str fp, [sp, #-4]!)
    44f4:	e28db000 	add	fp, sp, #0
    44f8:	e24dd00c 	sub	sp, sp, #12
    44fc:	e50b0008 	str	r0, [fp, #-8]
    4500:	e51b3008 	ldr	r3, [fp, #-8]
    4504:	e3530000 	cmp	r3, #0
    4508:	0a000003 	beq	451c <PowerDisableAutoHardwarePowerdown+0x2c>
    450c:	e59f3020 	ldr	r3, [pc, #32]	; 4534 <PowerDisableAutoHardwarePowerdown+0x44>
    4510:	e3a02080 	mov	r2, #128	; 0x80
    4514:	e5832000 	str	r2, [r3]
    4518:	ea000002 	b	4528 <PowerDisableAutoHardwarePowerdown+0x38>
    451c:	e59f3014 	ldr	r3, [pc, #20]	; 4538 <PowerDisableAutoHardwarePowerdown+0x48>
    4520:	e3a02080 	mov	r2, #128	; 0x80
    4524:	e5832000 	str	r2, [r3]
    4528:	e28bd000 	add	sp, fp, #0
    452c:	e49db004 	pop	{fp}		; (ldr fp, [sp], #4)
    4530:	e12fff1e 	bx	lr
    4534:	80044018 	andhi	r4, r4, r8, lsl r0
    4538:	80044014 	andhi	r4, r4, r4, lsl r0

0000453c <PowerSetCharger>:
    453c:	e52db004 	push	{fp}		; (str fp, [sp, #-4]!)
    4540:	e28db000 	add	fp, sp, #0
    4544:	e24dd00c 	sub	sp, sp, #12
    4548:	e50b0008 	str	r0, [fp, #-8]
    454c:	e59f3050 	ldr	r3, [pc, #80]	; 45a4 <PowerSetCharger+0x68>
    4550:	e3a02c0f 	mov	r2, #3840	; 0xf00
    4554:	e5832000 	str	r2, [r3]
    4558:	e59f3048 	ldr	r3, [pc, #72]	; 45a8 <PowerSetCharger+0x6c>
    455c:	e3a02c03 	mov	r2, #768	; 0x300
    4560:	e5832000 	str	r2, [r3]
    4564:	e59f3038 	ldr	r3, [pc, #56]	; 45a4 <PowerSetCharger+0x68>
    4568:	e3a0203f 	mov	r2, #63	; 0x3f
    456c:	e5832000 	str	r2, [r3]
    4570:	e59f3030 	ldr	r3, [pc, #48]	; 45a8 <PowerSetCharger+0x6c>
    4574:	e51b2008 	ldr	r2, [fp, #-8]
    4578:	e202203f 	and	r2, r2, #63	; 0x3f
    457c:	e5832000 	str	r2, [r3]
    4580:	e59f301c 	ldr	r3, [pc, #28]	; 45a4 <PowerSetCharger+0x68>
    4584:	e3a02801 	mov	r2, #65536	; 0x10000
    4588:	e5832000 	str	r2, [r3]
    458c:	e59f3018 	ldr	r3, [pc, #24]	; 45ac <PowerSetCharger+0x70>
    4590:	e3a02601 	mov	r2, #1048576	; 0x100000
    4594:	e5832000 	str	r2, [r3]
    4598:	e28bd000 	add	sp, fp, #0
    459c:	e49db004 	pop	{fp}		; (ldr fp, [sp], #4)
    45a0:	e12fff1e 	bx	lr
    45a4:	80044038 	andhi	r4, r4, r8, lsr r0
    45a8:	80044034 	andhi	r4, r4, r4, lsr r0
    45ac:	80044018 	andhi	r4, r4, r8, lsl r0

000045b0 <PowerStopCharger>:
    45b0:	e52db004 	push	{fp}		; (str fp, [sp, #-4]!)
    45b4:	e28db000 	add	fp, sp, #0
    45b8:	e59f3034 	ldr	r3, [pc, #52]	; 45f4 <PowerStopCharger+0x44>
    45bc:	e3a02c0f 	mov	r2, #3840	; 0xf00
    45c0:	e5832000 	str	r2, [r3]
    45c4:	e59f3028 	ldr	r3, [pc, #40]	; 45f4 <PowerStopCharger+0x44>
    45c8:	e3a0203f 	mov	r2, #63	; 0x3f
    45cc:	e5832000 	str	r2, [r3]
    45d0:	e59f3020 	ldr	r3, [pc, #32]	; 45f8 <PowerStopCharger+0x48>
    45d4:	e3a02801 	mov	r2, #65536	; 0x10000
    45d8:	e5832000 	str	r2, [r3]
    45dc:	e59f3018 	ldr	r3, [pc, #24]	; 45fc <PowerStopCharger+0x4c>
    45e0:	e3a02601 	mov	r2, #1048576	; 0x100000
    45e4:	e5832000 	str	r2, [r3]
    45e8:	e28bd000 	add	sp, fp, #0
    45ec:	e49db004 	pop	{fp}		; (ldr fp, [sp], #4)
    45f0:	e12fff1e 	bx	lr
    45f4:	80044038 	andhi	r4, r4, r8, lsr r0
    45f8:	80044034 	andhi	r4, r4, r4, lsr r0
    45fc:	80044014 	andhi	r4, r4, r4, lsl r0

00004600 <OALStall>:
    4600:	e52db004 	push	{fp}		; (str fp, [sp, #-4]!)
    4604:	e28db000 	add	fp, sp, #0
    4608:	e24dd014 	sub	sp, sp, #20
    460c:	e50b0010 	str	r0, [fp, #-16]
    4610:	e59f3064 	ldr	r3, [pc, #100]	; 467c <OALStall+0x7c>
    4614:	e5933000 	ldr	r3, [r3]
    4618:	e50b3008 	str	r3, [fp, #-8]
    461c:	e51b2008 	ldr	r2, [fp, #-8]
    4620:	e51b3010 	ldr	r3, [fp, #-16]
    4624:	e0823003 	add	r3, r2, r3
    4628:	e50b300c 	str	r3, [fp, #-12]
    462c:	e51b200c 	ldr	r2, [fp, #-12]
    4630:	e51b3008 	ldr	r3, [fp, #-8]
    4634:	e1520003 	cmp	r2, r3
    4638:	2a000006 	bcs	4658 <OALStall+0x58>
    463c:	e1a00000 	nop			; (mov r0, r0)
    4640:	e59f3034 	ldr	r3, [pc, #52]	; 467c <OALStall+0x7c>
    4644:	e5932000 	ldr	r2, [r3]
    4648:	e51b3008 	ldr	r3, [fp, #-8]
    464c:	e1520003 	cmp	r2, r3
    4650:	8afffffa 	bhi	4640 <OALStall+0x40>
    4654:	ea000000 	b	465c <OALStall+0x5c>
    4658:	e1a00000 	nop			; (mov r0, r0)
    465c:	e59f3018 	ldr	r3, [pc, #24]	; 467c <OALStall+0x7c>
    4660:	e5932000 	ldr	r2, [r3]
    4664:	e51b300c 	ldr	r3, [fp, #-12]
    4668:	e1520003 	cmp	r2, r3
    466c:	9afffffa 	bls	465c <OALStall+0x5c>
    4670:	e28bd000 	add	sp, fp, #0
    4674:	e49db004 	pop	{fp}		; (ldr fp, [sp], #4)
    4678:	e12fff1e 	bx	lr
    467c:	8001c0c0 	andhi	ip, r1, r0, asr #1

00004680 <TurnOnPLLClock>:
    4680:	e92d4800 	push	{fp, lr}
    4684:	e28db004 	add	fp, sp, #4
    4688:	e24dd008 	sub	sp, sp, #8
    468c:	e59f3108 	ldr	r3, [pc, #264]	; 479c <TurnOnPLLClock+0x11c>
    4690:	e3a02080 	mov	r2, #128	; 0x80
    4694:	e5832000 	str	r2, [r3]
    4698:	e59f3100 	ldr	r3, [pc, #256]	; 47a0 <TurnOnPLLClock+0x120>
    469c:	e3a02801 	mov	r2, #65536	; 0x10000
    46a0:	e5832000 	str	r2, [r3]
    46a4:	e59f30f8 	ldr	r3, [pc, #248]	; 47a4 <TurnOnPLLClock+0x124>
    46a8:	e59f20f4 	ldr	r2, [pc, #244]	; 47a4 <TurnOnPLLClock+0x124>
    46ac:	e5922000 	ldr	r2, [r2]
    46b0:	e3822c07 	orr	r2, r2, #1792	; 0x700
    46b4:	e5832000 	str	r2, [r3]
    46b8:	e59f30e4 	ldr	r3, [pc, #228]	; 47a4 <TurnOnPLLClock+0x124>
    46bc:	e59f20e0 	ldr	r2, [pc, #224]	; 47a4 <TurnOnPLLClock+0x124>
    46c0:	e5922000 	ldr	r2, [r2]
    46c4:	e3c2201f 	bic	r2, r2, #31
    46c8:	e382201e 	orr	r2, r2, #30
    46cc:	e5832000 	str	r2, [r3]
    46d0:	e3a0000f 	mov	r0, #15
    46d4:	ebffffc9 	bl	4600 <OALStall>
    46d8:	e1a00000 	nop			; (mov r0, r0)
    46dc:	e59f30c4 	ldr	r3, [pc, #196]	; 47a8 <TurnOnPLLClock+0x128>
    46e0:	e5933000 	ldr	r3, [r3]
    46e4:	e2033c02 	and	r3, r3, #512	; 0x200
    46e8:	e3530000 	cmp	r3, #0
    46ec:	0afffffa 	beq	46dc <TurnOnPLLClock+0x5c>
    46f0:	e59f30b4 	ldr	r3, [pc, #180]	; 47ac <TurnOnPLLClock+0x12c>
    46f4:	e3a02080 	mov	r2, #128	; 0x80
    46f8:	e5832000 	str	r2, [r3]
    46fc:	e59f30ac 	ldr	r3, [pc, #172]	; 47b0 <TurnOnPLLClock+0x130>
    4700:	e59f20a8 	ldr	r2, [pc, #168]	; 47b0 <TurnOnPLLClock+0x130>
    4704:	e5922000 	ldr	r2, [r2]
    4708:	e3c2203f 	bic	r2, r2, #63	; 0x3f
    470c:	e3822013 	orr	r2, r2, #19
    4710:	e5832000 	str	r2, [r3]
    4714:	e59f3094 	ldr	r3, [pc, #148]	; 47b0 <TurnOnPLLClock+0x130>
    4718:	e5933000 	ldr	r3, [r3]
    471c:	e2033040 	and	r3, r3, #64	; 0x40
    4720:	e50b300c 	str	r3, [fp, #-12]
    4724:	e1a00000 	nop			; (mov r0, r0)
    4728:	e59f3080 	ldr	r3, [pc, #128]	; 47b0 <TurnOnPLLClock+0x130>
    472c:	e5932000 	ldr	r2, [r3]
    4730:	e51b300c 	ldr	r3, [fp, #-12]
    4734:	e1520003 	cmp	r2, r3
    4738:	0afffffa 	beq	4728 <TurnOnPLLClock+0xa8>
    473c:	e59f3070 	ldr	r3, [pc, #112]	; 47b4 <TurnOnPLLClock+0x134>
    4740:	e59f2070 	ldr	r2, [pc, #112]	; 47b8 <TurnOnPLLClock+0x138>
    4744:	e5832000 	str	r2, [r3]
    4748:	e59f306c 	ldr	r3, [pc, #108]	; 47bc <TurnOnPLLClock+0x13c>
    474c:	e3a02003 	mov	r2, #3
    4750:	e5832000 	str	r2, [r3]
    4754:	e59f3064 	ldr	r3, [pc, #100]	; 47c0 <TurnOnPLLClock+0x140>
    4758:	e3a02080 	mov	r2, #128	; 0x80
    475c:	e5832000 	str	r2, [r3]
    4760:	e3a03000 	mov	r3, #0
    4764:	e50b3008 	str	r3, [fp, #-8]
    4768:	e1a00000 	nop			; (mov r0, r0)
    476c:	e51b3008 	ldr	r3, [fp, #-8]
    4770:	e3530a01 	cmp	r3, #4096	; 0x1000
    4774:	03a03000 	moveq	r3, #0
    4778:	13a03001 	movne	r3, #1
    477c:	e20330ff 	and	r3, r3, #255	; 0xff
    4780:	e51b2008 	ldr	r2, [fp, #-8]
    4784:	e2822001 	add	r2, r2, #1
    4788:	e50b2008 	str	r2, [fp, #-8]
    478c:	e3530000 	cmp	r3, #0
    4790:	1afffff5 	bne	476c <TurnOnPLLClock+0xec>
    4794:	e24bd004 	sub	sp, fp, #4
    4798:	e8bd8800 	pop	{fp, pc}
    479c:	80040114 	andhi	r0, r4, r4, lsl r1
    47a0:	80040004 	andhi	r0, r4, r4
    47a4:	80044040 	andhi	r4, r4, r0, asr #32
    47a8:	800440c0 	andhi	r4, r4, r0, asr #1
    47ac:	800400f8 	strdhi	r0, [r4], -r8
    47b0:	800400f0 	strdhi	r0, [r4], -r0	; <UNPREDICTABLE>
    47b4:	80040020 	andhi	r0, r4, r0, lsr #32
    47b8:	00011001 	andeq	r1, r1, r1
    47bc:	80040030 	andhi	r0, r4, r0, lsr r0
    47c0:	80040118 	andhi	r0, r4, r8, lsl r1

000047c4 <init>:
    47c4:	e92d4800 	push	{fp, lr}
    47c8:	e28db004 	add	fp, sp, #4
    47cc:	eb000002 	bl	47dc <power_init>
    47d0:	eb00003d 	bl	48cc <cpu_init>
    47d4:	eb00001a 	bl	4844 <pin_init>
    47d8:	e8bd8800 	pop	{fp, pc}

000047dc <power_init>:
    47dc:	e52db004 	push	{fp}		; (str fp, [sp, #-4]!)
    47e0:	e28db000 	add	fp, sp, #0
    47e4:	e24dd00c 	sub	sp, sp, #12
    47e8:	e59f304c 	ldr	r3, [pc, #76]	; 483c <power_init+0x60>
    47ec:	e3a02101 	mov	r2, #1073741824	; 0x40000000
    47f0:	e5832000 	str	r2, [r3]
    47f4:	e59f3044 	ldr	r3, [pc, #68]	; 4840 <power_init+0x64>
    47f8:	e5933000 	ldr	r3, [r3]
    47fc:	e50b3008 	str	r3, [fp, #-8]
    4800:	e51b3008 	ldr	r3, [fp, #-8]
    4804:	e203301f 	and	r3, r3, #31
    4808:	e50b3008 	str	r3, [fp, #-8]
    480c:	e51b3008 	ldr	r3, [fp, #-8]
    4810:	e383301a 	orr	r3, r3, #26
    4814:	e50b3008 	str	r3, [fp, #-8]
    4818:	e59f3020 	ldr	r3, [pc, #32]	; 4840 <power_init+0x64>
    481c:	e59f201c 	ldr	r2, [pc, #28]	; 4840 <power_init+0x64>
    4820:	e5921000 	ldr	r1, [r2]
    4824:	e51b2008 	ldr	r2, [fp, #-8]
    4828:	e1812002 	orr	r2, r1, r2
    482c:	e5832000 	str	r2, [r3]
    4830:	e28bd000 	add	sp, fp, #0
    4834:	e49db004 	pop	{fp}		; (ldr fp, [sp], #4)
    4838:	e12fff1e 	bx	lr
    483c:	80044008 	andhi	r4, r4, r8
    4840:	80044040 	andhi	r4, r4, r0, asr #32

00004844 <pin_init>:
    4844:	e52db004 	push	{fp}		; (str fp, [sp, #-4]!)
    4848:	e28db000 	add	fp, sp, #0
    484c:	e59f3064 	ldr	r3, [pc, #100]	; 48b8 <pin_init+0x74>
    4850:	e3a02903 	mov	r2, #49152	; 0xc000
    4854:	e5832000 	str	r2, [r3]
    4858:	e59f305c 	ldr	r3, [pc, #92]	; 48bc <pin_init+0x78>
    485c:	e3a020c0 	mov	r2, #192	; 0xc0
    4860:	e5832000 	str	r2, [r3]
    4864:	e59f3050 	ldr	r3, [pc, #80]	; 48bc <pin_init+0x78>
    4868:	e3a02403 	mov	r2, #50331648	; 0x3000000
    486c:	e5832000 	str	r2, [r3]
    4870:	e59f3048 	ldr	r3, [pc, #72]	; 48c0 <pin_init+0x7c>
    4874:	e3a02502 	mov	r2, #8388608	; 0x800000
    4878:	e5832000 	str	r2, [r3]
    487c:	e59f3040 	ldr	r3, [pc, #64]	; 48c4 <pin_init+0x80>
    4880:	e3a02702 	mov	r2, #524288	; 0x80000
    4884:	e5832000 	str	r2, [r3]
    4888:	e59f3034 	ldr	r3, [pc, #52]	; 48c4 <pin_init+0x80>
    488c:	e3a02201 	mov	r2, #268435456	; 0x10000000
    4890:	e5832000 	str	r2, [r3]
    4894:	e59f302c 	ldr	r3, [pc, #44]	; 48c8 <pin_init+0x84>
    4898:	e3a02702 	mov	r2, #524288	; 0x80000
    489c:	e5832000 	str	r2, [r3]
    48a0:	e59f3020 	ldr	r3, [pc, #32]	; 48c8 <pin_init+0x84>
    48a4:	e3a02201 	mov	r2, #268435456	; 0x10000000
    48a8:	e5832000 	str	r2, [r3]
    48ac:	e28bd000 	add	sp, fp, #0
    48b0:	e49db004 	pop	{fp}		; (ldr fp, [sp], #4)
    48b4:	e12fff1e 	bx	lr
    48b8:	80018114 	andhi	r8, r1, r4, lsl r1
    48bc:	80018134 	andhi	r8, r1, r4, lsr r1
    48c0:	80018708 	andhi	r8, r1, r8, lsl #14
    48c4:	80018514 	andhi	r8, r1, r4, lsl r5
    48c8:	80018714 	andhi	r8, r1, r4, lsl r7

000048cc <cpu_init>:
    48cc:	e92d4800 	push	{fp, lr}
    48d0:	e28db004 	add	fp, sp, #4
    48d4:	e24dd008 	sub	sp, sp, #8
    48d8:	e59f3090 	ldr	r3, [pc, #144]	; 4970 <cpu_init+0xa4>
    48dc:	e3a02801 	mov	r2, #65536	; 0x10000
    48e0:	e5832000 	str	r2, [r3]
    48e4:	e3a000a0 	mov	r0, #160	; 0xa0
    48e8:	eb00030d 	bl	5524 <udelay>
    48ec:	e59f3080 	ldr	r3, [pc, #128]	; 4974 <cpu_init+0xa8>
    48f0:	e3a0203f 	mov	r2, #63	; 0x3f
    48f4:	e5832000 	str	r2, [r3]
    48f8:	e59f3078 	ldr	r3, [pc, #120]	; 4978 <cpu_init+0xac>
    48fc:	e3a02013 	mov	r2, #19
    4900:	e5832000 	str	r2, [r3]
    4904:	e59f3068 	ldr	r3, [pc, #104]	; 4974 <cpu_init+0xa8>
    4908:	e3a02080 	mov	r2, #128	; 0x80
    490c:	e5832000 	str	r2, [r3]
    4910:	e59f3064 	ldr	r3, [pc, #100]	; 497c <cpu_init+0xb0>
    4914:	e5933000 	ldr	r3, [r3]
    4918:	e2033001 	and	r3, r3, #1
    491c:	e50b3008 	str	r3, [fp, #-8]
    4920:	e1a00000 	nop			; (mov r0, r0)
    4924:	e59f3050 	ldr	r3, [pc, #80]	; 497c <cpu_init+0xb0>
    4928:	e5932000 	ldr	r2, [r3]
    492c:	e51b3008 	ldr	r3, [fp, #-8]
    4930:	e1520003 	cmp	r2, r3
    4934:	0afffffa 	beq	4924 <cpu_init+0x58>
    4938:	e59f3040 	ldr	r3, [pc, #64]	; 4980 <cpu_init+0xb4>
    493c:	e3a02001 	mov	r2, #1
    4940:	e5832000 	str	r2, [r3]
    4944:	e59f3038 	ldr	r3, [pc, #56]	; 4984 <cpu_init+0xb8>
    4948:	e3a0201f 	mov	r2, #31
    494c:	e5832000 	str	r2, [r3]
    4950:	e59f3030 	ldr	r3, [pc, #48]	; 4988 <cpu_init+0xbc>
    4954:	e3a0201c 	mov	r2, #28
    4958:	e5832000 	str	r2, [r3]
    495c:	e59f3028 	ldr	r3, [pc, #40]	; 498c <cpu_init+0xc0>
    4960:	e3a02080 	mov	r2, #128	; 0x80
    4964:	e5832000 	str	r2, [r3]
    4968:	e24bd004 	sub	sp, fp, #4
    496c:	e8bd8800 	pop	{fp, pc}
    4970:	80040004 	andhi	r0, r4, r4
    4974:	800400f8 	strdhi	r0, [r4], -r8
    4978:	800400f4 	strdhi	r0, [r4], -r4
    497c:	800400f0 	strdhi	r0, [r4], -r0	; <UNPREDICTABLE>
    4980:	80040024 	andhi	r0, r4, r4, lsr #32
    4984:	80040034 	andhi	r0, r4, r4, lsr r0
    4988:	80040038 	andhi	r0, r4, r8, lsr r0
    498c:	80040118 	andhi	r0, r4, r8, lsl r1

00004990 <init_taglist>:
    4990:	e52db004 	push	{fp}		; (str fp, [sp, #-4]!)
    4994:	e28db000 	add	fp, sp, #0
    4998:	e24dd014 	sub	sp, sp, #20
    499c:	e50b0010 	str	r0, [fp, #-16]
    49a0:	e51b2010 	ldr	r2, [fp, #-16]
    49a4:	e59f31fc 	ldr	r3, [pc, #508]	; 4ba8 <init_taglist+0x218>
    49a8:	e5832000 	str	r2, [r3]
    49ac:	e59f31f4 	ldr	r3, [pc, #500]	; 4ba8 <init_taglist+0x218>
    49b0:	e5933000 	ldr	r3, [r3]
    49b4:	e59f21f0 	ldr	r2, [pc, #496]	; 4bac <init_taglist+0x21c>
    49b8:	e5832004 	str	r2, [r3, #4]
    49bc:	e59f31e4 	ldr	r3, [pc, #484]	; 4ba8 <init_taglist+0x218>
    49c0:	e5933000 	ldr	r3, [r3]
    49c4:	e3a02005 	mov	r2, #5
    49c8:	e5832000 	str	r2, [r3]
    49cc:	e59f31d4 	ldr	r3, [pc, #468]	; 4ba8 <init_taglist+0x218>
    49d0:	e5933000 	ldr	r3, [r3]
    49d4:	e3a02001 	mov	r2, #1
    49d8:	e5832008 	str	r2, [r3, #8]
    49dc:	e59f31c4 	ldr	r3, [pc, #452]	; 4ba8 <init_taglist+0x218>
    49e0:	e5933000 	ldr	r3, [r3]
    49e4:	e3a02a01 	mov	r2, #4096	; 0x1000
    49e8:	e583200c 	str	r2, [r3, #12]
    49ec:	e59f31b4 	ldr	r3, [pc, #436]	; 4ba8 <init_taglist+0x218>
    49f0:	e5933000 	ldr	r3, [r3]
    49f4:	e3a02000 	mov	r2, #0
    49f8:	e5832010 	str	r2, [r3, #16]
    49fc:	e59f31a4 	ldr	r3, [pc, #420]	; 4ba8 <init_taglist+0x218>
    4a00:	e5932000 	ldr	r2, [r3]
    4a04:	e59f319c 	ldr	r3, [pc, #412]	; 4ba8 <init_taglist+0x218>
    4a08:	e5933000 	ldr	r3, [r3]
    4a0c:	e5933000 	ldr	r3, [r3]
    4a10:	e1a03103 	lsl	r3, r3, #2
    4a14:	e0822003 	add	r2, r2, r3
    4a18:	e59f3188 	ldr	r3, [pc, #392]	; 4ba8 <init_taglist+0x218>
    4a1c:	e5832000 	str	r2, [r3]
    4a20:	e59f3180 	ldr	r3, [pc, #384]	; 4ba8 <init_taglist+0x218>
    4a24:	e5933000 	ldr	r3, [r3]
    4a28:	e59f2180 	ldr	r2, [pc, #384]	; 4bb0 <init_taglist+0x220>
    4a2c:	e5832004 	str	r2, [r3, #4]
    4a30:	e59f3170 	ldr	r3, [pc, #368]	; 4ba8 <init_taglist+0x218>
    4a34:	e5933000 	ldr	r3, [r3]
    4a38:	e3a02025 	mov	r2, #37	; 0x25
    4a3c:	e5832000 	str	r2, [r3]
    4a40:	e3a03000 	mov	r3, #0
    4a44:	e50b3008 	str	r3, [fp, #-8]
    4a48:	ea00000d 	b	4a84 <init_taglist+0xf4>
    4a4c:	e59f3154 	ldr	r3, [pc, #340]	; 4ba8 <init_taglist+0x218>
    4a50:	e5930000 	ldr	r0, [r3]
    4a54:	e59f2158 	ldr	r2, [pc, #344]	; 4bb4 <init_taglist+0x224>
    4a58:	e51b3008 	ldr	r3, [fp, #-8]
    4a5c:	e0823003 	add	r3, r2, r3
    4a60:	e5d32000 	ldrb	r2, [r3]
    4a64:	e3a03008 	mov	r3, #8
    4a68:	e51b1008 	ldr	r1, [fp, #-8]
    4a6c:	e0801001 	add	r1, r0, r1
    4a70:	e0813003 	add	r3, r1, r3
    4a74:	e5c32000 	strb	r2, [r3]
    4a78:	e51b3008 	ldr	r3, [fp, #-8]
    4a7c:	e2833001 	add	r3, r3, #1
    4a80:	e50b3008 	str	r3, [fp, #-8]
    4a84:	e51b3008 	ldr	r3, [fp, #-8]
    4a88:	e353008a 	cmp	r3, #138	; 0x8a
    4a8c:	9affffee 	bls	4a4c <init_taglist+0xbc>
    4a90:	e59f3110 	ldr	r3, [pc, #272]	; 4ba8 <init_taglist+0x218>
    4a94:	e5932000 	ldr	r2, [r3]
    4a98:	e59f3108 	ldr	r3, [pc, #264]	; 4ba8 <init_taglist+0x218>
    4a9c:	e5933000 	ldr	r3, [r3]
    4aa0:	e5933000 	ldr	r3, [r3]
    4aa4:	e1a03103 	lsl	r3, r3, #2
    4aa8:	e0822003 	add	r2, r2, r3
    4aac:	e59f30f4 	ldr	r3, [pc, #244]	; 4ba8 <init_taglist+0x218>
    4ab0:	e5832000 	str	r2, [r3]
    4ab4:	e59f30ec 	ldr	r3, [pc, #236]	; 4ba8 <init_taglist+0x218>
    4ab8:	e5933000 	ldr	r3, [r3]
    4abc:	e59f20f4 	ldr	r2, [pc, #244]	; 4bb8 <init_taglist+0x228>
    4ac0:	e5832004 	str	r2, [r3, #4]
    4ac4:	e59f30dc 	ldr	r3, [pc, #220]	; 4ba8 <init_taglist+0x218>
    4ac8:	e5933000 	ldr	r3, [r3]
    4acc:	e3a02004 	mov	r2, #4
    4ad0:	e5832000 	str	r2, [r3]
    4ad4:	e59f30cc 	ldr	r3, [pc, #204]	; 4ba8 <init_taglist+0x218>
    4ad8:	e5933000 	ldr	r3, [r3]
    4adc:	e3a02301 	mov	r2, #67108864	; 0x4000000
    4ae0:	e5832008 	str	r2, [r3, #8]
    4ae4:	e59f30bc 	ldr	r3, [pc, #188]	; 4ba8 <init_taglist+0x218>
    4ae8:	e5933000 	ldr	r3, [r3]
    4aec:	e3a02101 	mov	r2, #1073741824	; 0x40000000
    4af0:	e583200c 	str	r2, [r3, #12]
    4af4:	e59f30ac 	ldr	r3, [pc, #172]	; 4ba8 <init_taglist+0x218>
    4af8:	e5932000 	ldr	r2, [r3]
    4afc:	e59f30a4 	ldr	r3, [pc, #164]	; 4ba8 <init_taglist+0x218>
    4b00:	e5933000 	ldr	r3, [r3]
    4b04:	e5933000 	ldr	r3, [r3]
    4b08:	e1a03103 	lsl	r3, r3, #2
    4b0c:	e0822003 	add	r2, r2, r3
    4b10:	e59f3090 	ldr	r3, [pc, #144]	; 4ba8 <init_taglist+0x218>
    4b14:	e5832000 	str	r2, [r3]
    4b18:	e59f3088 	ldr	r3, [pc, #136]	; 4ba8 <init_taglist+0x218>
    4b1c:	e5933000 	ldr	r3, [r3]
    4b20:	e59f2094 	ldr	r2, [pc, #148]	; 4bbc <init_taglist+0x22c>
    4b24:	e5832004 	str	r2, [r3, #4]
    4b28:	e59f3078 	ldr	r3, [pc, #120]	; 4ba8 <init_taglist+0x218>
    4b2c:	e5933000 	ldr	r3, [r3]
    4b30:	e3a02004 	mov	r2, #4
    4b34:	e5832000 	str	r2, [r3]
    4b38:	e59f3068 	ldr	r3, [pc, #104]	; 4ba8 <init_taglist+0x218>
    4b3c:	e5933000 	ldr	r3, [r3]
    4b40:	e3a02502 	mov	r2, #8388608	; 0x800000
    4b44:	e583200c 	str	r2, [r3, #12]
    4b48:	e59f3058 	ldr	r3, [pc, #88]	; 4ba8 <init_taglist+0x218>
    4b4c:	e5933000 	ldr	r3, [r3]
    4b50:	e59f2068 	ldr	r2, [pc, #104]	; 4bc0 <init_taglist+0x230>
    4b54:	e5832008 	str	r2, [r3, #8]
    4b58:	e59f3048 	ldr	r3, [pc, #72]	; 4ba8 <init_taglist+0x218>
    4b5c:	e5932000 	ldr	r2, [r3]
    4b60:	e59f3040 	ldr	r3, [pc, #64]	; 4ba8 <init_taglist+0x218>
    4b64:	e5933000 	ldr	r3, [r3]
    4b68:	e5933000 	ldr	r3, [r3]
    4b6c:	e1a03103 	lsl	r3, r3, #2
    4b70:	e0822003 	add	r2, r2, r3
    4b74:	e59f302c 	ldr	r3, [pc, #44]	; 4ba8 <init_taglist+0x218>
    4b78:	e5832000 	str	r2, [r3]
    4b7c:	e59f3024 	ldr	r3, [pc, #36]	; 4ba8 <init_taglist+0x218>
    4b80:	e5933000 	ldr	r3, [r3]
    4b84:	e3a02000 	mov	r2, #0
    4b88:	e5832004 	str	r2, [r3, #4]
    4b8c:	e59f3014 	ldr	r3, [pc, #20]	; 4ba8 <init_taglist+0x218>
    4b90:	e5933000 	ldr	r3, [r3]
    4b94:	e3a02000 	mov	r2, #0
    4b98:	e5832000 	str	r2, [r3]
    4b9c:	e28bd000 	add	sp, fp, #0
    4ba0:	e49db004 	pop	{fp}		; (ldr fp, [sp], #4)
    4ba4:	e12fff1e 	bx	lr
    4ba8:	0000611c 	andeq	r6, r0, ip, lsl r1
    4bac:	54410001 	strbpl	r0, [r1], #-1
    4bb0:	54410009 	strbpl	r0, [r1], #-9
    4bb4:	00006010 	andeq	r6, r0, r0, lsl r0
    4bb8:	54410002 	strbpl	r0, [r1], #-2
    4bbc:	54420005 	strbpl	r0, [r2], #-5
    4bc0:	40800000 	addmi	r0, r0, r0

00004bc4 <strcpy>:
    4bc4:	e52db004 	push	{fp}		; (str fp, [sp, #-4]!)
    4bc8:	e28db000 	add	fp, sp, #0
    4bcc:	e24dd014 	sub	sp, sp, #20
    4bd0:	e50b0010 	str	r0, [fp, #-16]
    4bd4:	e50b1014 	str	r1, [fp, #-20]	; 0xffffffec
    4bd8:	e51b3010 	ldr	r3, [fp, #-16]
    4bdc:	e50b3008 	str	r3, [fp, #-8]
    4be0:	ea000009 	b	4c0c <strcpy+0x48>
    4be4:	e51b3014 	ldr	r3, [fp, #-20]	; 0xffffffec
    4be8:	e5d32000 	ldrb	r2, [r3]
    4bec:	e51b3008 	ldr	r3, [fp, #-8]
    4bf0:	e5c32000 	strb	r2, [r3]
    4bf4:	e51b3008 	ldr	r3, [fp, #-8]
    4bf8:	e2833001 	add	r3, r3, #1
    4bfc:	e50b3008 	str	r3, [fp, #-8]
    4c00:	e51b3014 	ldr	r3, [fp, #-20]	; 0xffffffec
    4c04:	e2833001 	add	r3, r3, #1
    4c08:	e50b3014 	str	r3, [fp, #-20]	; 0xffffffec
    4c0c:	e51b3014 	ldr	r3, [fp, #-20]	; 0xffffffec
    4c10:	e5d33000 	ldrb	r3, [r3]
    4c14:	e3530000 	cmp	r3, #0
    4c18:	1afffff1 	bne	4be4 <strcpy+0x20>
    4c1c:	e51b3010 	ldr	r3, [fp, #-16]
    4c20:	e1a00003 	mov	r0, r3
    4c24:	e28bd000 	add	sp, fp, #0
    4c28:	e49db004 	pop	{fp}		; (ldr fp, [sp], #4)
    4c2c:	e12fff1e 	bx	lr

00004c30 <memcpy>:
    4c30:	e52db004 	push	{fp}		; (str fp, [sp, #-4]!)
    4c34:	e28db000 	add	fp, sp, #0
    4c38:	e24dd01c 	sub	sp, sp, #28
    4c3c:	e50b0010 	str	r0, [fp, #-16]
    4c40:	e50b1014 	str	r1, [fp, #-20]	; 0xffffffec
    4c44:	e50b2018 	str	r2, [fp, #-24]	; 0xffffffe8
    4c48:	e51b3010 	ldr	r3, [fp, #-16]
    4c4c:	e50b3008 	str	r3, [fp, #-8]
    4c50:	e51b3014 	ldr	r3, [fp, #-20]	; 0xffffffec
    4c54:	e50b300c 	str	r3, [fp, #-12]
    4c58:	ea00000c 	b	4c90 <memcpy+0x60>
    4c5c:	e51b300c 	ldr	r3, [fp, #-12]
    4c60:	e5d32000 	ldrb	r2, [r3]
    4c64:	e51b3008 	ldr	r3, [fp, #-8]
    4c68:	e5c32000 	strb	r2, [r3]
    4c6c:	e51b3008 	ldr	r3, [fp, #-8]
    4c70:	e2833001 	add	r3, r3, #1
    4c74:	e50b3008 	str	r3, [fp, #-8]
    4c78:	e51b300c 	ldr	r3, [fp, #-12]
    4c7c:	e2833001 	add	r3, r3, #1
    4c80:	e50b300c 	str	r3, [fp, #-12]
    4c84:	e51b3018 	ldr	r3, [fp, #-24]	; 0xffffffe8
    4c88:	e2433001 	sub	r3, r3, #1
    4c8c:	e50b3018 	str	r3, [fp, #-24]	; 0xffffffe8
    4c90:	e51b3018 	ldr	r3, [fp, #-24]	; 0xffffffe8
    4c94:	e3530000 	cmp	r3, #0
    4c98:	caffffef 	bgt	4c5c <memcpy+0x2c>
    4c9c:	e51b3010 	ldr	r3, [fp, #-16]
    4ca0:	e1a00003 	mov	r0, r3
    4ca4:	e28bd000 	add	sp, fp, #0
    4ca8:	e49db004 	pop	{fp}		; (ldr fp, [sp], #4)
    4cac:	e12fff1e 	bx	lr

00004cb0 <strcmp>:
    4cb0:	e52db004 	push	{fp}		; (str fp, [sp, #-4]!)
    4cb4:	e28db000 	add	fp, sp, #0
    4cb8:	e24dd00c 	sub	sp, sp, #12
    4cbc:	e50b0008 	str	r0, [fp, #-8]
    4cc0:	e50b100c 	str	r1, [fp, #-12]
    4cc4:	ea000012 	b	4d14 <strcmp+0x64>
    4cc8:	e51b3008 	ldr	r3, [fp, #-8]
    4ccc:	e5d32000 	ldrb	r2, [r3]
    4cd0:	e51b300c 	ldr	r3, [fp, #-12]
    4cd4:	e5d33000 	ldrb	r3, [r3]
    4cd8:	e1520003 	cmp	r2, r3
    4cdc:	0a000006 	beq	4cfc <strcmp+0x4c>
    4ce0:	e51b3008 	ldr	r3, [fp, #-8]
    4ce4:	e5d33000 	ldrb	r3, [r3]
    4ce8:	e1a02003 	mov	r2, r3
    4cec:	e51b300c 	ldr	r3, [fp, #-12]
    4cf0:	e5d33000 	ldrb	r3, [r3]
    4cf4:	e0633002 	rsb	r3, r3, r2
    4cf8:	ea00000e 	b	4d38 <strcmp+0x88>
    4cfc:	e51b3008 	ldr	r3, [fp, #-8]
    4d00:	e2833001 	add	r3, r3, #1
    4d04:	e50b3008 	str	r3, [fp, #-8]
    4d08:	e51b300c 	ldr	r3, [fp, #-12]
    4d0c:	e2833001 	add	r3, r3, #1
    4d10:	e50b300c 	str	r3, [fp, #-12]
    4d14:	e51b3008 	ldr	r3, [fp, #-8]
    4d18:	e5d33000 	ldrb	r3, [r3]
    4d1c:	e3530000 	cmp	r3, #0
    4d20:	0a000003 	beq	4d34 <strcmp+0x84>
    4d24:	e51b300c 	ldr	r3, [fp, #-12]
    4d28:	e5d33000 	ldrb	r3, [r3]
    4d2c:	e3530000 	cmp	r3, #0
    4d30:	1affffe4 	bne	4cc8 <strcmp+0x18>
    4d34:	e3a03000 	mov	r3, #0
    4d38:	e1a00003 	mov	r0, r3
    4d3c:	e28bd000 	add	sp, fp, #0
    4d40:	e49db004 	pop	{fp}		; (ldr fp, [sp], #4)
    4d44:	e12fff1e 	bx	lr

00004d48 <strlen>:
    4d48:	e52db004 	push	{fp}		; (str fp, [sp, #-4]!)
    4d4c:	e28db000 	add	fp, sp, #0
    4d50:	e24dd014 	sub	sp, sp, #20
    4d54:	e50b0010 	str	r0, [fp, #-16]
    4d58:	e51b3010 	ldr	r3, [fp, #-16]
    4d5c:	e50b3008 	str	r3, [fp, #-8]
    4d60:	ea000002 	b	4d70 <strlen+0x28>
    4d64:	e51b3008 	ldr	r3, [fp, #-8]
    4d68:	e2833001 	add	r3, r3, #1
    4d6c:	e50b3008 	str	r3, [fp, #-8]
    4d70:	e51b3008 	ldr	r3, [fp, #-8]
    4d74:	e5d33000 	ldrb	r3, [r3]
    4d78:	e3530000 	cmp	r3, #0
    4d7c:	1afffff8 	bne	4d64 <strlen+0x1c>
    4d80:	e51b2008 	ldr	r2, [fp, #-8]
    4d84:	e51b3010 	ldr	r3, [fp, #-16]
    4d88:	e0633002 	rsb	r3, r3, r2
    4d8c:	e1a00003 	mov	r0, r3
    4d90:	e28bd000 	add	sp, fp, #0
    4d94:	e49db004 	pop	{fp}		; (ldr fp, [sp], #4)
    4d98:	e12fff1e 	bx	lr

00004d9c <pow_w>:
    4d9c:	e52db004 	push	{fp}		; (str fp, [sp, #-4]!)
    4da0:	e28db000 	add	fp, sp, #0
    4da4:	e24dd014 	sub	sp, sp, #20
    4da8:	e50b0010 	str	r0, [fp, #-16]
    4dac:	e50b1014 	str	r1, [fp, #-20]	; 0xffffffec
    4db0:	e3a03001 	mov	r3, #1
    4db4:	e50b3008 	str	r3, [fp, #-8]
    4db8:	e51b3014 	ldr	r3, [fp, #-20]	; 0xffffffec
    4dbc:	e3530000 	cmp	r3, #0
    4dc0:	1a000001 	bne	4dcc <pow_w+0x30>
    4dc4:	e3a03001 	mov	r3, #1
    4dc8:	ea00000e 	b	4e08 <pow_w+0x6c>
    4dcc:	e3a03001 	mov	r3, #1
    4dd0:	e50b300c 	str	r3, [fp, #-12]
    4dd4:	ea000006 	b	4df4 <pow_w+0x58>
    4dd8:	e51b3008 	ldr	r3, [fp, #-8]
    4ddc:	e51b2010 	ldr	r2, [fp, #-16]
    4de0:	e0030392 	mul	r3, r2, r3
    4de4:	e50b3008 	str	r3, [fp, #-8]
    4de8:	e51b300c 	ldr	r3, [fp, #-12]
    4dec:	e2833001 	add	r3, r3, #1
    4df0:	e50b300c 	str	r3, [fp, #-12]
    4df4:	e51b200c 	ldr	r2, [fp, #-12]
    4df8:	e51b3014 	ldr	r3, [fp, #-20]	; 0xffffffec
    4dfc:	e1520003 	cmp	r2, r3
    4e00:	dafffff4 	ble	4dd8 <pow_w+0x3c>
    4e04:	e51b3008 	ldr	r3, [fp, #-8]
    4e08:	e1a00003 	mov	r0, r3
    4e0c:	e28bd000 	add	sp, fp, #0
    4e10:	e49db004 	pop	{fp}		; (ldr fp, [sp], #4)
    4e14:	e12fff1e 	bx	lr

00004e18 <atoi>:
    4e18:	e92d4810 	push	{r4, fp, lr}
    4e1c:	e28db008 	add	fp, sp, #8
    4e20:	e24dd01c 	sub	sp, sp, #28
    4e24:	e50b0020 	str	r0, [fp, #-32]	; 0xffffffe0
    4e28:	e3a03000 	mov	r3, #0
    4e2c:	e50b3014 	str	r3, [fp, #-20]	; 0xffffffec
    4e30:	e51b0020 	ldr	r0, [fp, #-32]	; 0xffffffe0
    4e34:	ebffffc3 	bl	4d48 <strlen>
    4e38:	e50b0018 	str	r0, [fp, #-24]	; 0xffffffe8
    4e3c:	e51b3018 	ldr	r3, [fp, #-24]	; 0xffffffe8
    4e40:	e50b3010 	str	r3, [fp, #-16]
    4e44:	ea000023 	b	4ed8 <atoi+0xc0>
    4e48:	e51b3010 	ldr	r3, [fp, #-16]
    4e4c:	e2433001 	sub	r3, r3, #1
    4e50:	e51b2020 	ldr	r2, [fp, #-32]	; 0xffffffe0
    4e54:	e0823003 	add	r3, r2, r3
    4e58:	e5d33000 	ldrb	r3, [r3]
    4e5c:	e353002f 	cmp	r3, #47	; 0x2f
    4e60:	8a000008 	bhi	4e88 <atoi+0x70>
    4e64:	e51b3010 	ldr	r3, [fp, #-16]
    4e68:	e2433001 	sub	r3, r3, #1
    4e6c:	e51b2020 	ldr	r2, [fp, #-32]	; 0xffffffe0
    4e70:	e0823003 	add	r3, r2, r3
    4e74:	e5d33000 	ldrb	r3, [r3]
    4e78:	e3530039 	cmp	r3, #57	; 0x39
    4e7c:	9a000001 	bls	4e88 <atoi+0x70>
    4e80:	e3a03000 	mov	r3, #0
    4e84:	ea000017 	b	4ee8 <atoi+0xd0>
    4e88:	e51b3010 	ldr	r3, [fp, #-16]
    4e8c:	e2433001 	sub	r3, r3, #1
    4e90:	e51b2020 	ldr	r2, [fp, #-32]	; 0xffffffe0
    4e94:	e0823003 	add	r3, r2, r3
    4e98:	e5d33000 	ldrb	r3, [r3]
    4e9c:	e2434030 	sub	r4, r3, #48	; 0x30
    4ea0:	e51b2018 	ldr	r2, [fp, #-24]	; 0xffffffe8
    4ea4:	e51b3010 	ldr	r3, [fp, #-16]
    4ea8:	e0633002 	rsb	r3, r3, r2
    4eac:	e3a0000a 	mov	r0, #10
    4eb0:	e1a01003 	mov	r1, r3
    4eb4:	ebffffb8 	bl	4d9c <pow_w>
    4eb8:	e1a03000 	mov	r3, r0
    4ebc:	e0030394 	mul	r3, r4, r3
    4ec0:	e51b2014 	ldr	r2, [fp, #-20]	; 0xffffffec
    4ec4:	e0823003 	add	r3, r2, r3
    4ec8:	e50b3014 	str	r3, [fp, #-20]	; 0xffffffec
    4ecc:	e51b3010 	ldr	r3, [fp, #-16]
    4ed0:	e2433001 	sub	r3, r3, #1
    4ed4:	e50b3010 	str	r3, [fp, #-16]
    4ed8:	e51b3010 	ldr	r3, [fp, #-16]
    4edc:	e3530000 	cmp	r3, #0
    4ee0:	caffffd8 	bgt	4e48 <atoi+0x30>
    4ee4:	e51b3014 	ldr	r3, [fp, #-20]	; 0xffffffec
    4ee8:	e1a00003 	mov	r0, r3
    4eec:	e24bd008 	sub	sp, fp, #8
    4ef0:	e8bd8810 	pop	{r4, fp, pc}

00004ef4 <atox>:
    4ef4:	e92d4810 	push	{r4, fp, lr}
    4ef8:	e28db008 	add	fp, sp, #8
    4efc:	e24dd01c 	sub	sp, sp, #28
    4f00:	e50b0020 	str	r0, [fp, #-32]	; 0xffffffe0
    4f04:	e3a03000 	mov	r3, #0
    4f08:	e50b3014 	str	r3, [fp, #-20]	; 0xffffffec
    4f0c:	e51b0020 	ldr	r0, [fp, #-32]	; 0xffffffe0
    4f10:	ebffff8c 	bl	4d48 <strlen>
    4f14:	e50b0018 	str	r0, [fp, #-24]	; 0xffffffe8
    4f18:	e51b3018 	ldr	r3, [fp, #-24]	; 0xffffffe8
    4f1c:	e50b3010 	str	r3, [fp, #-16]
    4f20:	ea000064 	b	50b8 <atox+0x1c4>
    4f24:	e51b3010 	ldr	r3, [fp, #-16]
    4f28:	e2433001 	sub	r3, r3, #1
    4f2c:	e51b2020 	ldr	r2, [fp, #-32]	; 0xffffffe0
    4f30:	e0823003 	add	r3, r2, r3
    4f34:	e5d33000 	ldrb	r3, [r3]
    4f38:	e353002f 	cmp	r3, #47	; 0x2f
    4f3c:	9a000018 	bls	4fa4 <atox+0xb0>
    4f40:	e51b3010 	ldr	r3, [fp, #-16]
    4f44:	e2433001 	sub	r3, r3, #1
    4f48:	e51b2020 	ldr	r2, [fp, #-32]	; 0xffffffe0
    4f4c:	e0823003 	add	r3, r2, r3
    4f50:	e5d33000 	ldrb	r3, [r3]
    4f54:	e3530039 	cmp	r3, #57	; 0x39
    4f58:	8a000011 	bhi	4fa4 <atox+0xb0>
    4f5c:	e51b3010 	ldr	r3, [fp, #-16]
    4f60:	e2433001 	sub	r3, r3, #1
    4f64:	e51b2020 	ldr	r2, [fp, #-32]	; 0xffffffe0
    4f68:	e0823003 	add	r3, r2, r3
    4f6c:	e5d33000 	ldrb	r3, [r3]
    4f70:	e2434030 	sub	r4, r3, #48	; 0x30
    4f74:	e51b2018 	ldr	r2, [fp, #-24]	; 0xffffffe8
    4f78:	e51b3010 	ldr	r3, [fp, #-16]
    4f7c:	e0633002 	rsb	r3, r3, r2
    4f80:	e3a00010 	mov	r0, #16
    4f84:	e1a01003 	mov	r1, r3
    4f88:	ebffff83 	bl	4d9c <pow_w>
    4f8c:	e1a03000 	mov	r3, r0
    4f90:	e0030394 	mul	r3, r4, r3
    4f94:	e51b2014 	ldr	r2, [fp, #-20]	; 0xffffffec
    4f98:	e0823003 	add	r3, r2, r3
    4f9c:	e50b3014 	str	r3, [fp, #-20]	; 0xffffffec
    4fa0:	ea000041 	b	50ac <atox+0x1b8>
    4fa4:	e51b3010 	ldr	r3, [fp, #-16]
    4fa8:	e2433001 	sub	r3, r3, #1
    4fac:	e51b2020 	ldr	r2, [fp, #-32]	; 0xffffffe0
    4fb0:	e0823003 	add	r3, r2, r3
    4fb4:	e5d33000 	ldrb	r3, [r3]
    4fb8:	e3530060 	cmp	r3, #96	; 0x60
    4fbc:	9a000018 	bls	5024 <atox+0x130>
    4fc0:	e51b3010 	ldr	r3, [fp, #-16]
    4fc4:	e2433001 	sub	r3, r3, #1
    4fc8:	e51b2020 	ldr	r2, [fp, #-32]	; 0xffffffe0
    4fcc:	e0823003 	add	r3, r2, r3
    4fd0:	e5d33000 	ldrb	r3, [r3]
    4fd4:	e3530066 	cmp	r3, #102	; 0x66
    4fd8:	8a000011 	bhi	5024 <atox+0x130>
    4fdc:	e51b3010 	ldr	r3, [fp, #-16]
    4fe0:	e2433001 	sub	r3, r3, #1
    4fe4:	e51b2020 	ldr	r2, [fp, #-32]	; 0xffffffe0
    4fe8:	e0823003 	add	r3, r2, r3
    4fec:	e5d33000 	ldrb	r3, [r3]
    4ff0:	e2434057 	sub	r4, r3, #87	; 0x57
    4ff4:	e51b2018 	ldr	r2, [fp, #-24]	; 0xffffffe8
    4ff8:	e51b3010 	ldr	r3, [fp, #-16]
    4ffc:	e0633002 	rsb	r3, r3, r2
    5000:	e3a00010 	mov	r0, #16
    5004:	e1a01003 	mov	r1, r3
    5008:	ebffff63 	bl	4d9c <pow_w>
    500c:	e1a03000 	mov	r3, r0
    5010:	e0030394 	mul	r3, r4, r3
    5014:	e51b2014 	ldr	r2, [fp, #-20]	; 0xffffffec
    5018:	e0823003 	add	r3, r2, r3
    501c:	e50b3014 	str	r3, [fp, #-20]	; 0xffffffec
    5020:	ea000021 	b	50ac <atox+0x1b8>
    5024:	e51b3010 	ldr	r3, [fp, #-16]
    5028:	e2433001 	sub	r3, r3, #1
    502c:	e51b2020 	ldr	r2, [fp, #-32]	; 0xffffffe0
    5030:	e0823003 	add	r3, r2, r3
    5034:	e5d33000 	ldrb	r3, [r3]
    5038:	e3530040 	cmp	r3, #64	; 0x40
    503c:	9a000018 	bls	50a4 <atox+0x1b0>
    5040:	e51b3010 	ldr	r3, [fp, #-16]
    5044:	e2433001 	sub	r3, r3, #1
    5048:	e51b2020 	ldr	r2, [fp, #-32]	; 0xffffffe0
    504c:	e0823003 	add	r3, r2, r3
    5050:	e5d33000 	ldrb	r3, [r3]
    5054:	e3530046 	cmp	r3, #70	; 0x46
    5058:	8a000011 	bhi	50a4 <atox+0x1b0>
    505c:	e51b3010 	ldr	r3, [fp, #-16]
    5060:	e2433001 	sub	r3, r3, #1
    5064:	e51b2020 	ldr	r2, [fp, #-32]	; 0xffffffe0
    5068:	e0823003 	add	r3, r2, r3
    506c:	e5d33000 	ldrb	r3, [r3]
    5070:	e2434037 	sub	r4, r3, #55	; 0x37
    5074:	e51b2018 	ldr	r2, [fp, #-24]	; 0xffffffe8
    5078:	e51b3010 	ldr	r3, [fp, #-16]
    507c:	e0633002 	rsb	r3, r3, r2
    5080:	e3a00010 	mov	r0, #16
    5084:	e1a01003 	mov	r1, r3
    5088:	ebffff43 	bl	4d9c <pow_w>
    508c:	e1a03000 	mov	r3, r0
    5090:	e0030394 	mul	r3, r4, r3
    5094:	e51b2014 	ldr	r2, [fp, #-20]	; 0xffffffec
    5098:	e0823003 	add	r3, r2, r3
    509c:	e50b3014 	str	r3, [fp, #-20]	; 0xffffffec
    50a0:	ea000001 	b	50ac <atox+0x1b8>
    50a4:	e3a03000 	mov	r3, #0
    50a8:	ea000006 	b	50c8 <atox+0x1d4>
    50ac:	e51b3010 	ldr	r3, [fp, #-16]
    50b0:	e2433001 	sub	r3, r3, #1
    50b4:	e50b3010 	str	r3, [fp, #-16]
    50b8:	e51b3010 	ldr	r3, [fp, #-16]
    50bc:	e3530000 	cmp	r3, #0
    50c0:	caffff97 	bgt	4f24 <atox+0x30>
    50c4:	e51b3014 	ldr	r3, [fp, #-20]	; 0xffffffec
    50c8:	e1a00003 	mov	r0, r3
    50cc:	e24bd008 	sub	sp, fp, #8
    50d0:	e8bd8810 	pop	{r4, fp, pc}

000050d4 <atoi_x>:
    50d4:	e92d4800 	push	{fp, lr}
    50d8:	e28db004 	add	fp, sp, #4
    50dc:	e24dd008 	sub	sp, sp, #8
    50e0:	e50b0008 	str	r0, [fp, #-8]
    50e4:	e51b3008 	ldr	r3, [fp, #-8]
    50e8:	e5d33000 	ldrb	r3, [r3]
    50ec:	e3530030 	cmp	r3, #48	; 0x30
    50f0:	1a000017 	bne	5154 <atoi_x+0x80>
    50f4:	e51b3008 	ldr	r3, [fp, #-8]
    50f8:	e2833001 	add	r3, r3, #1
    50fc:	e5d33000 	ldrb	r3, [r3]
    5100:	e3530078 	cmp	r3, #120	; 0x78
    5104:	13a03000 	movne	r3, #0
    5108:	03a03001 	moveq	r3, #1
    510c:	e20320ff 	and	r2, r3, #255	; 0xff
    5110:	e51b3008 	ldr	r3, [fp, #-8]
    5114:	e2833001 	add	r3, r3, #1
    5118:	e5d33000 	ldrb	r3, [r3]
    511c:	e3530058 	cmp	r3, #88	; 0x58
    5120:	13a03000 	movne	r3, #0
    5124:	03a03001 	moveq	r3, #1
    5128:	e20330ff 	and	r3, r3, #255	; 0xff
    512c:	e1823003 	orr	r3, r2, r3
    5130:	e20330ff 	and	r3, r3, #255	; 0xff
    5134:	e3530000 	cmp	r3, #0
    5138:	0a000005 	beq	5154 <atoi_x+0x80>
    513c:	e51b3008 	ldr	r3, [fp, #-8]
    5140:	e2833002 	add	r3, r3, #2
    5144:	e1a00003 	mov	r0, r3
    5148:	ebffff69 	bl	4ef4 <atox>
    514c:	e1a03000 	mov	r3, r0
    5150:	ea000002 	b	5160 <atoi_x+0x8c>
    5154:	e51b0008 	ldr	r0, [fp, #-8]
    5158:	ebffff2e 	bl	4e18 <atoi>
    515c:	e1a03000 	mov	r3, r0
    5160:	e1a00003 	mov	r0, r3
    5164:	e24bd004 	sub	sp, fp, #4
    5168:	e8bd8800 	pop	{fp, pc}

0000516c <itox>:
    516c:	e92d0810 	push	{r4, fp}
    5170:	e28db004 	add	fp, sp, #4
    5174:	e24dd028 	sub	sp, sp, #40	; 0x28
    5178:	e50b0028 	str	r0, [fp, #-40]	; 0xffffffd8
    517c:	e59f30d0 	ldr	r3, [pc, #208]	; 5254 <itox+0xe8>
    5180:	e24bc020 	sub	ip, fp, #32
    5184:	e1a04003 	mov	r4, r3
    5188:	e8b4000f 	ldm	r4!, {r0, r1, r2, r3}
    518c:	e8ac000f 	stmia	ip!, {r0, r1, r2, r3}
    5190:	e5943000 	ldr	r3, [r4]
    5194:	e5cc3000 	strb	r3, [ip]
    5198:	e3a03000 	mov	r3, #0
    519c:	e50b3008 	str	r3, [fp, #-8]
    51a0:	e3a03002 	mov	r3, #2
    51a4:	e50b300c 	str	r3, [fp, #-12]
    51a8:	ea000021 	b	5234 <itox+0xc8>
    51ac:	e51b3008 	ldr	r3, [fp, #-8]
    51b0:	e1a03103 	lsl	r3, r3, #2
    51b4:	e51b2028 	ldr	r2, [fp, #-40]	; 0xffffffd8
    51b8:	e1a03312 	lsl	r3, r2, r3
    51bc:	e1a02e23 	lsr	r2, r3, #28
    51c0:	e3e0301b 	mvn	r3, #27
    51c4:	e24b1004 	sub	r1, fp, #4
    51c8:	e0812002 	add	r2, r1, r2
    51cc:	e0823003 	add	r3, r2, r3
    51d0:	e5d32000 	ldrb	r2, [r3]
    51d4:	e59f107c 	ldr	r1, [pc, #124]	; 5258 <itox+0xec>
    51d8:	e51b300c 	ldr	r3, [fp, #-12]
    51dc:	e0813003 	add	r3, r1, r3
    51e0:	e5c32000 	strb	r2, [r3]
    51e4:	e59f206c 	ldr	r2, [pc, #108]	; 5258 <itox+0xec>
    51e8:	e51b300c 	ldr	r3, [fp, #-12]
    51ec:	e0823003 	add	r3, r2, r3
    51f0:	e5d33000 	ldrb	r3, [r3]
    51f4:	e3530030 	cmp	r3, #48	; 0x30
    51f8:	1a000002 	bne	5208 <itox+0x9c>
    51fc:	e51b300c 	ldr	r3, [fp, #-12]
    5200:	e3530002 	cmp	r3, #2
    5204:	0a000002 	beq	5214 <itox+0xa8>
    5208:	e51b300c 	ldr	r3, [fp, #-12]
    520c:	e2833001 	add	r3, r3, #1
    5210:	e50b300c 	str	r3, [fp, #-12]
    5214:	e51b300c 	ldr	r3, [fp, #-12]
    5218:	e2833001 	add	r3, r3, #1
    521c:	e59f2034 	ldr	r2, [pc, #52]	; 5258 <itox+0xec>
    5220:	e3a01000 	mov	r1, #0
    5224:	e7c21003 	strb	r1, [r2, r3]
    5228:	e51b3008 	ldr	r3, [fp, #-8]
    522c:	e2833001 	add	r3, r3, #1
    5230:	e50b3008 	str	r3, [fp, #-8]
    5234:	e51b3008 	ldr	r3, [fp, #-8]
    5238:	e3530007 	cmp	r3, #7
    523c:	daffffda 	ble	51ac <itox+0x40>
    5240:	e59f3010 	ldr	r3, [pc, #16]	; 5258 <itox+0xec>
    5244:	e1a00003 	mov	r0, r3
    5248:	e24bd004 	sub	sp, fp, #4
    524c:	e8bd0810 	pop	{r4, fp}
    5250:	e12fff1e 	bx	lr
    5254:	00005af4 	strdeq	r5, [r0], -r4
    5258:	0000609c 	muleq	r0, ip, r0

0000525c <itoa>:
    525c:	e92d4800 	push	{fp, lr}
    5260:	e28db004 	add	fp, sp, #4
    5264:	e24dd018 	sub	sp, sp, #24
    5268:	e50b0018 	str	r0, [fp, #-24]	; 0xffffffe8
    526c:	e50b101c 	str	r1, [fp, #-28]	; 0xffffffe4
    5270:	e51b3018 	ldr	r3, [fp, #-24]	; 0xffffffe8
    5274:	e50b3010 	str	r3, [fp, #-16]
    5278:	e3a03000 	mov	r3, #0
    527c:	e50b3008 	str	r3, [fp, #-8]
    5280:	ea000002 	b	5290 <itoa+0x34>
    5284:	e51b3008 	ldr	r3, [fp, #-8]
    5288:	e2833001 	add	r3, r3, #1
    528c:	e50b3008 	str	r3, [fp, #-8]
    5290:	e51b3010 	ldr	r3, [fp, #-16]
    5294:	e59f2080 	ldr	r2, [pc, #128]	; 531c <itoa+0xc0>
    5298:	e0c21293 	smull	r1, r2, r3, r2
    529c:	e1a02142 	asr	r2, r2, #2
    52a0:	e1a03fc3 	asr	r3, r3, #31
    52a4:	e0633002 	rsb	r3, r3, r2
    52a8:	e50b3010 	str	r3, [fp, #-16]
    52ac:	e51b3010 	ldr	r3, [fp, #-16]
    52b0:	e3530000 	cmp	r3, #0
    52b4:	1afffff2 	bne	5284 <itoa+0x28>
    52b8:	e3a03000 	mov	r3, #0
    52bc:	e50b300c 	str	r3, [fp, #-12]
    52c0:	ea000009 	b	52ec <itoa+0x90>
    52c4:	e3a0000a 	mov	r0, #10
    52c8:	e51b1008 	ldr	r1, [fp, #-8]
    52cc:	ebfffeb2 	bl	4d9c <pow_w>
    52d0:	e50b0014 	str	r0, [fp, #-20]	; 0xffffffec
    52d4:	e51b3008 	ldr	r3, [fp, #-8]
    52d8:	e2433001 	sub	r3, r3, #1
    52dc:	e50b3008 	str	r3, [fp, #-8]
    52e0:	e51b300c 	ldr	r3, [fp, #-12]
    52e4:	e2833001 	add	r3, r3, #1
    52e8:	e50b300c 	str	r3, [fp, #-12]
    52ec:	e51b3008 	ldr	r3, [fp, #-8]
    52f0:	e3530000 	cmp	r3, #0
    52f4:	cafffff2 	bgt	52c4 <itoa+0x68>
    52f8:	e51b300c 	ldr	r3, [fp, #-12]
    52fc:	e51b201c 	ldr	r2, [fp, #-28]	; 0xffffffe4
    5300:	e0823003 	add	r3, r2, r3
    5304:	e3a02000 	mov	r2, #0
    5308:	e5c32000 	strb	r2, [r3]
    530c:	e51b301c 	ldr	r3, [fp, #-28]	; 0xffffffe4
    5310:	e1a00003 	mov	r0, r3
    5314:	e24bd004 	sub	sp, fp, #4
    5318:	e8bd8800 	pop	{fp, pc}
    531c:	66666667 	strbtvs	r6, [r6], -r7, ror #12

00005320 <cmdline>:
    5320:	e92d4800 	push	{fp, lr}
    5324:	e28db004 	add	fp, sp, #4
    5328:	e24dd008 	sub	sp, sp, #8
    532c:	e50b0008 	str	r0, [fp, #-8]
    5330:	e59f001c 	ldr	r0, [pc, #28]	; 5354 <cmdline+0x34>
    5334:	eb000153 	bl	5888 <gets>
    5338:	e59f0014 	ldr	r0, [pc, #20]	; 5354 <cmdline+0x34>
    533c:	e51b1008 	ldr	r1, [fp, #-8]
    5340:	eb000004 	bl	5358 <cmd>
    5344:	e1a03000 	mov	r3, r0
    5348:	e1a00003 	mov	r0, r3
    534c:	e24bd004 	sub	sp, fp, #4
    5350:	e8bd8800 	pop	{fp, pc}
    5354:	00006120 	andeq	r6, r0, r0, lsr #2

00005358 <cmd>:
    5358:	e52db004 	push	{fp}		; (str fp, [sp, #-4]!)
    535c:	e28db000 	add	fp, sp, #0
    5360:	e24dd014 	sub	sp, sp, #20
    5364:	e50b0010 	str	r0, [fp, #-16]
    5368:	e50b1014 	str	r1, [fp, #-20]	; 0xffffffec
    536c:	e3a03000 	mov	r3, #0
    5370:	e50b3008 	str	r3, [fp, #-8]
    5374:	ea000000 	b	537c <cmd+0x24>
    5378:	e1a00000 	nop			; (mov r0, r0)
    537c:	e51b3010 	ldr	r3, [fp, #-16]
    5380:	e5d33000 	ldrb	r3, [r3]
    5384:	e3530020 	cmp	r3, #32
    5388:	1a000006 	bne	53a8 <cmd+0x50>
    538c:	e51b3010 	ldr	r3, [fp, #-16]
    5390:	e2833001 	add	r3, r3, #1
    5394:	e50b3010 	str	r3, [fp, #-16]
    5398:	e51b3010 	ldr	r3, [fp, #-16]
    539c:	e5d33000 	ldrb	r3, [r3]
    53a0:	e3530020 	cmp	r3, #32
    53a4:	0afffff8 	beq	538c <cmd+0x34>
    53a8:	e51b3010 	ldr	r3, [fp, #-16]
    53ac:	e5d33000 	ldrb	r3, [r3]
    53b0:	e3530000 	cmp	r3, #0
    53b4:	1a000004 	bne	53cc <cmd+0x74>
    53b8:	e51b3008 	ldr	r3, [fp, #-8]
    53bc:	e1a00003 	mov	r0, r3
    53c0:	e28bd000 	add	sp, fp, #0
    53c4:	e49db004 	pop	{fp}		; (ldr fp, [sp], #4)
    53c8:	e12fff1e 	bx	lr
    53cc:	e51b3014 	ldr	r3, [fp, #-20]	; 0xffffffec
    53d0:	e51b2010 	ldr	r2, [fp, #-16]
    53d4:	e5832000 	str	r2, [r3]
    53d8:	e51b3014 	ldr	r3, [fp, #-20]	; 0xffffffec
    53dc:	e2833004 	add	r3, r3, #4
    53e0:	e50b3014 	str	r3, [fp, #-20]	; 0xffffffec
    53e4:	ea000007 	b	5408 <cmd+0xb0>
    53e8:	e51b3010 	ldr	r3, [fp, #-16]
    53ec:	e5d33000 	ldrb	r3, [r3]
    53f0:	e3530000 	cmp	r3, #0
    53f4:	1a000003 	bne	5408 <cmd+0xb0>
    53f8:	e51b3008 	ldr	r3, [fp, #-8]
    53fc:	e2833001 	add	r3, r3, #1
    5400:	e50b3008 	str	r3, [fp, #-8]
    5404:	ea00000a 	b	5434 <cmd+0xdc>
    5408:	e51b3010 	ldr	r3, [fp, #-16]
    540c:	e5d33000 	ldrb	r3, [r3]
    5410:	e3530020 	cmp	r3, #32
    5414:	03a03000 	moveq	r3, #0
    5418:	13a03001 	movne	r3, #1
    541c:	e20330ff 	and	r3, r3, #255	; 0xff
    5420:	e51b2010 	ldr	r2, [fp, #-16]
    5424:	e2822001 	add	r2, r2, #1
    5428:	e50b2010 	str	r2, [fp, #-16]
    542c:	e3530000 	cmp	r3, #0
    5430:	1affffec 	bne	53e8 <cmd+0x90>
    5434:	e51b3010 	ldr	r3, [fp, #-16]
    5438:	e5d33000 	ldrb	r3, [r3]
    543c:	e3530000 	cmp	r3, #0
    5440:	0affffcc 	beq	5378 <cmd+0x20>
    5444:	e51b3010 	ldr	r3, [fp, #-16]
    5448:	e2433001 	sub	r3, r3, #1
    544c:	e3a02000 	mov	r2, #0
    5450:	e5c32000 	strb	r2, [r3]
    5454:	e51b3008 	ldr	r3, [fp, #-8]
    5458:	e2833001 	add	r3, r3, #1
    545c:	e50b3008 	str	r3, [fp, #-8]
    5460:	eaffffc5 	b	537c <cmd+0x24>

00005464 <cmd_get>:
    5464:	e92d4800 	push	{fp, lr}
    5468:	e28db004 	add	fp, sp, #4
    546c:	e24dd010 	sub	sp, sp, #16
    5470:	e50b0010 	str	r0, [fp, #-16]
    5474:	e59f0058 	ldr	r0, [pc, #88]	; 54d4 <cmd_get+0x70>
    5478:	eb0000ea 	bl	5828 <puts>
    547c:	e59f0054 	ldr	r0, [pc, #84]	; 54d8 <cmd_get+0x74>
    5480:	eb0000e8 	bl	5828 <puts>
    5484:	e3a03000 	mov	r3, #0
    5488:	e50b3008 	str	r3, [fp, #-8]
    548c:	ea000006 	b	54ac <cmd_get+0x48>
    5490:	e3a0002e 	mov	r0, #46	; 0x2e
    5494:	eb0000d0 	bl	57dc <putchr>
    5498:	e3a00ffa 	mov	r0, #1000	; 0x3e8
    549c:	eb000033 	bl	5570 <mdelay>
    54a0:	e51b3008 	ldr	r3, [fp, #-8]
    54a4:	e2833001 	add	r3, r3, #1
    54a8:	e50b3008 	str	r3, [fp, #-8]
    54ac:	e51b3008 	ldr	r3, [fp, #-8]
    54b0:	e3530013 	cmp	r3, #19
    54b4:	dafffff5 	ble	5490 <cmd_get+0x2c>
    54b8:	e51b0010 	ldr	r0, [fp, #-16]
    54bc:	ebffff04 	bl	50d4 <atoi_x>
    54c0:	e1a03000 	mov	r3, r0
    54c4:	e1a00003 	mov	r0, r3
    54c8:	eb000123 	bl	595c <getfile>
    54cc:	e24bd004 	sub	sp, fp, #4
    54d0:	e8bd8800 	pop	{fp, pc}
    54d4:	00005b08 	andeq	r5, r0, r8, lsl #22
    54d8:	00005b0c 	andeq	r5, r0, ip, lsl #22

000054dc <cmd_go>:
    54dc:	e92d4800 	push	{fp, lr}
    54e0:	e28db004 	add	fp, sp, #4
    54e4:	e24dd010 	sub	sp, sp, #16
    54e8:	e50b0010 	str	r0, [fp, #-16]
    54ec:	e3a03101 	mov	r3, #1073741824	; 0x40000000
    54f0:	e50b3008 	str	r3, [fp, #-8]
    54f4:	e51b0010 	ldr	r0, [fp, #-16]
    54f8:	ebfffef5 	bl	50d4 <atoi_x>
    54fc:	e1a03000 	mov	r3, r0
    5500:	e50b300c 	str	r3, [fp, #-12]
    5504:	e51b300c 	ldr	r3, [fp, #-12]
    5508:	e3a00000 	mov	r0, #0
    550c:	e59f100c 	ldr	r1, [pc, #12]	; 5520 <cmd_go+0x44>
    5510:	e51b2008 	ldr	r2, [fp, #-8]
    5514:	e12fff33 	blx	r3
    5518:	e24bd004 	sub	sp, fp, #4
    551c:	e8bd8800 	pop	{fp, pc}
    5520:	00000a45 	andeq	r0, r0, r5, asr #20

00005524 <udelay>:
    5524:	e52db004 	push	{fp}		; (str fp, [sp, #-4]!)
    5528:	e28db000 	add	fp, sp, #0
    552c:	e24dd014 	sub	sp, sp, #20
    5530:	e50b0010 	str	r0, [fp, #-16]
    5534:	e59f3030 	ldr	r3, [pc, #48]	; 556c <udelay+0x48>
    5538:	e5933000 	ldr	r3, [r3]
    553c:	e50b3008 	str	r3, [fp, #-8]
    5540:	e1a00000 	nop			; (mov r0, r0)
    5544:	e59f3020 	ldr	r3, [pc, #32]	; 556c <udelay+0x48>
    5548:	e5932000 	ldr	r2, [r3]
    554c:	e51b1008 	ldr	r1, [fp, #-8]
    5550:	e51b3010 	ldr	r3, [fp, #-16]
    5554:	e0813003 	add	r3, r1, r3
    5558:	e1520003 	cmp	r2, r3
    555c:	3afffff8 	bcc	5544 <udelay+0x20>
    5560:	e28bd000 	add	sp, fp, #0
    5564:	e49db004 	pop	{fp}		; (ldr fp, [sp], #4)
    5568:	e12fff1e 	bx	lr
    556c:	8001c0c0 	andhi	ip, r1, r0, asr #1

00005570 <mdelay>:
    5570:	e92d4800 	push	{fp, lr}
    5574:	e28db004 	add	fp, sp, #4
    5578:	e24dd008 	sub	sp, sp, #8
    557c:	e50b0008 	str	r0, [fp, #-8]
    5580:	ea000001 	b	558c <mdelay+0x1c>
    5584:	e3a00ffa 	mov	r0, #1000	; 0x3e8
    5588:	ebffffe5 	bl	5524 <udelay>
    558c:	e51b3008 	ldr	r3, [fp, #-8]
    5590:	e3530000 	cmp	r3, #0
    5594:	03a03000 	moveq	r3, #0
    5598:	13a03001 	movne	r3, #1
    559c:	e20330ff 	and	r3, r3, #255	; 0xff
    55a0:	e51b2008 	ldr	r2, [fp, #-8]
    55a4:	e2422001 	sub	r2, r2, #1
    55a8:	e50b2008 	str	r2, [fp, #-8]
    55ac:	e3530000 	cmp	r3, #0
    55b0:	1afffff3 	bne	5584 <mdelay+0x14>
    55b4:	e24bd004 	sub	sp, fp, #4
    55b8:	e8bd8800 	pop	{fp, pc}

000055bc <dm9000_index>:
    55bc:	e92d4800 	push	{fp, lr}
    55c0:	e28db004 	add	fp, sp, #4
    55c4:	e24dd018 	sub	sp, sp, #24
    55c8:	e1a03000 	mov	r3, r0
    55cc:	e54b3015 	strb	r3, [fp, #-21]	; 0xffffffeb
    55d0:	e3a03000 	mov	r3, #0
    55d4:	e50b3014 	str	r3, [fp, #-20]	; 0xffffffec
    55d8:	e59f3034 	ldr	r3, [pc, #52]	; 5614 <dm9000_index+0x58>
    55dc:	e50b3010 	str	r3, [fp, #-16]
    55e0:	e24b3015 	sub	r3, fp, #21
    55e4:	e50b300c 	str	r3, [fp, #-12]
    55e8:	e59f3028 	ldr	r3, [pc, #40]	; 5618 <dm9000_index+0x5c>
    55ec:	e50b3008 	str	r3, [fp, #-8]
    55f0:	e24b3014 	sub	r3, fp, #20
    55f4:	e3a00005 	mov	r0, #5
    55f8:	e1a01003 	mov	r1, r3
    55fc:	e3a02001 	mov	r2, #1
    5600:	eb000032 	bl	56d0 <dma_start>
    5604:	e3a03000 	mov	r3, #0
    5608:	e1a00003 	mov	r0, r3
    560c:	e24bd004 	sub	sp, fp, #4
    5610:	e8bd8800 	pop	{fp, pc}
    5614:	000110ca 	andeq	r1, r1, sl, asr #1
    5618:	00900001 	addseq	r0, r0, r1

0000561c <dm9000_read>:
    561c:	e92d4800 	push	{fp, lr}
    5620:	e28db004 	add	fp, sp, #4
    5624:	e24dd018 	sub	sp, sp, #24
    5628:	e3a03000 	mov	r3, #0
    562c:	e50b3018 	str	r3, [fp, #-24]	; 0xffffffe8
    5630:	e59f3034 	ldr	r3, [pc, #52]	; 566c <dm9000_read+0x50>
    5634:	e50b3014 	str	r3, [fp, #-20]	; 0xffffffec
    5638:	e24b3005 	sub	r3, fp, #5
    563c:	e50b3010 	str	r3, [fp, #-16]
    5640:	e59f3028 	ldr	r3, [pc, #40]	; 5670 <dm9000_read+0x54>
    5644:	e50b300c 	str	r3, [fp, #-12]
    5648:	e24b3018 	sub	r3, fp, #24
    564c:	e3a00005 	mov	r0, #5
    5650:	e1a01003 	mov	r1, r3
    5654:	e3a02001 	mov	r2, #1
    5658:	eb00001c 	bl	56d0 <dma_start>
    565c:	e55b3005 	ldrb	r3, [fp, #-5]
    5660:	e1a00003 	mov	r0, r3
    5664:	e24bd004 	sub	sp, fp, #4
    5668:	e8bd8800 	pop	{fp, pc}
    566c:	000110c9 	andeq	r1, r1, r9, asr #1
    5670:	01920001 	orrseq	r0, r2, r1

00005674 <dm9000_write>:
    5674:	e92d4800 	push	{fp, lr}
    5678:	e28db004 	add	fp, sp, #4
    567c:	e24dd018 	sub	sp, sp, #24
    5680:	e1a03000 	mov	r3, r0
    5684:	e54b3015 	strb	r3, [fp, #-21]	; 0xffffffeb
    5688:	e3a03000 	mov	r3, #0
    568c:	e50b3014 	str	r3, [fp, #-20]	; 0xffffffec
    5690:	e59f3030 	ldr	r3, [pc, #48]	; 56c8 <dm9000_write+0x54>
    5694:	e50b3010 	str	r3, [fp, #-16]
    5698:	e24b3015 	sub	r3, fp, #21
    569c:	e50b300c 	str	r3, [fp, #-12]
    56a0:	e59f3024 	ldr	r3, [pc, #36]	; 56cc <dm9000_write+0x58>
    56a4:	e50b3008 	str	r3, [fp, #-8]
    56a8:	e24b3014 	sub	r3, fp, #20
    56ac:	e3a00005 	mov	r0, #5
    56b0:	e1a01003 	mov	r1, r3
    56b4:	e3a02001 	mov	r2, #1
    56b8:	eb000004 	bl	56d0 <dma_start>
    56bc:	e1a00003 	mov	r0, r3
    56c0:	e24bd004 	sub	sp, fp, #4
    56c4:	e8bd8800 	pop	{fp, pc}
    56c8:	000110ca 	andeq	r1, r1, sl, asr #1
    56cc:	00920001 	addseq	r0, r2, r1

000056d0 <dma_start>:
    56d0:	e52db004 	push	{fp}		; (str fp, [sp, #-4]!)
    56d4:	e28db000 	add	fp, sp, #0
    56d8:	e24dd014 	sub	sp, sp, #20
    56dc:	e50b0008 	str	r0, [fp, #-8]
    56e0:	e50b100c 	str	r1, [fp, #-12]
    56e4:	e50b2010 	str	r2, [fp, #-16]
    56e8:	e59f308c 	ldr	r3, [pc, #140]	; 577c <dma_start+0xac>
    56ec:	e5931000 	ldr	r1, [r3]
    56f0:	e51b2008 	ldr	r2, [fp, #-8]
    56f4:	e1a03002 	mov	r3, r2
    56f8:	e1a03183 	lsl	r3, r3, #3
    56fc:	e0623003 	rsb	r3, r2, r3
    5700:	e1a03203 	lsl	r3, r3, #4
    5704:	e0813003 	add	r3, r1, r3
    5708:	e51b200c 	ldr	r2, [fp, #-12]
    570c:	e5832010 	str	r2, [r3, #16]
    5710:	e59f3064 	ldr	r3, [pc, #100]	; 577c <dma_start+0xac>
    5714:	e5931000 	ldr	r1, [r3]
    5718:	e51b2008 	ldr	r2, [fp, #-8]
    571c:	e1a03002 	mov	r3, r2
    5720:	e1a03183 	lsl	r3, r3, #3
    5724:	e0623003 	rsb	r3, r2, r3
    5728:	e1a03203 	lsl	r3, r3, #4
    572c:	e0813003 	add	r3, r1, r3
    5730:	e51b2010 	ldr	r2, [fp, #-16]
    5734:	e5832040 	str	r2, [r3, #64]	; 0x40
    5738:	e1a00000 	nop			; (mov r0, r0)
    573c:	e59f303c 	ldr	r3, [pc, #60]	; 5780 <dma_start+0xb0>
    5740:	e5932000 	ldr	r2, [r3]
    5744:	e3a01001 	mov	r1, #1
    5748:	e51b3008 	ldr	r3, [fp, #-8]
    574c:	e1a03311 	lsl	r3, r1, r3
    5750:	e0023003 	and	r3, r2, r3
    5754:	e3530000 	cmp	r3, #0
    5758:	0afffff7 	beq	573c <dma_start+0x6c>
    575c:	e59f3020 	ldr	r3, [pc, #32]	; 5784 <dma_start+0xb4>
    5760:	e3a01001 	mov	r1, #1
    5764:	e51b2008 	ldr	r2, [fp, #-8]
    5768:	e1a02211 	lsl	r2, r1, r2
    576c:	e5832000 	str	r2, [r3]
    5770:	e28bd000 	add	sp, fp, #0
    5774:	e49db004 	pop	{fp}		; (ldr fp, [sp], #4)
    5778:	e12fff1e 	bx	lr
    577c:	000060a8 	andeq	r6, r0, r8, lsr #1
    5780:	80004010 	andhi	r4, r0, r0, lsl r0
    5784:	80004018 	andhi	r4, r0, r8, lsl r0

00005788 <getchr>:
    5788:	e52db004 	push	{fp}		; (str fp, [sp, #-4]!)
    578c:	e28db000 	add	fp, sp, #0
    5790:	e24dd00c 	sub	sp, sp, #12
    5794:	e3a03000 	mov	r3, #0
    5798:	e54b3005 	strb	r3, [fp, #-5]
    579c:	e1a00000 	nop			; (mov r0, r0)
    57a0:	e59f302c 	ldr	r3, [pc, #44]	; 57d4 <getchr+0x4c>
    57a4:	e5933000 	ldr	r3, [r3]
    57a8:	e2033010 	and	r3, r3, #16
    57ac:	e3530000 	cmp	r3, #0
    57b0:	1afffffa 	bne	57a0 <getchr+0x18>
    57b4:	e59f301c 	ldr	r3, [pc, #28]	; 57d8 <getchr+0x50>
    57b8:	e5933000 	ldr	r3, [r3]
    57bc:	e54b3005 	strb	r3, [fp, #-5]
    57c0:	e55b3005 	ldrb	r3, [fp, #-5]
    57c4:	e1a00003 	mov	r0, r3
    57c8:	e28bd000 	add	sp, fp, #0
    57cc:	e49db004 	pop	{fp}		; (ldr fp, [sp], #4)
    57d0:	e12fff1e 	bx	lr
    57d4:	80070018 	andhi	r0, r7, r8, lsl r0
    57d8:	80070000 	andhi	r0, r7, r0

000057dc <putchr>:
    57dc:	e52db004 	push	{fp}		; (str fp, [sp, #-4]!)
    57e0:	e28db000 	add	fp, sp, #0
    57e4:	e24dd00c 	sub	sp, sp, #12
    57e8:	e1a03000 	mov	r3, r0
    57ec:	e54b3005 	strb	r3, [fp, #-5]
    57f0:	e1a00000 	nop			; (mov r0, r0)
    57f4:	e59f3024 	ldr	r3, [pc, #36]	; 5820 <putchr+0x44>
    57f8:	e5933000 	ldr	r3, [r3]
    57fc:	e2033020 	and	r3, r3, #32
    5800:	e3530000 	cmp	r3, #0
    5804:	1afffffa 	bne	57f4 <putchr+0x18>
    5808:	e59f3014 	ldr	r3, [pc, #20]	; 5824 <putchr+0x48>
    580c:	e55b2005 	ldrb	r2, [fp, #-5]
    5810:	e5832000 	str	r2, [r3]
    5814:	e28bd000 	add	sp, fp, #0
    5818:	e49db004 	pop	{fp}		; (ldr fp, [sp], #4)
    581c:	e12fff1e 	bx	lr
    5820:	80070018 	andhi	r0, r7, r8, lsl r0
    5824:	80070000 	andhi	r0, r7, r0

00005828 <puts>:
    5828:	e92d4800 	push	{fp, lr}
    582c:	e28db004 	add	fp, sp, #4
    5830:	e24dd010 	sub	sp, sp, #16
    5834:	e50b0010 	str	r0, [fp, #-16]
    5838:	e51b3010 	ldr	r3, [fp, #-16]
    583c:	e50b3008 	str	r3, [fp, #-8]
    5840:	ea000006 	b	5860 <puts+0x38>
    5844:	e51b3008 	ldr	r3, [fp, #-8]
    5848:	e5d33000 	ldrb	r3, [r3]
    584c:	e1a00003 	mov	r0, r3
    5850:	ebffffe1 	bl	57dc <putchr>
    5854:	e51b3008 	ldr	r3, [fp, #-8]
    5858:	e2833001 	add	r3, r3, #1
    585c:	e50b3008 	str	r3, [fp, #-8]
    5860:	e51b3008 	ldr	r3, [fp, #-8]
    5864:	e5d33000 	ldrb	r3, [r3]
    5868:	e3530000 	cmp	r3, #0
    586c:	1afffff4 	bne	5844 <puts+0x1c>
    5870:	e51b2008 	ldr	r2, [fp, #-8]
    5874:	e51b3010 	ldr	r3, [fp, #-16]
    5878:	e0633002 	rsb	r3, r3, r2
    587c:	e1a00003 	mov	r0, r3
    5880:	e24bd004 	sub	sp, fp, #4
    5884:	e8bd8800 	pop	{fp, pc}

00005888 <gets>:
    5888:	e92d4800 	push	{fp, lr}
    588c:	e28db004 	add	fp, sp, #4
    5890:	e24dd010 	sub	sp, sp, #16
    5894:	e50b0010 	str	r0, [fp, #-16]
    5898:	e51b3010 	ldr	r3, [fp, #-16]
    589c:	e50b3008 	str	r3, [fp, #-8]
    58a0:	ebffffb8 	bl	5788 <getchr>
    58a4:	e1a03000 	mov	r3, r0
    58a8:	e1a02003 	mov	r2, r3
    58ac:	e51b3008 	ldr	r3, [fp, #-8]
    58b0:	e5c32000 	strb	r2, [r3]
    58b4:	e51b3008 	ldr	r3, [fp, #-8]
    58b8:	e5d33000 	ldrb	r3, [r3]
    58bc:	e3530008 	cmp	r3, #8
    58c0:	1a00000e 	bne	5900 <gets+0x78>
    58c4:	e51b2008 	ldr	r2, [fp, #-8]
    58c8:	e51b3010 	ldr	r3, [fp, #-16]
    58cc:	e1520003 	cmp	r2, r3
    58d0:	9a000008 	bls	58f8 <gets+0x70>
    58d4:	e3a00008 	mov	r0, #8
    58d8:	ebffffbf 	bl	57dc <putchr>
    58dc:	e3a00020 	mov	r0, #32
    58e0:	ebffffbd 	bl	57dc <putchr>
    58e4:	e3a00008 	mov	r0, #8
    58e8:	ebffffbb 	bl	57dc <putchr>
    58ec:	e51b3008 	ldr	r3, [fp, #-8]
    58f0:	e2433001 	sub	r3, r3, #1
    58f4:	e50b3008 	str	r3, [fp, #-8]
    58f8:	e1a00000 	nop			; (mov r0, r0)
    58fc:	eaffffe7 	b	58a0 <gets+0x18>
    5900:	e51b3008 	ldr	r3, [fp, #-8]
    5904:	e5d33000 	ldrb	r3, [r3]
    5908:	e353000d 	cmp	r3, #13
    590c:	0a000003 	beq	5920 <gets+0x98>
    5910:	e51b3008 	ldr	r3, [fp, #-8]
    5914:	e5d33000 	ldrb	r3, [r3]
    5918:	e1a00003 	mov	r0, r3
    591c:	ebffffae 	bl	57dc <putchr>
    5920:	e51b3008 	ldr	r3, [fp, #-8]
    5924:	e5d33000 	ldrb	r3, [r3]
    5928:	e353000d 	cmp	r3, #13
    592c:	1a000006 	bne	594c <gets+0xc4>
    5930:	e51b3008 	ldr	r3, [fp, #-8]
    5934:	e3a02000 	mov	r2, #0
    5938:	e5c32000 	strb	r2, [r3]
    593c:	e51b3010 	ldr	r3, [fp, #-16]
    5940:	e1a00003 	mov	r0, r3
    5944:	e24bd004 	sub	sp, fp, #4
    5948:	e8bd8800 	pop	{fp, pc}
    594c:	e51b3008 	ldr	r3, [fp, #-8]
    5950:	e2833001 	add	r3, r3, #1
    5954:	e50b3008 	str	r3, [fp, #-8]
    5958:	eaffffd0 	b	58a0 <gets+0x18>

0000595c <getfile>:
    595c:	e92d4800 	push	{fp, lr}
    5960:	e28db004 	add	fp, sp, #4
    5964:	e24dd018 	sub	sp, sp, #24
    5968:	e50b0018 	str	r0, [fp, #-24]	; 0xffffffe8
    596c:	e3a03000 	mov	r3, #0
    5970:	e50b300c 	str	r3, [fp, #-12]
    5974:	e3a03000 	mov	r3, #0
    5978:	e54b300d 	strb	r3, [fp, #-13]
    597c:	e3a00015 	mov	r0, #21
    5980:	ebffff95 	bl	57dc <putchr>
    5984:	ea000029 	b	5a30 <getfile+0xd4>
    5988:	e55b300e 	ldrb	r3, [fp, #-14]
    598c:	e3530001 	cmp	r3, #1
    5990:	1a000025 	bne	5a2c <getfile+0xd0>
    5994:	ebffff7b 	bl	5788 <getchr>
    5998:	e1a03000 	mov	r3, r0
    599c:	e54b300f 	strb	r3, [fp, #-15]
    59a0:	ebffff78 	bl	5788 <getchr>
    59a4:	e1a03000 	mov	r3, r0
    59a8:	e54b3010 	strb	r3, [fp, #-16]
    59ac:	e3a03000 	mov	r3, #0
    59b0:	e50b3008 	str	r3, [fp, #-8]
    59b4:	ea000010 	b	59fc <getfile+0xa0>
    59b8:	ebffff72 	bl	5788 <getchr>
    59bc:	e1a03000 	mov	r3, r0
    59c0:	e1a02003 	mov	r2, r3
    59c4:	e51b3018 	ldr	r3, [fp, #-24]	; 0xffffffe8
    59c8:	e5c32000 	strb	r2, [r3]
    59cc:	e51b3018 	ldr	r3, [fp, #-24]	; 0xffffffe8
    59d0:	e2833001 	add	r3, r3, #1
    59d4:	e50b3018 	str	r3, [fp, #-24]	; 0xffffffe8
    59d8:	e51b3018 	ldr	r3, [fp, #-24]	; 0xffffffe8
    59dc:	e2433001 	sub	r3, r3, #1
    59e0:	e5d32000 	ldrb	r2, [r3]
    59e4:	e55b300d 	ldrb	r3, [fp, #-13]
    59e8:	e0823003 	add	r3, r2, r3
    59ec:	e54b300d 	strb	r3, [fp, #-13]
    59f0:	e51b3008 	ldr	r3, [fp, #-8]
    59f4:	e2833001 	add	r3, r3, #1
    59f8:	e50b3008 	str	r3, [fp, #-8]
    59fc:	e51b3008 	ldr	r3, [fp, #-8]
    5a00:	e353007f 	cmp	r3, #127	; 0x7f
    5a04:	daffffeb 	ble	59b8 <getfile+0x5c>
    5a08:	ebffff5e 	bl	5788 <getchr>
    5a0c:	e1a03000 	mov	r3, r0
    5a10:	e54b3011 	strb	r3, [fp, #-17]	; 0xffffffef
    5a14:	e3a00006 	mov	r0, #6
    5a18:	ebffff6f 	bl	57dc <putchr>
    5a1c:	e51b300c 	ldr	r3, [fp, #-12]
    5a20:	e2833001 	add	r3, r3, #1
    5a24:	e50b300c 	str	r3, [fp, #-12]
    5a28:	ea000000 	b	5a30 <getfile+0xd4>
    5a2c:	e1a00000 	nop			; (mov r0, r0)
    5a30:	ebffff54 	bl	5788 <getchr>
    5a34:	e1a03000 	mov	r3, r0
    5a38:	e54b300e 	strb	r3, [fp, #-14]
    5a3c:	e55b300e 	ldrb	r3, [fp, #-14]
    5a40:	e3530004 	cmp	r3, #4
    5a44:	1affffcf 	bne	5988 <getfile+0x2c>
    5a48:	e3a00006 	mov	r0, #6
    5a4c:	ebffff62 	bl	57dc <putchr>
    5a50:	e51b300c 	ldr	r3, [fp, #-12]
    5a54:	e1a00003 	mov	r0, r3
    5a58:	e24bd004 	sub	sp, fp, #4
    5a5c:	e8bd8800 	pop	{fp, pc}
